
ASTA_FIRMWARE.elf:     file format elf32-littlearm

Sections:
Idx Name          Size      VMA       LMA       File off  Algn
  0 .isr_vector   000001d8  08000000  08000000  00001000  2**0
                  CONTENTS, ALLOC, LOAD, READONLY, DATA
  1 .text         0000a1a4  080001e0  080001e0  000011e0  2**4
                  CONTENTS, ALLOC, LOAD, READONLY, CODE
  2 .rodata       000004d0  0800a388  0800a388  0000b388  2**3
                  CONTENTS, ALLOC, LOAD, READONLY, DATA
  3 .ARM.extab    00000000  0800a858  0800a858  0000c1e0  2**0
                  CONTENTS, READONLY
  4 .ARM          00000008  0800a858  0800a858  0000b858  2**2
                  CONTENTS, ALLOC, LOAD, READONLY, DATA
  5 .preinit_array 00000000  0800a860  0800a860  0000c1e0  2**0
                  CONTENTS, ALLOC, LOAD, DATA
  6 .init_array   00000004  0800a860  0800a860  0000b860  2**2
                  CONTENTS, ALLOC, LOAD, READONLY, DATA
  7 .fini_array   00000004  0800a864  0800a864  0000b864  2**2
                  CONTENTS, ALLOC, LOAD, READONLY, DATA
  8 .data         000001e0  20000000  0800a868  0000c000  2**2
                  CONTENTS, ALLOC, LOAD, DATA
  9 .bss          000006e8  200001e0  0800aa48  0000c1e0  2**3
                  ALLOC
 10 ._user_heap_stack 00000600  200008c8  0800aa48  0000c8c8  2**0
                  ALLOC
 11 .ARM.attributes 00000030  00000000  00000000  0000c1e0  2**0
                  CONTENTS, READONLY
 12 .comment      00000043  00000000  00000000  0000c210  2**0
                  CONTENTS, READONLY
 13 .debug_frame  0000156c  00000000  00000000  0000c254  2**2
                  CONTENTS, READONLY, DEBUGGING, OCTETS

Disassembly of section .text:

080001e0 <__do_global_dtors_aux>:
 80001e0:	b510      	push	{r4, lr}
 80001e2:	4c05      	ldr	r4, [pc, #20]	@ (80001f8 <__do_global_dtors_aux+0x18>)
 80001e4:	7823      	ldrb	r3, [r4, #0]
 80001e6:	b933      	cbnz	r3, 80001f6 <__do_global_dtors_aux+0x16>
 80001e8:	4b04      	ldr	r3, [pc, #16]	@ (80001fc <__do_global_dtors_aux+0x1c>)
 80001ea:	b113      	cbz	r3, 80001f2 <__do_global_dtors_aux+0x12>
 80001ec:	4804      	ldr	r0, [pc, #16]	@ (8000200 <__do_global_dtors_aux+0x20>)
 80001ee:	f3af 8000 	nop.w
 80001f2:	2301      	movs	r3, #1
 80001f4:	7023      	strb	r3, [r4, #0]
 80001f6:	bd10      	pop	{r4, pc}
 80001f8:	200001e0 	.word	0x200001e0
 80001fc:	00000000 	.word	0x00000000
 8000200:	0800a36c 	.word	0x0800a36c

08000204 <frame_dummy>:
 8000204:	b508      	push	{r3, lr}
 8000206:	4b03      	ldr	r3, [pc, #12]	@ (8000214 <frame_dummy+0x10>)
 8000208:	b11b      	cbz	r3, 8000212 <frame_dummy+0xe>
 800020a:	4903      	ldr	r1, [pc, #12]	@ (8000218 <frame_dummy+0x14>)
 800020c:	4803      	ldr	r0, [pc, #12]	@ (800021c <frame_dummy+0x18>)
 800020e:	f3af 8000 	nop.w
 8000212:	bd08      	pop	{r3, pc}
 8000214:	00000000 	.word	0x00000000
 8000218:	200001e4 	.word	0x200001e4
 800021c:	0800a36c 	.word	0x0800a36c

08000220 <strlen>:
 8000220:	4603      	mov	r3, r0
 8000222:	f813 2b01 	ldrb.w	r2, [r3], #1
 8000226:	2a00      	cmp	r2, #0
 8000228:	d1fb      	bne.n	8000222 <strlen+0x2>
 800022a:	1a18      	subs	r0, r3, r0
 800022c:	3801      	subs	r0, #1
 800022e:	4770      	bx	lr

08000230 <memchr>:
 8000230:	f001 01ff 	and.w	r1, r1, #255	@ 0xff
 8000234:	2a10      	cmp	r2, #16
 8000236:	db2b      	blt.n	8000290 <memchr+0x60>
 8000238:	f010 0f07 	tst.w	r0, #7
 800023c:	d008      	beq.n	8000250 <memchr+0x20>
 800023e:	f810 3b01 	ldrb.w	r3, [r0], #1
 8000242:	3a01      	subs	r2, #1
 8000244:	428b      	cmp	r3, r1
 8000246:	d02d      	beq.n	80002a4 <memchr+0x74>
 8000248:	f010 0f07 	tst.w	r0, #7
 800024c:	b342      	cbz	r2, 80002a0 <memchr+0x70>
 800024e:	d1f6      	bne.n	800023e <memchr+0xe>
 8000250:	b4f0      	push	{r4, r5, r6, r7}
 8000252:	ea41 2101 	orr.w	r1, r1, r1, lsl #8
 8000256:	ea41 4101 	orr.w	r1, r1, r1, lsl #16
 800025a:	f022 0407 	bic.w	r4, r2, #7
 800025e:	f07f 0700 	mvns.w	r7, #0
 8000262:	2300      	movs	r3, #0
 8000264:	e8f0 5602 	ldrd	r5, r6, [r0], #8
 8000268:	3c08      	subs	r4, #8
 800026a:	ea85 0501 	eor.w	r5, r5, r1
 800026e:	ea86 0601 	eor.w	r6, r6, r1
 8000272:	fa85 f547 	uadd8	r5, r5, r7
 8000276:	faa3 f587 	sel	r5, r3, r7
 800027a:	fa86 f647 	uadd8	r6, r6, r7
 800027e:	faa5 f687 	sel	r6, r5, r7
 8000282:	b98e      	cbnz	r6, 80002a8 <memchr+0x78>
 8000284:	d1ee      	bne.n	8000264 <memchr+0x34>
 8000286:	bcf0      	pop	{r4, r5, r6, r7}
 8000288:	f001 01ff 	and.w	r1, r1, #255	@ 0xff
 800028c:	f002 0207 	and.w	r2, r2, #7
 8000290:	b132      	cbz	r2, 80002a0 <memchr+0x70>
 8000292:	f810 3b01 	ldrb.w	r3, [r0], #1
 8000296:	3a01      	subs	r2, #1
 8000298:	ea83 0301 	eor.w	r3, r3, r1
 800029c:	b113      	cbz	r3, 80002a4 <memchr+0x74>
 800029e:	d1f8      	bne.n	8000292 <memchr+0x62>
 80002a0:	2000      	movs	r0, #0
 80002a2:	4770      	bx	lr
 80002a4:	3801      	subs	r0, #1
 80002a6:	4770      	bx	lr
 80002a8:	2d00      	cmp	r5, #0
 80002aa:	bf06      	itte	eq
 80002ac:	4635      	moveq	r5, r6
 80002ae:	3803      	subeq	r0, #3
 80002b0:	3807      	subne	r0, #7
 80002b2:	f015 0f01 	tst.w	r5, #1
 80002b6:	d107      	bne.n	80002c8 <memchr+0x98>
 80002b8:	3001      	adds	r0, #1
 80002ba:	f415 7f80 	tst.w	r5, #256	@ 0x100
 80002be:	bf02      	ittt	eq
 80002c0:	3001      	addeq	r0, #1
 80002c2:	f415 3fc0 	tsteq.w	r5, #98304	@ 0x18000
 80002c6:	3001      	addeq	r0, #1
 80002c8:	bcf0      	pop	{r4, r5, r6, r7}
 80002ca:	3801      	subs	r0, #1
 80002cc:	4770      	bx	lr
 80002ce:	bf00      	nop

080002d0 <__aeabi_drsub>:
 80002d0:	f081 4100 	eor.w	r1, r1, #2147483648	@ 0x80000000
 80002d4:	e002      	b.n	80002dc <__adddf3>
 80002d6:	bf00      	nop

080002d8 <__aeabi_dsub>:
 80002d8:	f083 4300 	eor.w	r3, r3, #2147483648	@ 0x80000000

080002dc <__adddf3>:
 80002dc:	b530      	push	{r4, r5, lr}
 80002de:	ea4f 0441 	mov.w	r4, r1, lsl #1
 80002e2:	ea4f 0543 	mov.w	r5, r3, lsl #1
 80002e6:	ea94 0f05 	teq	r4, r5
 80002ea:	bf08      	it	eq
 80002ec:	ea90 0f02 	teqeq	r0, r2
 80002f0:	bf1f      	itttt	ne
 80002f2:	ea54 0c00 	orrsne.w	ip, r4, r0
 80002f6:	ea55 0c02 	orrsne.w	ip, r5, r2
 80002fa:	ea7f 5c64 	mvnsne.w	ip, r4, asr #21
 80002fe:	ea7f 5c65 	mvnsne.w	ip, r5, asr #21
 8000302:	f000 80e2 	beq.w	80004ca <__adddf3+0x1ee>
 8000306:	ea4f 5454 	mov.w	r4, r4, lsr #21
 800030a:	ebd4 5555 	rsbs	r5, r4, r5, lsr #21
 800030e:	bfb8      	it	lt
 8000310:	426d      	neglt	r5, r5
 8000312:	dd0c      	ble.n	800032e <__adddf3+0x52>
 8000314:	442c      	add	r4, r5
 8000316:	ea80 0202 	eor.w	r2, r0, r2
 800031a:	ea81 0303 	eor.w	r3, r1, r3
 800031e:	ea82 0000 	eor.w	r0, r2, r0
 8000322:	ea83 0101 	eor.w	r1, r3, r1
 8000326:	ea80 0202 	eor.w	r2, r0, r2
 800032a:	ea81 0303 	eor.w	r3, r1, r3
 800032e:	2d36      	cmp	r5, #54	@ 0x36
 8000330:	bf88      	it	hi
 8000332:	bd30      	pophi	{r4, r5, pc}
 8000334:	f011 4f00 	tst.w	r1, #2147483648	@ 0x80000000
 8000338:	ea4f 3101 	mov.w	r1, r1, lsl #12
 800033c:	f44f 1c80 	mov.w	ip, #1048576	@ 0x100000
 8000340:	ea4c 3111 	orr.w	r1, ip, r1, lsr #12
 8000344:	d002      	beq.n	800034c <__adddf3+0x70>
 8000346:	4240      	negs	r0, r0
 8000348:	eb61 0141 	sbc.w	r1, r1, r1, lsl #1
 800034c:	f013 4f00 	tst.w	r3, #2147483648	@ 0x80000000
 8000350:	ea4f 3303 	mov.w	r3, r3, lsl #12
 8000354:	ea4c 3313 	orr.w	r3, ip, r3, lsr #12
 8000358:	d002      	beq.n	8000360 <__adddf3+0x84>
 800035a:	4252      	negs	r2, r2
 800035c:	eb63 0343 	sbc.w	r3, r3, r3, lsl #1
 8000360:	ea94 0f05 	teq	r4, r5
 8000364:	f000 80a7 	beq.w	80004b6 <__adddf3+0x1da>
 8000368:	f1a4 0401 	sub.w	r4, r4, #1
 800036c:	f1d5 0e20 	rsbs	lr, r5, #32
 8000370:	db0d      	blt.n	800038e <__adddf3+0xb2>
 8000372:	fa02 fc0e 	lsl.w	ip, r2, lr
 8000376:	fa22 f205 	lsr.w	r2, r2, r5
 800037a:	1880      	adds	r0, r0, r2
 800037c:	f141 0100 	adc.w	r1, r1, #0
 8000380:	fa03 f20e 	lsl.w	r2, r3, lr
 8000384:	1880      	adds	r0, r0, r2
 8000386:	fa43 f305 	asr.w	r3, r3, r5
 800038a:	4159      	adcs	r1, r3
 800038c:	e00e      	b.n	80003ac <__adddf3+0xd0>
 800038e:	f1a5 0520 	sub.w	r5, r5, #32
 8000392:	f10e 0e20 	add.w	lr, lr, #32
 8000396:	2a01      	cmp	r2, #1
 8000398:	fa03 fc0e 	lsl.w	ip, r3, lr
 800039c:	bf28      	it	cs
 800039e:	f04c 0c02 	orrcs.w	ip, ip, #2
 80003a2:	fa43 f305 	asr.w	r3, r3, r5
 80003a6:	18c0      	adds	r0, r0, r3
 80003a8:	eb51 71e3 	adcs.w	r1, r1, r3, asr #31
 80003ac:	f001 4500 	and.w	r5, r1, #2147483648	@ 0x80000000
 80003b0:	d507      	bpl.n	80003c2 <__adddf3+0xe6>
 80003b2:	f04f 0e00 	mov.w	lr, #0
 80003b6:	f1dc 0c00 	rsbs	ip, ip, #0
 80003ba:	eb7e 0000 	sbcs.w	r0, lr, r0
 80003be:	eb6e 0101 	sbc.w	r1, lr, r1
 80003c2:	f5b1 1f80 	cmp.w	r1, #1048576	@ 0x100000
 80003c6:	d31b      	bcc.n	8000400 <__adddf3+0x124>
 80003c8:	f5b1 1f00 	cmp.w	r1, #2097152	@ 0x200000
 80003cc:	d30c      	bcc.n	80003e8 <__adddf3+0x10c>
 80003ce:	0849      	lsrs	r1, r1, #1
 80003d0:	ea5f 0030 	movs.w	r0, r0, rrx
 80003d4:	ea4f 0c3c 	mov.w	ip, ip, rrx
 80003d8:	f104 0401 	add.w	r4, r4, #1
 80003dc:	ea4f 5244 	mov.w	r2, r4, lsl #21
 80003e0:	f512 0f80 	cmn.w	r2, #4194304	@ 0x400000
 80003e4:	f080 809a 	bcs.w	800051c <__adddf3+0x240>
 80003e8:	f1bc 4f00 	cmp.w	ip, #2147483648	@ 0x80000000
 80003ec:	bf08      	it	eq
 80003ee:	ea5f 0c50 	movseq.w	ip, r0, lsr #1
 80003f2:	f150 0000 	adcs.w	r0, r0, #0
 80003f6:	eb41 5104 	adc.w	r1, r1, r4, lsl #20
 80003fa:	ea41 0105 	orr.w	r1, r1, r5
 80003fe:	bd30      	pop	{r4, r5, pc}
 8000400:	ea5f 0c4c 	movs.w	ip, ip, lsl #1
 8000404:	4140      	adcs	r0, r0
 8000406:	eb41 0101 	adc.w	r1, r1, r1
 800040a:	3c01      	subs	r4, #1
 800040c:	bf28      	it	cs
 800040e:	f5b1 1f80 	cmpcs.w	r1, #1048576	@ 0x100000
 8000412:	d2e9      	bcs.n	80003e8 <__adddf3+0x10c>
 8000414:	f091 0f00 	teq	r1, #0
 8000418:	bf04      	itt	eq
 800041a:	4601      	moveq	r1, r0
 800041c:	2000      	moveq	r0, #0
 800041e:	fab1 f381 	clz	r3, r1
 8000422:	bf08      	it	eq
 8000424:	3320      	addeq	r3, #32
 8000426:	f1a3 030b 	sub.w	r3, r3, #11
 800042a:	f1b3 0220 	subs.w	r2, r3, #32
 800042e:	da0c      	bge.n	800044a <__adddf3+0x16e>
 8000430:	320c      	adds	r2, #12
 8000432:	dd08      	ble.n	8000446 <__adddf3+0x16a>
 8000434:	f102 0c14 	add.w	ip, r2, #20
 8000438:	f1c2 020c 	rsb	r2, r2, #12
 800043c:	fa01 f00c 	lsl.w	r0, r1, ip
 8000440:	fa21 f102 	lsr.w	r1, r1, r2
 8000444:	e00c      	b.n	8000460 <__adddf3+0x184>
 8000446:	f102 0214 	add.w	r2, r2, #20
 800044a:	bfd8      	it	le
 800044c:	f1c2 0c20 	rsble	ip, r2, #32
 8000450:	fa01 f102 	lsl.w	r1, r1, r2
 8000454:	fa20 fc0c 	lsr.w	ip, r0, ip
 8000458:	bfdc      	itt	le
 800045a:	ea41 010c 	orrle.w	r1, r1, ip
 800045e:	4090      	lslle	r0, r2
 8000460:	1ae4      	subs	r4, r4, r3
 8000462:	bfa2      	ittt	ge
 8000464:	eb01 5104 	addge.w	r1, r1, r4, lsl #20
 8000468:	4329      	orrge	r1, r5
 800046a:	bd30      	popge	{r4, r5, pc}
 800046c:	ea6f 0404 	mvn.w	r4, r4
 8000470:	3c1f      	subs	r4, #31
 8000472:	da1c      	bge.n	80004ae <__adddf3+0x1d2>
 8000474:	340c      	adds	r4, #12
 8000476:	dc0e      	bgt.n	8000496 <__adddf3+0x1ba>
 8000478:	f104 0414 	add.w	r4, r4, #20
 800047c:	f1c4 0220 	rsb	r2, r4, #32
 8000480:	fa20 f004 	lsr.w	r0, r0, r4
 8000484:	fa01 f302 	lsl.w	r3, r1, r2
 8000488:	ea40 0003 	orr.w	r0, r0, r3
 800048c:	fa21 f304 	lsr.w	r3, r1, r4
 8000490:	ea45 0103 	orr.w	r1, r5, r3
 8000494:	bd30      	pop	{r4, r5, pc}
 8000496:	f1c4 040c 	rsb	r4, r4, #12
 800049a:	f1c4 0220 	rsb	r2, r4, #32
 800049e:	fa20 f002 	lsr.w	r0, r0, r2
 80004a2:	fa01 f304 	lsl.w	r3, r1, r4
 80004a6:	ea40 0003 	orr.w	r0, r0, r3
 80004aa:	4629      	mov	r1, r5
 80004ac:	bd30      	pop	{r4, r5, pc}
 80004ae:	fa21 f004 	lsr.w	r0, r1, r4
 80004b2:	4629      	mov	r1, r5
 80004b4:	bd30      	pop	{r4, r5, pc}
 80004b6:	f094 0f00 	teq	r4, #0
 80004ba:	f483 1380 	eor.w	r3, r3, #1048576	@ 0x100000
 80004be:	bf06      	itte	eq
 80004c0:	f481 1180 	eoreq.w	r1, r1, #1048576	@ 0x100000
 80004c4:	3401      	addeq	r4, #1
 80004c6:	3d01      	subne	r5, #1
 80004c8:	e74e      	b.n	8000368 <__adddf3+0x8c>
 80004ca:	ea7f 5c64 	mvns.w	ip, r4, asr #21
 80004ce:	bf18      	it	ne
 80004d0:	ea7f 5c65 	mvnsne.w	ip, r5, asr #21
 80004d4:	d029      	beq.n	800052a <__adddf3+0x24e>
 80004d6:	ea94 0f05 	teq	r4, r5
 80004da:	bf08      	it	eq
 80004dc:	ea90 0f02 	teqeq	r0, r2
 80004e0:	d005      	beq.n	80004ee <__adddf3+0x212>
 80004e2:	ea54 0c00 	orrs.w	ip, r4, r0
 80004e6:	bf04      	itt	eq
 80004e8:	4619      	moveq	r1, r3
 80004ea:	4610      	moveq	r0, r2
 80004ec:	bd30      	pop	{r4, r5, pc}
 80004ee:	ea91 0f03 	teq	r1, r3
 80004f2:	bf1e      	ittt	ne
 80004f4:	2100      	movne	r1, #0
 80004f6:	2000      	movne	r0, #0
 80004f8:	bd30      	popne	{r4, r5, pc}
 80004fa:	ea5f 5c54 	movs.w	ip, r4, lsr #21
 80004fe:	d105      	bne.n	800050c <__adddf3+0x230>
 8000500:	0040      	lsls	r0, r0, #1
 8000502:	4149      	adcs	r1, r1
 8000504:	bf28      	it	cs
 8000506:	f041 4100 	orrcs.w	r1, r1, #2147483648	@ 0x80000000
 800050a:	bd30      	pop	{r4, r5, pc}
 800050c:	f514 0480 	adds.w	r4, r4, #4194304	@ 0x400000
 8000510:	bf3c      	itt	cc
 8000512:	f501 1180 	addcc.w	r1, r1, #1048576	@ 0x100000
 8000516:	bd30      	popcc	{r4, r5, pc}
 8000518:	f001 4500 	and.w	r5, r1, #2147483648	@ 0x80000000
 800051c:	f045 41fe 	orr.w	r1, r5, #2130706432	@ 0x7f000000
 8000520:	f441 0170 	orr.w	r1, r1, #15728640	@ 0xf00000
 8000524:	f04f 0000 	mov.w	r0, #0
 8000528:	bd30      	pop	{r4, r5, pc}
 800052a:	ea7f 5c64 	mvns.w	ip, r4, asr #21
 800052e:	bf1a      	itte	ne
 8000530:	4619      	movne	r1, r3
 8000532:	4610      	movne	r0, r2
 8000534:	ea7f 5c65 	mvnseq.w	ip, r5, asr #21
 8000538:	bf1c      	itt	ne
 800053a:	460b      	movne	r3, r1
 800053c:	4602      	movne	r2, r0
 800053e:	ea50 3401 	orrs.w	r4, r0, r1, lsl #12
 8000542:	bf06      	itte	eq
 8000544:	ea52 3503 	orrseq.w	r5, r2, r3, lsl #12
 8000548:	ea91 0f03 	teqeq	r1, r3
 800054c:	f441 2100 	orrne.w	r1, r1, #524288	@ 0x80000
 8000550:	bd30      	pop	{r4, r5, pc}
 8000552:	bf00      	nop

08000554 <__aeabi_ui2d>:
 8000554:	f090 0f00 	teq	r0, #0
 8000558:	bf04      	itt	eq
 800055a:	2100      	moveq	r1, #0
 800055c:	4770      	bxeq	lr
 800055e:	b530      	push	{r4, r5, lr}
 8000560:	f44f 6480 	mov.w	r4, #1024	@ 0x400
 8000564:	f104 0432 	add.w	r4, r4, #50	@ 0x32
 8000568:	f04f 0500 	mov.w	r5, #0
 800056c:	f04f 0100 	mov.w	r1, #0
 8000570:	e750      	b.n	8000414 <__adddf3+0x138>
 8000572:	bf00      	nop

08000574 <__aeabi_i2d>:
 8000574:	f090 0f00 	teq	r0, #0
 8000578:	bf04      	itt	eq
 800057a:	2100      	moveq	r1, #0
 800057c:	4770      	bxeq	lr
 800057e:	b530      	push	{r4, r5, lr}
 8000580:	f44f 6480 	mov.w	r4, #1024	@ 0x400
 8000584:	f104 0432 	add.w	r4, r4, #50	@ 0x32
 8000588:	f010 4500 	ands.w	r5, r0, #2147483648	@ 0x80000000
 800058c:	bf48      	it	mi
 800058e:	4240      	negmi	r0, r0
 8000590:	f04f 0100 	mov.w	r1, #0
 8000594:	e73e      	b.n	8000414 <__adddf3+0x138>
 8000596:	bf00      	nop

08000598 <__aeabi_f2d>:
 8000598:	0042      	lsls	r2, r0, #1
 800059a:	ea4f 01e2 	mov.w	r1, r2, asr #3
 800059e:	ea4f 0131 	mov.w	r1, r1, rrx
 80005a2:	ea4f 7002 	mov.w	r0, r2, lsl #28
 80005a6:	bf1f      	itttt	ne
 80005a8:	f012 437f 	andsne.w	r3, r2, #4278190080	@ 0xff000000
 80005ac:	f093 4f7f 	teqne	r3, #4278190080	@ 0xff000000
 80005b0:	f081 5160 	eorne.w	r1, r1, #939524096	@ 0x38000000
 80005b4:	4770      	bxne	lr
 80005b6:	f032 427f 	bics.w	r2, r2, #4278190080	@ 0xff000000
 80005ba:	bf08      	it	eq
 80005bc:	4770      	bxeq	lr
 80005be:	f093 4f7f 	teq	r3, #4278190080	@ 0xff000000
 80005c2:	bf04      	itt	eq
 80005c4:	f441 2100 	orreq.w	r1, r1, #524288	@ 0x80000
 80005c8:	4770      	bxeq	lr
 80005ca:	b530      	push	{r4, r5, lr}
 80005cc:	f44f 7460 	mov.w	r4, #896	@ 0x380
 80005d0:	f001 4500 	and.w	r5, r1, #2147483648	@ 0x80000000
 80005d4:	f021 4100 	bic.w	r1, r1, #2147483648	@ 0x80000000
 80005d8:	e71c      	b.n	8000414 <__adddf3+0x138>
 80005da:	bf00      	nop

080005dc <__aeabi_ul2d>:
 80005dc:	ea50 0201 	orrs.w	r2, r0, r1
 80005e0:	bf08      	it	eq
 80005e2:	4770      	bxeq	lr
 80005e4:	b530      	push	{r4, r5, lr}
 80005e6:	f04f 0500 	mov.w	r5, #0
 80005ea:	e00a      	b.n	8000602 <__aeabi_l2d+0x16>

080005ec <__aeabi_l2d>:
 80005ec:	ea50 0201 	orrs.w	r2, r0, r1
 80005f0:	bf08      	it	eq
 80005f2:	4770      	bxeq	lr
 80005f4:	b530      	push	{r4, r5, lr}
 80005f6:	f011 4500 	ands.w	r5, r1, #2147483648	@ 0x80000000
 80005fa:	d502      	bpl.n	8000602 <__aeabi_l2d+0x16>
 80005fc:	4240      	negs	r0, r0
 80005fe:	eb61 0141 	sbc.w	r1, r1, r1, lsl #1
 8000602:	f44f 6480 	mov.w	r4, #1024	@ 0x400
 8000606:	f104 0432 	add.w	r4, r4, #50	@ 0x32
 800060a:	ea5f 5c91 	movs.w	ip, r1, lsr #22
 800060e:	f43f aed8 	beq.w	80003c2 <__adddf3+0xe6>
 8000612:	f04f 0203 	mov.w	r2, #3
 8000616:	ea5f 0cdc 	movs.w	ip, ip, lsr #3
 800061a:	bf18      	it	ne
 800061c:	3203      	addne	r2, #3
 800061e:	ea5f 0cdc 	movs.w	ip, ip, lsr #3
 8000622:	bf18      	it	ne
 8000624:	3203      	addne	r2, #3
 8000626:	eb02 02dc 	add.w	r2, r2, ip, lsr #3
 800062a:	f1c2 0320 	rsb	r3, r2, #32
 800062e:	fa00 fc03 	lsl.w	ip, r0, r3
 8000632:	fa20 f002 	lsr.w	r0, r0, r2
 8000636:	fa01 fe03 	lsl.w	lr, r1, r3
 800063a:	ea40 000e 	orr.w	r0, r0, lr
 800063e:	fa21 f102 	lsr.w	r1, r1, r2
 8000642:	4414      	add	r4, r2
 8000644:	e6bd      	b.n	80003c2 <__adddf3+0xe6>
 8000646:	bf00      	nop

08000648 <__aeabi_dmul>:
 8000648:	b570      	push	{r4, r5, r6, lr}
 800064a:	f04f 0cff 	mov.w	ip, #255	@ 0xff
 800064e:	f44c 6ce0 	orr.w	ip, ip, #1792	@ 0x700
 8000652:	ea1c 5411 	ands.w	r4, ip, r1, lsr #20
 8000656:	bf1d      	ittte	ne
 8000658:	ea1c 5513 	andsne.w	r5, ip, r3, lsr #20
 800065c:	ea94 0f0c 	teqne	r4, ip
 8000660:	ea95 0f0c 	teqne	r5, ip
 8000664:	f000 f8de 	bleq	8000824 <__aeabi_dmul+0x1dc>
 8000668:	442c      	add	r4, r5
 800066a:	ea81 0603 	eor.w	r6, r1, r3
 800066e:	ea21 514c 	bic.w	r1, r1, ip, lsl #21
 8000672:	ea23 534c 	bic.w	r3, r3, ip, lsl #21
 8000676:	ea50 3501 	orrs.w	r5, r0, r1, lsl #12
 800067a:	bf18      	it	ne
 800067c:	ea52 3503 	orrsne.w	r5, r2, r3, lsl #12
 8000680:	f441 1180 	orr.w	r1, r1, #1048576	@ 0x100000
 8000684:	f443 1380 	orr.w	r3, r3, #1048576	@ 0x100000
 8000688:	d038      	beq.n	80006fc <__aeabi_dmul+0xb4>
 800068a:	fba0 ce02 	umull	ip, lr, r0, r2
 800068e:	f04f 0500 	mov.w	r5, #0
 8000692:	fbe1 e502 	umlal	lr, r5, r1, r2
 8000696:	f006 4200 	and.w	r2, r6, #2147483648	@ 0x80000000
 800069a:	fbe0 e503 	umlal	lr, r5, r0, r3
 800069e:	f04f 0600 	mov.w	r6, #0
 80006a2:	fbe1 5603 	umlal	r5, r6, r1, r3
 80006a6:	f09c 0f00 	teq	ip, #0
 80006aa:	bf18      	it	ne
 80006ac:	f04e 0e01 	orrne.w	lr, lr, #1
 80006b0:	f1a4 04ff 	sub.w	r4, r4, #255	@ 0xff
 80006b4:	f5b6 7f00 	cmp.w	r6, #512	@ 0x200
 80006b8:	f564 7440 	sbc.w	r4, r4, #768	@ 0x300
 80006bc:	d204      	bcs.n	80006c8 <__aeabi_dmul+0x80>
 80006be:	ea5f 0e4e 	movs.w	lr, lr, lsl #1
 80006c2:	416d      	adcs	r5, r5
 80006c4:	eb46 0606 	adc.w	r6, r6, r6
 80006c8:	ea42 21c6 	orr.w	r1, r2, r6, lsl #11
 80006cc:	ea41 5155 	orr.w	r1, r1, r5, lsr #21
 80006d0:	ea4f 20c5 	mov.w	r0, r5, lsl #11
 80006d4:	ea40 505e 	orr.w	r0, r0, lr, lsr #21
 80006d8:	ea4f 2ece 	mov.w	lr, lr, lsl #11
 80006dc:	f1b4 0cfd 	subs.w	ip, r4, #253	@ 0xfd
 80006e0:	bf88      	it	hi
 80006e2:	f5bc 6fe0 	cmphi.w	ip, #1792	@ 0x700
 80006e6:	d81e      	bhi.n	8000726 <__aeabi_dmul+0xde>
 80006e8:	f1be 4f00 	cmp.w	lr, #2147483648	@ 0x80000000
 80006ec:	bf08      	it	eq
 80006ee:	ea5f 0e50 	movseq.w	lr, r0, lsr #1
 80006f2:	f150 0000 	adcs.w	r0, r0, #0
 80006f6:	eb41 5104 	adc.w	r1, r1, r4, lsl #20
 80006fa:	bd70      	pop	{r4, r5, r6, pc}
 80006fc:	f006 4600 	and.w	r6, r6, #2147483648	@ 0x80000000
 8000700:	ea46 0101 	orr.w	r1, r6, r1
 8000704:	ea40 0002 	orr.w	r0, r0, r2
 8000708:	ea81 0103 	eor.w	r1, r1, r3
 800070c:	ebb4 045c 	subs.w	r4, r4, ip, lsr #1
 8000710:	bfc2      	ittt	gt
 8000712:	ebd4 050c 	rsbsgt	r5, r4, ip
 8000716:	ea41 5104 	orrgt.w	r1, r1, r4, lsl #20
 800071a:	bd70      	popgt	{r4, r5, r6, pc}
 800071c:	f441 1180 	orr.w	r1, r1, #1048576	@ 0x100000
 8000720:	f04f 0e00 	mov.w	lr, #0
 8000724:	3c01      	subs	r4, #1
 8000726:	f300 80ab 	bgt.w	8000880 <__aeabi_dmul+0x238>
 800072a:	f114 0f36 	cmn.w	r4, #54	@ 0x36
 800072e:	bfde      	ittt	le
 8000730:	2000      	movle	r0, #0
 8000732:	f001 4100 	andle.w	r1, r1, #2147483648	@ 0x80000000
 8000736:	bd70      	pople	{r4, r5, r6, pc}
 8000738:	f1c4 0400 	rsb	r4, r4, #0
 800073c:	3c20      	subs	r4, #32
 800073e:	da35      	bge.n	80007ac <__aeabi_dmul+0x164>
 8000740:	340c      	adds	r4, #12
 8000742:	dc1b      	bgt.n	800077c <__aeabi_dmul+0x134>
 8000744:	f104 0414 	add.w	r4, r4, #20
 8000748:	f1c4 0520 	rsb	r5, r4, #32
 800074c:	fa00 f305 	lsl.w	r3, r0, r5
 8000750:	fa20 f004 	lsr.w	r0, r0, r4
 8000754:	fa01 f205 	lsl.w	r2, r1, r5
 8000758:	ea40 0002 	orr.w	r0, r0, r2
 800075c:	f001 4200 	and.w	r2, r1, #2147483648	@ 0x80000000
 8000760:	f021 4100 	bic.w	r1, r1, #2147483648	@ 0x80000000
 8000764:	eb10 70d3 	adds.w	r0, r0, r3, lsr #31
 8000768:	fa21 f604 	lsr.w	r6, r1, r4
 800076c:	eb42 0106 	adc.w	r1, r2, r6
 8000770:	ea5e 0e43 	orrs.w	lr, lr, r3, lsl #1
 8000774:	bf08      	it	eq
 8000776:	ea20 70d3 	biceq.w	r0, r0, r3, lsr #31
 800077a:	bd70      	pop	{r4, r5, r6, pc}
 800077c:	f1c4 040c 	rsb	r4, r4, #12
 8000780:	f1c4 0520 	rsb	r5, r4, #32
 8000784:	fa00 f304 	lsl.w	r3, r0, r4
 8000788:	fa20 f005 	lsr.w	r0, r0, r5
 800078c:	fa01 f204 	lsl.w	r2, r1, r4
 8000790:	ea40 0002 	orr.w	r0, r0, r2
 8000794:	f001 4100 	and.w	r1, r1, #2147483648	@ 0x80000000
 8000798:	eb10 70d3 	adds.w	r0, r0, r3, lsr #31
 800079c:	f141 0100 	adc.w	r1, r1, #0
 80007a0:	ea5e 0e43 	orrs.w	lr, lr, r3, lsl #1
 80007a4:	bf08      	it	eq
 80007a6:	ea20 70d3 	biceq.w	r0, r0, r3, lsr #31
 80007aa:	bd70      	pop	{r4, r5, r6, pc}
 80007ac:	f1c4 0520 	rsb	r5, r4, #32
 80007b0:	fa00 f205 	lsl.w	r2, r0, r5
 80007b4:	ea4e 0e02 	orr.w	lr, lr, r2
 80007b8:	fa20 f304 	lsr.w	r3, r0, r4
 80007bc:	fa01 f205 	lsl.w	r2, r1, r5
 80007c0:	ea43 0302 	orr.w	r3, r3, r2
 80007c4:	fa21 f004 	lsr.w	r0, r1, r4
 80007c8:	f001 4100 	and.w	r1, r1, #2147483648	@ 0x80000000
 80007cc:	fa21 f204 	lsr.w	r2, r1, r4
 80007d0:	ea20 0002 	bic.w	r0, r0, r2
 80007d4:	eb00 70d3 	add.w	r0, r0, r3, lsr #31
 80007d8:	ea5e 0e43 	orrs.w	lr, lr, r3, lsl #1
 80007dc:	bf08      	it	eq
 80007de:	ea20 70d3 	biceq.w	r0, r0, r3, lsr #31
 80007e2:	bd70      	pop	{r4, r5, r6, pc}
 80007e4:	f094 0f00 	teq	r4, #0
 80007e8:	d10f      	bne.n	800080a <__aeabi_dmul+0x1c2>
 80007ea:	f001 4600 	and.w	r6, r1, #2147483648	@ 0x80000000
 80007ee:	0040      	lsls	r0, r0, #1
 80007f0:	eb41 0101 	adc.w	r1, r1, r1
 80007f4:	f411 1f80 	tst.w	r1, #1048576	@ 0x100000
 80007f8:	bf08      	it	eq
 80007fa:	3c01      	subeq	r4, #1
 80007fc:	d0f7      	beq.n	80007ee <__aeabi_dmul+0x1a6>
 80007fe:	ea41 0106 	orr.w	r1, r1, r6
 8000802:	f095 0f00 	teq	r5, #0
 8000806:	bf18      	it	ne
 8000808:	4770      	bxne	lr
 800080a:	f003 4600 	and.w	r6, r3, #2147483648	@ 0x80000000
 800080e:	0052      	lsls	r2, r2, #1
 8000810:	eb43 0303 	adc.w	r3, r3, r3
 8000814:	f413 1f80 	tst.w	r3, #1048576	@ 0x100000
 8000818:	bf08      	it	eq
 800081a:	3d01      	subeq	r5, #1
 800081c:	d0f7      	beq.n	800080e <__aeabi_dmul+0x1c6>
 800081e:	ea43 0306 	orr.w	r3, r3, r6
 8000822:	4770      	bx	lr
 8000824:	ea94 0f0c 	teq	r4, ip
 8000828:	ea0c 5513 	and.w	r5, ip, r3, lsr #20
 800082c:	bf18      	it	ne
 800082e:	ea95 0f0c 	teqne	r5, ip
 8000832:	d00c      	beq.n	800084e <__aeabi_dmul+0x206>
 8000834:	ea50 0641 	orrs.w	r6, r0, r1, lsl #1
 8000838:	bf18      	it	ne
 800083a:	ea52 0643 	orrsne.w	r6, r2, r3, lsl #1
 800083e:	d1d1      	bne.n	80007e4 <__aeabi_dmul+0x19c>
 8000840:	ea81 0103 	eor.w	r1, r1, r3
 8000844:	f001 4100 	and.w	r1, r1, #2147483648	@ 0x80000000
 8000848:	f04f 0000 	mov.w	r0, #0
 800084c:	bd70      	pop	{r4, r5, r6, pc}
 800084e:	ea50 0641 	orrs.w	r6, r0, r1, lsl #1
 8000852:	bf06      	itte	eq
 8000854:	4610      	moveq	r0, r2
 8000856:	4619      	moveq	r1, r3
 8000858:	ea52 0643 	orrsne.w	r6, r2, r3, lsl #1
 800085c:	d019      	beq.n	8000892 <__aeabi_dmul+0x24a>
 800085e:	ea94 0f0c 	teq	r4, ip
 8000862:	d102      	bne.n	800086a <__aeabi_dmul+0x222>
 8000864:	ea50 3601 	orrs.w	r6, r0, r1, lsl #12
 8000868:	d113      	bne.n	8000892 <__aeabi_dmul+0x24a>
 800086a:	ea95 0f0c 	teq	r5, ip
 800086e:	d105      	bne.n	800087c <__aeabi_dmul+0x234>
 8000870:	ea52 3603 	orrs.w	r6, r2, r3, lsl #12
 8000874:	bf1c      	itt	ne
 8000876:	4610      	movne	r0, r2
 8000878:	4619      	movne	r1, r3
 800087a:	d10a      	bne.n	8000892 <__aeabi_dmul+0x24a>
 800087c:	ea81 0103 	eor.w	r1, r1, r3
 8000880:	f001 4100 	and.w	r1, r1, #2147483648	@ 0x80000000
 8000884:	f041 41fe 	orr.w	r1, r1, #2130706432	@ 0x7f000000
 8000888:	f441 0170 	orr.w	r1, r1, #15728640	@ 0xf00000
 800088c:	f04f 0000 	mov.w	r0, #0
 8000890:	bd70      	pop	{r4, r5, r6, pc}
 8000892:	f041 41fe 	orr.w	r1, r1, #2130706432	@ 0x7f000000
 8000896:	f441 0178 	orr.w	r1, r1, #16252928	@ 0xf80000
 800089a:	bd70      	pop	{r4, r5, r6, pc}

0800089c <__aeabi_ddiv>:
 800089c:	b570      	push	{r4, r5, r6, lr}
 800089e:	f04f 0cff 	mov.w	ip, #255	@ 0xff
 80008a2:	f44c 6ce0 	orr.w	ip, ip, #1792	@ 0x700
 80008a6:	ea1c 5411 	ands.w	r4, ip, r1, lsr #20
 80008aa:	bf1d      	ittte	ne
 80008ac:	ea1c 5513 	andsne.w	r5, ip, r3, lsr #20
 80008b0:	ea94 0f0c 	teqne	r4, ip
 80008b4:	ea95 0f0c 	teqne	r5, ip
 80008b8:	f000 f8a7 	bleq	8000a0a <__aeabi_ddiv+0x16e>
 80008bc:	eba4 0405 	sub.w	r4, r4, r5
 80008c0:	ea81 0e03 	eor.w	lr, r1, r3
 80008c4:	ea52 3503 	orrs.w	r5, r2, r3, lsl #12
 80008c8:	ea4f 3101 	mov.w	r1, r1, lsl #12
 80008cc:	f000 8088 	beq.w	80009e0 <__aeabi_ddiv+0x144>
 80008d0:	ea4f 3303 	mov.w	r3, r3, lsl #12
 80008d4:	f04f 5580 	mov.w	r5, #268435456	@ 0x10000000
 80008d8:	ea45 1313 	orr.w	r3, r5, r3, lsr #4
 80008dc:	ea43 6312 	orr.w	r3, r3, r2, lsr #24
 80008e0:	ea4f 2202 	mov.w	r2, r2, lsl #8
 80008e4:	ea45 1511 	orr.w	r5, r5, r1, lsr #4
 80008e8:	ea45 6510 	orr.w	r5, r5, r0, lsr #24
 80008ec:	ea4f 2600 	mov.w	r6, r0, lsl #8
 80008f0:	f00e 4100 	and.w	r1, lr, #2147483648	@ 0x80000000
 80008f4:	429d      	cmp	r5, r3
 80008f6:	bf08      	it	eq
 80008f8:	4296      	cmpeq	r6, r2
 80008fa:	f144 04fd 	adc.w	r4, r4, #253	@ 0xfd
 80008fe:	f504 7440 	add.w	r4, r4, #768	@ 0x300
 8000902:	d202      	bcs.n	800090a <__aeabi_ddiv+0x6e>
 8000904:	085b      	lsrs	r3, r3, #1
 8000906:	ea4f 0232 	mov.w	r2, r2, rrx
 800090a:	1ab6      	subs	r6, r6, r2
 800090c:	eb65 0503 	sbc.w	r5, r5, r3
 8000910:	085b      	lsrs	r3, r3, #1
 8000912:	ea4f 0232 	mov.w	r2, r2, rrx
 8000916:	f44f 1080 	mov.w	r0, #1048576	@ 0x100000
 800091a:	f44f 2c00 	mov.w	ip, #524288	@ 0x80000
 800091e:	ebb6 0e02 	subs.w	lr, r6, r2
 8000922:	eb75 0e03 	sbcs.w	lr, r5, r3
 8000926:	bf22      	ittt	cs
 8000928:	1ab6      	subcs	r6, r6, r2
 800092a:	4675      	movcs	r5, lr
 800092c:	ea40 000c 	orrcs.w	r0, r0, ip
 8000930:	085b      	lsrs	r3, r3, #1
 8000932:	ea4f 0232 	mov.w	r2, r2, rrx
 8000936:	ebb6 0e02 	subs.w	lr, r6, r2
 800093a:	eb75 0e03 	sbcs.w	lr, r5, r3
 800093e:	bf22      	ittt	cs
 8000940:	1ab6      	subcs	r6, r6, r2
 8000942:	4675      	movcs	r5, lr
 8000944:	ea40 005c 	orrcs.w	r0, r0, ip, lsr #1
 8000948:	085b      	lsrs	r3, r3, #1
 800094a:	ea4f 0232 	mov.w	r2, r2, rrx
 800094e:	ebb6 0e02 	subs.w	lr, r6, r2
 8000952:	eb75 0e03 	sbcs.w	lr, r5, r3
 8000956:	bf22      	ittt	cs
 8000958:	1ab6      	subcs	r6, r6, r2
 800095a:	4675      	movcs	r5, lr
 800095c:	ea40 009c 	orrcs.w	r0, r0, ip, lsr #2
 8000960:	085b      	lsrs	r3, r3, #1
 8000962:	ea4f 0232 	mov.w	r2, r2, rrx
 8000966:	ebb6 0e02 	subs.w	lr, r6, r2
 800096a:	eb75 0e03 	sbcs.w	lr, r5, r3
 800096e:	bf22      	ittt	cs
 8000970:	1ab6      	subcs	r6, r6, r2
 8000972:	4675      	movcs	r5, lr
 8000974:	ea40 00dc 	orrcs.w	r0, r0, ip, lsr #3
 8000978:	ea55 0e06 	orrs.w	lr, r5, r6
 800097c:	d018      	beq.n	80009b0 <__aeabi_ddiv+0x114>
 800097e:	ea4f 1505 	mov.w	r5, r5, lsl #4
 8000982:	ea45 7516 	orr.w	r5, r5, r6, lsr #28
 8000986:	ea4f 1606 	mov.w	r6, r6, lsl #4
 800098a:	ea4f 03c3 	mov.w	r3, r3, lsl #3
 800098e:	ea43 7352 	orr.w	r3, r3, r2, lsr #29
 8000992:	ea4f 02c2 	mov.w	r2, r2, lsl #3
 8000996:	ea5f 1c1c 	movs.w	ip, ip, lsr #4
 800099a:	d1c0      	bne.n	800091e <__aeabi_ddiv+0x82>
 800099c:	f411 1f80 	tst.w	r1, #1048576	@ 0x100000
 80009a0:	d10b      	bne.n	80009ba <__aeabi_ddiv+0x11e>
 80009a2:	ea41 0100 	orr.w	r1, r1, r0
 80009a6:	f04f 0000 	mov.w	r0, #0
 80009aa:	f04f 4c00 	mov.w	ip, #2147483648	@ 0x80000000
 80009ae:	e7b6      	b.n	800091e <__aeabi_ddiv+0x82>
 80009b0:	f411 1f80 	tst.w	r1, #1048576	@ 0x100000
 80009b4:	bf04      	itt	eq
 80009b6:	4301      	orreq	r1, r0
 80009b8:	2000      	moveq	r0, #0
 80009ba:	f1b4 0cfd 	subs.w	ip, r4, #253	@ 0xfd
 80009be:	bf88      	it	hi
 80009c0:	f5bc 6fe0 	cmphi.w	ip, #1792	@ 0x700
 80009c4:	f63f aeaf 	bhi.w	8000726 <__aeabi_dmul+0xde>
 80009c8:	ebb5 0c03 	subs.w	ip, r5, r3
 80009cc:	bf04      	itt	eq
 80009ce:	ebb6 0c02 	subseq.w	ip, r6, r2
 80009d2:	ea5f 0c50 	movseq.w	ip, r0, lsr #1
 80009d6:	f150 0000 	adcs.w	r0, r0, #0
 80009da:	eb41 5104 	adc.w	r1, r1, r4, lsl #20
 80009de:	bd70      	pop	{r4, r5, r6, pc}
 80009e0:	f00e 4e00 	and.w	lr, lr, #2147483648	@ 0x80000000
 80009e4:	ea4e 3111 	orr.w	r1, lr, r1, lsr #12
 80009e8:	eb14 045c 	adds.w	r4, r4, ip, lsr #1
 80009ec:	bfc2      	ittt	gt
 80009ee:	ebd4 050c 	rsbsgt	r5, r4, ip
 80009f2:	ea41 5104 	orrgt.w	r1, r1, r4, lsl #20
 80009f6:	bd70      	popgt	{r4, r5, r6, pc}
 80009f8:	f441 1180 	orr.w	r1, r1, #1048576	@ 0x100000
 80009fc:	f04f 0e00 	mov.w	lr, #0
 8000a00:	3c01      	subs	r4, #1
 8000a02:	e690      	b.n	8000726 <__aeabi_dmul+0xde>
 8000a04:	ea45 0e06 	orr.w	lr, r5, r6
 8000a08:	e68d      	b.n	8000726 <__aeabi_dmul+0xde>
 8000a0a:	ea0c 5513 	and.w	r5, ip, r3, lsr #20
 8000a0e:	ea94 0f0c 	teq	r4, ip
 8000a12:	bf08      	it	eq
 8000a14:	ea95 0f0c 	teqeq	r5, ip
 8000a18:	f43f af3b 	beq.w	8000892 <__aeabi_dmul+0x24a>
 8000a1c:	ea94 0f0c 	teq	r4, ip
 8000a20:	d10a      	bne.n	8000a38 <__aeabi_ddiv+0x19c>
 8000a22:	ea50 3401 	orrs.w	r4, r0, r1, lsl #12
 8000a26:	f47f af34 	bne.w	8000892 <__aeabi_dmul+0x24a>
 8000a2a:	ea95 0f0c 	teq	r5, ip
 8000a2e:	f47f af25 	bne.w	800087c <__aeabi_dmul+0x234>
 8000a32:	4610      	mov	r0, r2
 8000a34:	4619      	mov	r1, r3
 8000a36:	e72c      	b.n	8000892 <__aeabi_dmul+0x24a>
 8000a38:	ea95 0f0c 	teq	r5, ip
 8000a3c:	d106      	bne.n	8000a4c <__aeabi_ddiv+0x1b0>
 8000a3e:	ea52 3503 	orrs.w	r5, r2, r3, lsl #12
 8000a42:	f43f aefd 	beq.w	8000840 <__aeabi_dmul+0x1f8>
 8000a46:	4610      	mov	r0, r2
 8000a48:	4619      	mov	r1, r3
 8000a4a:	e722      	b.n	8000892 <__aeabi_dmul+0x24a>
 8000a4c:	ea50 0641 	orrs.w	r6, r0, r1, lsl #1
 8000a50:	bf18      	it	ne
 8000a52:	ea52 0643 	orrsne.w	r6, r2, r3, lsl #1
 8000a56:	f47f aec5 	bne.w	80007e4 <__aeabi_dmul+0x19c>
 8000a5a:	ea50 0441 	orrs.w	r4, r0, r1, lsl #1
 8000a5e:	f47f af0d 	bne.w	800087c <__aeabi_dmul+0x234>
 8000a62:	ea52 0543 	orrs.w	r5, r2, r3, lsl #1
 8000a66:	f47f aeeb 	bne.w	8000840 <__aeabi_dmul+0x1f8>
 8000a6a:	e712      	b.n	8000892 <__aeabi_dmul+0x24a>

08000a6c <__gedf2>:
 8000a6c:	f04f 3cff 	mov.w	ip, #4294967295	@ 0xffffffff
 8000a70:	e006      	b.n	8000a80 <__cmpdf2+0x4>
 8000a72:	bf00      	nop

08000a74 <__ledf2>:
 8000a74:	f04f 0c01 	mov.w	ip, #1
 8000a78:	e002      	b.n	8000a80 <__cmpdf2+0x4>
 8000a7a:	bf00      	nop

08000a7c <__cmpdf2>:
 8000a7c:	f04f 0c01 	mov.w	ip, #1
 8000a80:	f84d cd04 	str.w	ip, [sp, #-4]!
 8000a84:	ea4f 0c41 	mov.w	ip, r1, lsl #1
 8000a88:	ea7f 5c6c 	mvns.w	ip, ip, asr #21
 8000a8c:	ea4f 0c43 	mov.w	ip, r3, lsl #1
 8000a90:	bf18      	it	ne
 8000a92:	ea7f 5c6c 	mvnsne.w	ip, ip, asr #21
 8000a96:	d01b      	beq.n	8000ad0 <__cmpdf2+0x54>
 8000a98:	b001      	add	sp, #4
 8000a9a:	ea50 0c41 	orrs.w	ip, r0, r1, lsl #1
 8000a9e:	bf0c      	ite	eq
 8000aa0:	ea52 0c43 	orrseq.w	ip, r2, r3, lsl #1
 8000aa4:	ea91 0f03 	teqne	r1, r3
 8000aa8:	bf02      	ittt	eq
 8000aaa:	ea90 0f02 	teqeq	r0, r2
 8000aae:	2000      	moveq	r0, #0
 8000ab0:	4770      	bxeq	lr
 8000ab2:	f110 0f00 	cmn.w	r0, #0
 8000ab6:	ea91 0f03 	teq	r1, r3
 8000aba:	bf58      	it	pl
 8000abc:	4299      	cmppl	r1, r3
 8000abe:	bf08      	it	eq
 8000ac0:	4290      	cmpeq	r0, r2
 8000ac2:	bf2c      	ite	cs
 8000ac4:	17d8      	asrcs	r0, r3, #31
 8000ac6:	ea6f 70e3 	mvncc.w	r0, r3, asr #31
 8000aca:	f040 0001 	orr.w	r0, r0, #1
 8000ace:	4770      	bx	lr
 8000ad0:	ea4f 0c41 	mov.w	ip, r1, lsl #1
 8000ad4:	ea7f 5c6c 	mvns.w	ip, ip, asr #21
 8000ad8:	d102      	bne.n	8000ae0 <__cmpdf2+0x64>
 8000ada:	ea50 3c01 	orrs.w	ip, r0, r1, lsl #12
 8000ade:	d107      	bne.n	8000af0 <__cmpdf2+0x74>
 8000ae0:	ea4f 0c43 	mov.w	ip, r3, lsl #1
 8000ae4:	ea7f 5c6c 	mvns.w	ip, ip, asr #21
 8000ae8:	d1d6      	bne.n	8000a98 <__cmpdf2+0x1c>
 8000aea:	ea52 3c03 	orrs.w	ip, r2, r3, lsl #12
 8000aee:	d0d3      	beq.n	8000a98 <__cmpdf2+0x1c>
 8000af0:	f85d 0b04 	ldr.w	r0, [sp], #4
 8000af4:	4770      	bx	lr
 8000af6:	bf00      	nop

08000af8 <__aeabi_cdrcmple>:
 8000af8:	4684      	mov	ip, r0
 8000afa:	4610      	mov	r0, r2
 8000afc:	4662      	mov	r2, ip
 8000afe:	468c      	mov	ip, r1
 8000b00:	4619      	mov	r1, r3
 8000b02:	4663      	mov	r3, ip
 8000b04:	e000      	b.n	8000b08 <__aeabi_cdcmpeq>
 8000b06:	bf00      	nop

08000b08 <__aeabi_cdcmpeq>:
 8000b08:	b501      	push	{r0, lr}
 8000b0a:	f7ff ffb7 	bl	8000a7c <__cmpdf2>
 8000b0e:	2800      	cmp	r0, #0
 8000b10:	bf48      	it	mi
 8000b12:	f110 0f00 	cmnmi.w	r0, #0
 8000b16:	bd01      	pop	{r0, pc}

08000b18 <__aeabi_dcmpeq>:
 8000b18:	f84d ed08 	str.w	lr, [sp, #-8]!
 8000b1c:	f7ff fff4 	bl	8000b08 <__aeabi_cdcmpeq>
 8000b20:	bf0c      	ite	eq
 8000b22:	2001      	moveq	r0, #1
 8000b24:	2000      	movne	r0, #0
 8000b26:	f85d fb08 	ldr.w	pc, [sp], #8
 8000b2a:	bf00      	nop

08000b2c <__aeabi_dcmplt>:
 8000b2c:	f84d ed08 	str.w	lr, [sp, #-8]!
 8000b30:	f7ff ffea 	bl	8000b08 <__aeabi_cdcmpeq>
 8000b34:	bf34      	ite	cc
 8000b36:	2001      	movcc	r0, #1
 8000b38:	2000      	movcs	r0, #0
 8000b3a:	f85d fb08 	ldr.w	pc, [sp], #8
 8000b3e:	bf00      	nop

08000b40 <__aeabi_dcmple>:
 8000b40:	f84d ed08 	str.w	lr, [sp, #-8]!
 8000b44:	f7ff ffe0 	bl	8000b08 <__aeabi_cdcmpeq>
 8000b48:	bf94      	ite	ls
 8000b4a:	2001      	movls	r0, #1
 8000b4c:	2000      	movhi	r0, #0
 8000b4e:	f85d fb08 	ldr.w	pc, [sp], #8
 8000b52:	bf00      	nop

08000b54 <__aeabi_dcmpge>:
 8000b54:	f84d ed08 	str.w	lr, [sp, #-8]!
 8000b58:	f7ff ffce 	bl	8000af8 <__aeabi_cdrcmple>
 8000b5c:	bf94      	ite	ls
 8000b5e:	2001      	movls	r0, #1
 8000b60:	2000      	movhi	r0, #0
 8000b62:	f85d fb08 	ldr.w	pc, [sp], #8
 8000b66:	bf00      	nop

08000b68 <__aeabi_dcmpgt>:
 8000b68:	f84d ed08 	str.w	lr, [sp, #-8]!
 8000b6c:	f7ff ffc4 	bl	8000af8 <__aeabi_cdrcmple>
 8000b70:	bf34      	ite	cc
 8000b72:	2001      	movcc	r0, #1
 8000b74:	2000      	movcs	r0, #0
 8000b76:	f85d fb08 	ldr.w	pc, [sp], #8
 8000b7a:	bf00      	nop

08000b7c <__aeabi_d2iz>:
 8000b7c:	ea4f 0241 	mov.w	r2, r1, lsl #1
 8000b80:	f512 1200 	adds.w	r2, r2, #2097152	@ 0x200000
 8000b84:	d215      	bcs.n	8000bb2 <__aeabi_d2iz+0x36>
 8000b86:	d511      	bpl.n	8000bac <__aeabi_d2iz+0x30>
 8000b88:	f46f 7378 	mvn.w	r3, #992	@ 0x3e0
 8000b8c:	ebb3 5262 	subs.w	r2, r3, r2, asr #21
 8000b90:	d912      	bls.n	8000bb8 <__aeabi_d2iz+0x3c>
 8000b92:	ea4f 23c1 	mov.w	r3, r1, lsl #11
 8000b96:	f043 4300 	orr.w	r3, r3, #2147483648	@ 0x80000000
 8000b9a:	ea43 5350 	orr.w	r3, r3, r0, lsr #21
 8000b9e:	f011 4f00 	tst.w	r1, #2147483648	@ 0x80000000
 8000ba2:	fa23 f002 	lsr.w	r0, r3, r2
 8000ba6:	bf18      	it	ne
 8000ba8:	4240      	negne	r0, r0
 8000baa:	4770      	bx	lr
 8000bac:	f04f 0000 	mov.w	r0, #0
 8000bb0:	4770      	bx	lr
 8000bb2:	ea50 3001 	orrs.w	r0, r0, r1, lsl #12
 8000bb6:	d105      	bne.n	8000bc4 <__aeabi_d2iz+0x48>
 8000bb8:	f011 4000 	ands.w	r0, r1, #2147483648	@ 0x80000000
 8000bbc:	bf08      	it	eq
 8000bbe:	f06f 4000 	mvneq.w	r0, #2147483648	@ 0x80000000
 8000bc2:	4770      	bx	lr
 8000bc4:	f04f 0000 	mov.w	r0, #0
 8000bc8:	4770      	bx	lr
 8000bca:	bf00      	nop

08000bcc <__aeabi_d2uiz>:
 8000bcc:	004a      	lsls	r2, r1, #1
 8000bce:	d211      	bcs.n	8000bf4 <__aeabi_d2uiz+0x28>
 8000bd0:	f512 1200 	adds.w	r2, r2, #2097152	@ 0x200000
 8000bd4:	d211      	bcs.n	8000bfa <__aeabi_d2uiz+0x2e>
 8000bd6:	d50d      	bpl.n	8000bf4 <__aeabi_d2uiz+0x28>
 8000bd8:	f46f 7378 	mvn.w	r3, #992	@ 0x3e0
 8000bdc:	ebb3 5262 	subs.w	r2, r3, r2, asr #21
 8000be0:	d40e      	bmi.n	8000c00 <__aeabi_d2uiz+0x34>
 8000be2:	ea4f 23c1 	mov.w	r3, r1, lsl #11
 8000be6:	f043 4300 	orr.w	r3, r3, #2147483648	@ 0x80000000
 8000bea:	ea43 5350 	orr.w	r3, r3, r0, lsr #21
 8000bee:	fa23 f002 	lsr.w	r0, r3, r2
 8000bf2:	4770      	bx	lr
 8000bf4:	f04f 0000 	mov.w	r0, #0
 8000bf8:	4770      	bx	lr
 8000bfa:	ea50 3001 	orrs.w	r0, r0, r1, lsl #12
 8000bfe:	d102      	bne.n	8000c06 <__aeabi_d2uiz+0x3a>
 8000c00:	f04f 30ff 	mov.w	r0, #4294967295	@ 0xffffffff
 8000c04:	4770      	bx	lr
 8000c06:	f04f 0000 	mov.w	r0, #0
 8000c0a:	4770      	bx	lr

08000c0c <__aeabi_d2f>:
 8000c0c:	ea4f 0241 	mov.w	r2, r1, lsl #1
 8000c10:	f1b2 43e0 	subs.w	r3, r2, #1879048192	@ 0x70000000
 8000c14:	bf24      	itt	cs
 8000c16:	f5b3 1c00 	subscs.w	ip, r3, #2097152	@ 0x200000
 8000c1a:	f1dc 5cfe 	rsbscs	ip, ip, #532676608	@ 0x1fc00000
 8000c1e:	d90d      	bls.n	8000c3c <__aeabi_d2f+0x30>
 8000c20:	f001 4c00 	and.w	ip, r1, #2147483648	@ 0x80000000
 8000c24:	ea4f 02c0 	mov.w	r2, r0, lsl #3
 8000c28:	ea4c 7050 	orr.w	r0, ip, r0, lsr #29
 8000c2c:	f1b2 4f00 	cmp.w	r2, #2147483648	@ 0x80000000
 8000c30:	eb40 0083 	adc.w	r0, r0, r3, lsl #2
 8000c34:	bf08      	it	eq
 8000c36:	f020 0001 	biceq.w	r0, r0, #1
 8000c3a:	4770      	bx	lr
 8000c3c:	f011 4f80 	tst.w	r1, #1073741824	@ 0x40000000
 8000c40:	d121      	bne.n	8000c86 <__aeabi_d2f+0x7a>
 8000c42:	f113 7238 	adds.w	r2, r3, #48234496	@ 0x2e00000
 8000c46:	bfbc      	itt	lt
 8000c48:	f001 4000 	andlt.w	r0, r1, #2147483648	@ 0x80000000
 8000c4c:	4770      	bxlt	lr
 8000c4e:	f441 1180 	orr.w	r1, r1, #1048576	@ 0x100000
 8000c52:	ea4f 5252 	mov.w	r2, r2, lsr #21
 8000c56:	f1c2 0218 	rsb	r2, r2, #24
 8000c5a:	f1c2 0c20 	rsb	ip, r2, #32
 8000c5e:	fa10 f30c 	lsls.w	r3, r0, ip
 8000c62:	fa20 f002 	lsr.w	r0, r0, r2
 8000c66:	bf18      	it	ne
 8000c68:	f040 0001 	orrne.w	r0, r0, #1
 8000c6c:	ea4f 23c1 	mov.w	r3, r1, lsl #11
 8000c70:	ea4f 23d3 	mov.w	r3, r3, lsr #11
 8000c74:	fa03 fc0c 	lsl.w	ip, r3, ip
 8000c78:	ea40 000c 	orr.w	r0, r0, ip
 8000c7c:	fa23 f302 	lsr.w	r3, r3, r2
 8000c80:	ea4f 0343 	mov.w	r3, r3, lsl #1
 8000c84:	e7cc      	b.n	8000c20 <__aeabi_d2f+0x14>
 8000c86:	ea7f 5362 	mvns.w	r3, r2, asr #21
 8000c8a:	d107      	bne.n	8000c9c <__aeabi_d2f+0x90>
 8000c8c:	ea50 3301 	orrs.w	r3, r0, r1, lsl #12
 8000c90:	bf1e      	ittt	ne
 8000c92:	f04f 40fe 	movne.w	r0, #2130706432	@ 0x7f000000
 8000c96:	f440 0040 	orrne.w	r0, r0, #12582912	@ 0xc00000
 8000c9a:	4770      	bxne	lr
 8000c9c:	f001 4000 	and.w	r0, r1, #2147483648	@ 0x80000000
 8000ca0:	f040 40fe 	orr.w	r0, r0, #2130706432	@ 0x7f000000
 8000ca4:	f440 0000 	orr.w	r0, r0, #8388608	@ 0x800000
 8000ca8:	4770      	bx	lr
 8000caa:	bf00      	nop

08000cac <__aeabi_uldivmod>:
 8000cac:	b953      	cbnz	r3, 8000cc4 <__aeabi_uldivmod+0x18>
 8000cae:	b94a      	cbnz	r2, 8000cc4 <__aeabi_uldivmod+0x18>
 8000cb0:	2900      	cmp	r1, #0
 8000cb2:	bf08      	it	eq
 8000cb4:	2800      	cmpeq	r0, #0
 8000cb6:	bf1c      	itt	ne
 8000cb8:	f04f 31ff 	movne.w	r1, #4294967295	@ 0xffffffff
 8000cbc:	f04f 30ff 	movne.w	r0, #4294967295	@ 0xffffffff
 8000cc0:	f000 b9be 	b.w	8001040 <__aeabi_idiv0>
 8000cc4:	f1ad 0c08 	sub.w	ip, sp, #8
 8000cc8:	e96d ce04 	strd	ip, lr, [sp, #-16]!
 8000ccc:	f000 f83c 	bl	8000d48 <__udivmoddi4>
 8000cd0:	f8dd e004 	ldr.w	lr, [sp, #4]
 8000cd4:	e9dd 2302 	ldrd	r2, r3, [sp, #8]
 8000cd8:	b004      	add	sp, #16
 8000cda:	4770      	bx	lr

08000cdc <__aeabi_d2lz>:
 8000cdc:	b538      	push	{r3, r4, r5, lr}
 8000cde:	2200      	movs	r2, #0
 8000ce0:	2300      	movs	r3, #0
 8000ce2:	4604      	mov	r4, r0
 8000ce4:	460d      	mov	r5, r1
 8000ce6:	f7ff ff21 	bl	8000b2c <__aeabi_dcmplt>
 8000cea:	b928      	cbnz	r0, 8000cf8 <__aeabi_d2lz+0x1c>
 8000cec:	4620      	mov	r0, r4
 8000cee:	4629      	mov	r1, r5
 8000cf0:	e8bd 4038 	ldmia.w	sp!, {r3, r4, r5, lr}
 8000cf4:	f000 b80a 	b.w	8000d0c <__aeabi_d2ulz>
 8000cf8:	4620      	mov	r0, r4
 8000cfa:	f105 4100 	add.w	r1, r5, #2147483648	@ 0x80000000
 8000cfe:	f000 f805 	bl	8000d0c <__aeabi_d2ulz>
 8000d02:	4240      	negs	r0, r0
 8000d04:	eb61 0141 	sbc.w	r1, r1, r1, lsl #1
 8000d08:	bd38      	pop	{r3, r4, r5, pc}
 8000d0a:	bf00      	nop

08000d0c <__aeabi_d2ulz>:
 8000d0c:	b5d0      	push	{r4, r6, r7, lr}
 8000d0e:	4b0c      	ldr	r3, [pc, #48]	@ (8000d40 <__aeabi_d2ulz+0x34>)
 8000d10:	2200      	movs	r2, #0
 8000d12:	4606      	mov	r6, r0
 8000d14:	460f      	mov	r7, r1
 8000d16:	f7ff fc97 	bl	8000648 <__aeabi_dmul>
 8000d1a:	f7ff ff57 	bl	8000bcc <__aeabi_d2uiz>
 8000d1e:	4604      	mov	r4, r0
 8000d20:	f7ff fc18 	bl	8000554 <__aeabi_ui2d>
 8000d24:	4b07      	ldr	r3, [pc, #28]	@ (8000d44 <__aeabi_d2ulz+0x38>)
 8000d26:	2200      	movs	r2, #0
 8000d28:	f7ff fc8e 	bl	8000648 <__aeabi_dmul>
 8000d2c:	4602      	mov	r2, r0
 8000d2e:	460b      	mov	r3, r1
 8000d30:	4630      	mov	r0, r6
 8000d32:	4639      	mov	r1, r7
 8000d34:	f7ff fad0 	bl	80002d8 <__aeabi_dsub>
 8000d38:	f7ff ff48 	bl	8000bcc <__aeabi_d2uiz>
 8000d3c:	4621      	mov	r1, r4
 8000d3e:	bdd0      	pop	{r4, r6, r7, pc}
 8000d40:	3df00000 	.word	0x3df00000
 8000d44:	41f00000 	.word	0x41f00000

08000d48 <__udivmoddi4>:
 8000d48:	e92d 47f0 	stmdb	sp!, {r4, r5, r6, r7, r8, r9, sl, lr}
 8000d4c:	9d08      	ldr	r5, [sp, #32]
 8000d4e:	460f      	mov	r7, r1
 8000d50:	4604      	mov	r4, r0
 8000d52:	468c      	mov	ip, r1
 8000d54:	2b00      	cmp	r3, #0
 8000d56:	d148      	bne.n	8000dea <__udivmoddi4+0xa2>
 8000d58:	428a      	cmp	r2, r1
 8000d5a:	4616      	mov	r6, r2
 8000d5c:	d961      	bls.n	8000e22 <__udivmoddi4+0xda>
 8000d5e:	fab2 f382 	clz	r3, r2
 8000d62:	b14b      	cbz	r3, 8000d78 <__udivmoddi4+0x30>
 8000d64:	f1c3 0220 	rsb	r2, r3, #32
 8000d68:	fa01 fc03 	lsl.w	ip, r1, r3
 8000d6c:	fa20 f202 	lsr.w	r2, r0, r2
 8000d70:	409e      	lsls	r6, r3
 8000d72:	ea42 0c0c 	orr.w	ip, r2, ip
 8000d76:	409c      	lsls	r4, r3
 8000d78:	ea4f 4e16 	mov.w	lr, r6, lsr #16
 8000d7c:	b2b7      	uxth	r7, r6
 8000d7e:	fbbc f1fe 	udiv	r1, ip, lr
 8000d82:	0c22      	lsrs	r2, r4, #16
 8000d84:	fb0e cc11 	mls	ip, lr, r1, ip
 8000d88:	ea42 420c 	orr.w	r2, r2, ip, lsl #16
 8000d8c:	fb01 f007 	mul.w	r0, r1, r7
 8000d90:	4290      	cmp	r0, r2
 8000d92:	d909      	bls.n	8000da8 <__udivmoddi4+0x60>
 8000d94:	18b2      	adds	r2, r6, r2
 8000d96:	f101 3cff 	add.w	ip, r1, #4294967295	@ 0xffffffff
 8000d9a:	f080 80ee 	bcs.w	8000f7a <__udivmoddi4+0x232>
 8000d9e:	4290      	cmp	r0, r2
 8000da0:	f240 80eb 	bls.w	8000f7a <__udivmoddi4+0x232>
 8000da4:	3902      	subs	r1, #2
 8000da6:	4432      	add	r2, r6
 8000da8:	1a12      	subs	r2, r2, r0
 8000daa:	b2a4      	uxth	r4, r4
 8000dac:	fbb2 f0fe 	udiv	r0, r2, lr
 8000db0:	fb0e 2210 	mls	r2, lr, r0, r2
 8000db4:	ea44 4402 	orr.w	r4, r4, r2, lsl #16
 8000db8:	fb00 f707 	mul.w	r7, r0, r7
 8000dbc:	42a7      	cmp	r7, r4
 8000dbe:	d909      	bls.n	8000dd4 <__udivmoddi4+0x8c>
 8000dc0:	1934      	adds	r4, r6, r4
 8000dc2:	f100 32ff 	add.w	r2, r0, #4294967295	@ 0xffffffff
 8000dc6:	f080 80da 	bcs.w	8000f7e <__udivmoddi4+0x236>
 8000dca:	42a7      	cmp	r7, r4
 8000dcc:	f240 80d7 	bls.w	8000f7e <__udivmoddi4+0x236>
 8000dd0:	4434      	add	r4, r6
 8000dd2:	3802      	subs	r0, #2
 8000dd4:	ea40 4001 	orr.w	r0, r0, r1, lsl #16
 8000dd8:	1be4      	subs	r4, r4, r7
 8000dda:	2100      	movs	r1, #0
 8000ddc:	b11d      	cbz	r5, 8000de6 <__udivmoddi4+0x9e>
 8000dde:	40dc      	lsrs	r4, r3
 8000de0:	2300      	movs	r3, #0
 8000de2:	e9c5 4300 	strd	r4, r3, [r5]
 8000de6:	e8bd 87f0 	ldmia.w	sp!, {r4, r5, r6, r7, r8, r9, sl, pc}
 8000dea:	428b      	cmp	r3, r1
 8000dec:	d906      	bls.n	8000dfc <__udivmoddi4+0xb4>
 8000dee:	b10d      	cbz	r5, 8000df4 <__udivmoddi4+0xac>
 8000df0:	e9c5 0100 	strd	r0, r1, [r5]
 8000df4:	2100      	movs	r1, #0
 8000df6:	4608      	mov	r0, r1
 8000df8:	e8bd 87f0 	ldmia.w	sp!, {r4, r5, r6, r7, r8, r9, sl, pc}
 8000dfc:	fab3 f183 	clz	r1, r3
 8000e00:	2900      	cmp	r1, #0
 8000e02:	d148      	bne.n	8000e96 <__udivmoddi4+0x14e>
 8000e04:	42bb      	cmp	r3, r7
 8000e06:	d302      	bcc.n	8000e0e <__udivmoddi4+0xc6>
 8000e08:	4282      	cmp	r2, r0
 8000e0a:	f200 8107 	bhi.w	800101c <__udivmoddi4+0x2d4>
 8000e0e:	1a84      	subs	r4, r0, r2
 8000e10:	eb67 0203 	sbc.w	r2, r7, r3
 8000e14:	2001      	movs	r0, #1
 8000e16:	4694      	mov	ip, r2
 8000e18:	2d00      	cmp	r5, #0
 8000e1a:	d0e4      	beq.n	8000de6 <__udivmoddi4+0x9e>
 8000e1c:	e9c5 4c00 	strd	r4, ip, [r5]
 8000e20:	e7e1      	b.n	8000de6 <__udivmoddi4+0x9e>
 8000e22:	2a00      	cmp	r2, #0
 8000e24:	f000 8092 	beq.w	8000f4c <__udivmoddi4+0x204>
 8000e28:	fab2 f382 	clz	r3, r2
 8000e2c:	2b00      	cmp	r3, #0
 8000e2e:	f040 80a8 	bne.w	8000f82 <__udivmoddi4+0x23a>
 8000e32:	1a8a      	subs	r2, r1, r2
 8000e34:	ea4f 4e16 	mov.w	lr, r6, lsr #16
 8000e38:	fa1f fc86 	uxth.w	ip, r6
 8000e3c:	2101      	movs	r1, #1
 8000e3e:	0c20      	lsrs	r0, r4, #16
 8000e40:	fbb2 f7fe 	udiv	r7, r2, lr
 8000e44:	fb0e 2217 	mls	r2, lr, r7, r2
 8000e48:	ea40 4202 	orr.w	r2, r0, r2, lsl #16
 8000e4c:	fb0c f007 	mul.w	r0, ip, r7
 8000e50:	4290      	cmp	r0, r2
 8000e52:	d907      	bls.n	8000e64 <__udivmoddi4+0x11c>
 8000e54:	18b2      	adds	r2, r6, r2
 8000e56:	f107 38ff 	add.w	r8, r7, #4294967295	@ 0xffffffff
 8000e5a:	d202      	bcs.n	8000e62 <__udivmoddi4+0x11a>
 8000e5c:	4290      	cmp	r0, r2
 8000e5e:	f200 80e2 	bhi.w	8001026 <__udivmoddi4+0x2de>
 8000e62:	4647      	mov	r7, r8
 8000e64:	1a12      	subs	r2, r2, r0
 8000e66:	b2a4      	uxth	r4, r4
 8000e68:	fbb2 f0fe 	udiv	r0, r2, lr
 8000e6c:	fb0e 2210 	mls	r2, lr, r0, r2
 8000e70:	ea44 4402 	orr.w	r4, r4, r2, lsl #16
 8000e74:	fb0c fc00 	mul.w	ip, ip, r0
 8000e78:	45a4      	cmp	ip, r4
 8000e7a:	d907      	bls.n	8000e8c <__udivmoddi4+0x144>
 8000e7c:	1934      	adds	r4, r6, r4
 8000e7e:	f100 32ff 	add.w	r2, r0, #4294967295	@ 0xffffffff
 8000e82:	d202      	bcs.n	8000e8a <__udivmoddi4+0x142>
 8000e84:	45a4      	cmp	ip, r4
 8000e86:	f200 80cb 	bhi.w	8001020 <__udivmoddi4+0x2d8>
 8000e8a:	4610      	mov	r0, r2
 8000e8c:	eba4 040c 	sub.w	r4, r4, ip
 8000e90:	ea40 4007 	orr.w	r0, r0, r7, lsl #16
 8000e94:	e7a2      	b.n	8000ddc <__udivmoddi4+0x94>
 8000e96:	f1c1 0620 	rsb	r6, r1, #32
 8000e9a:	408b      	lsls	r3, r1
 8000e9c:	fa22 fc06 	lsr.w	ip, r2, r6
 8000ea0:	ea4c 0c03 	orr.w	ip, ip, r3
 8000ea4:	fa07 f401 	lsl.w	r4, r7, r1
 8000ea8:	fa20 f306 	lsr.w	r3, r0, r6
 8000eac:	40f7      	lsrs	r7, r6
 8000eae:	ea4f 491c 	mov.w	r9, ip, lsr #16
 8000eb2:	4323      	orrs	r3, r4
 8000eb4:	fa00 f801 	lsl.w	r8, r0, r1
 8000eb8:	fa1f fe8c 	uxth.w	lr, ip
 8000ebc:	fbb7 f0f9 	udiv	r0, r7, r9
 8000ec0:	0c1c      	lsrs	r4, r3, #16
 8000ec2:	fb09 7710 	mls	r7, r9, r0, r7
 8000ec6:	ea44 4407 	orr.w	r4, r4, r7, lsl #16
 8000eca:	fb00 f70e 	mul.w	r7, r0, lr
 8000ece:	42a7      	cmp	r7, r4
 8000ed0:	fa02 f201 	lsl.w	r2, r2, r1
 8000ed4:	d90a      	bls.n	8000eec <__udivmoddi4+0x1a4>
 8000ed6:	eb1c 0404 	adds.w	r4, ip, r4
 8000eda:	f100 3aff 	add.w	sl, r0, #4294967295	@ 0xffffffff
 8000ede:	f080 809b 	bcs.w	8001018 <__udivmoddi4+0x2d0>
 8000ee2:	42a7      	cmp	r7, r4
 8000ee4:	f240 8098 	bls.w	8001018 <__udivmoddi4+0x2d0>
 8000ee8:	3802      	subs	r0, #2
 8000eea:	4464      	add	r4, ip
 8000eec:	1be4      	subs	r4, r4, r7
 8000eee:	b29f      	uxth	r7, r3
 8000ef0:	fbb4 f3f9 	udiv	r3, r4, r9
 8000ef4:	fb09 4413 	mls	r4, r9, r3, r4
 8000ef8:	ea47 4404 	orr.w	r4, r7, r4, lsl #16
 8000efc:	fb03 fe0e 	mul.w	lr, r3, lr
 8000f00:	45a6      	cmp	lr, r4
 8000f02:	d909      	bls.n	8000f18 <__udivmoddi4+0x1d0>
 8000f04:	eb1c 0404 	adds.w	r4, ip, r4
 8000f08:	f103 37ff 	add.w	r7, r3, #4294967295	@ 0xffffffff
 8000f0c:	f080 8082 	bcs.w	8001014 <__udivmoddi4+0x2cc>
 8000f10:	45a6      	cmp	lr, r4
 8000f12:	d97f      	bls.n	8001014 <__udivmoddi4+0x2cc>
 8000f14:	3b02      	subs	r3, #2
 8000f16:	4464      	add	r4, ip
 8000f18:	ea43 4000 	orr.w	r0, r3, r0, lsl #16
 8000f1c:	eba4 040e 	sub.w	r4, r4, lr
 8000f20:	fba0 e702 	umull	lr, r7, r0, r2
 8000f24:	42bc      	cmp	r4, r7
 8000f26:	4673      	mov	r3, lr
 8000f28:	46b9      	mov	r9, r7
 8000f2a:	d363      	bcc.n	8000ff4 <__udivmoddi4+0x2ac>
 8000f2c:	d060      	beq.n	8000ff0 <__udivmoddi4+0x2a8>
 8000f2e:	b15d      	cbz	r5, 8000f48 <__udivmoddi4+0x200>
 8000f30:	ebb8 0203 	subs.w	r2, r8, r3
 8000f34:	eb64 0409 	sbc.w	r4, r4, r9
 8000f38:	fa04 f606 	lsl.w	r6, r4, r6
 8000f3c:	fa22 f301 	lsr.w	r3, r2, r1
 8000f40:	431e      	orrs	r6, r3
 8000f42:	40cc      	lsrs	r4, r1
 8000f44:	e9c5 6400 	strd	r6, r4, [r5]
 8000f48:	2100      	movs	r1, #0
 8000f4a:	e74c      	b.n	8000de6 <__udivmoddi4+0x9e>
 8000f4c:	0862      	lsrs	r2, r4, #1
 8000f4e:	0848      	lsrs	r0, r1, #1
 8000f50:	ea42 71c1 	orr.w	r1, r2, r1, lsl #31
 8000f54:	0c0b      	lsrs	r3, r1, #16
 8000f56:	ea43 4300 	orr.w	r3, r3, r0, lsl #16
 8000f5a:	b28a      	uxth	r2, r1
 8000f5c:	ea42 4203 	orr.w	r2, r2, r3, lsl #16
 8000f60:	fbb3 f1f6 	udiv	r1, r3, r6
 8000f64:	07e4      	lsls	r4, r4, #31
 8000f66:	46b4      	mov	ip, r6
 8000f68:	4637      	mov	r7, r6
 8000f6a:	46b6      	mov	lr, r6
 8000f6c:	231f      	movs	r3, #31
 8000f6e:	fbb0 f0f6 	udiv	r0, r0, r6
 8000f72:	1bd2      	subs	r2, r2, r7
 8000f74:	ea41 4100 	orr.w	r1, r1, r0, lsl #16
 8000f78:	e761      	b.n	8000e3e <__udivmoddi4+0xf6>
 8000f7a:	4661      	mov	r1, ip
 8000f7c:	e714      	b.n	8000da8 <__udivmoddi4+0x60>
 8000f7e:	4610      	mov	r0, r2
 8000f80:	e728      	b.n	8000dd4 <__udivmoddi4+0x8c>
 8000f82:	f1c3 0120 	rsb	r1, r3, #32
 8000f86:	fa20 f201 	lsr.w	r2, r0, r1
 8000f8a:	409e      	lsls	r6, r3
 8000f8c:	fa27 f101 	lsr.w	r1, r7, r1
 8000f90:	409f      	lsls	r7, r3
 8000f92:	433a      	orrs	r2, r7
 8000f94:	ea4f 4e16 	mov.w	lr, r6, lsr #16
 8000f98:	fa1f fc86 	uxth.w	ip, r6
 8000f9c:	fbb1 f7fe 	udiv	r7, r1, lr
 8000fa0:	fb0e 1017 	mls	r0, lr, r7, r1
 8000fa4:	0c11      	lsrs	r1, r2, #16
 8000fa6:	ea41 4100 	orr.w	r1, r1, r0, lsl #16
 8000faa:	fb07 f80c 	mul.w	r8, r7, ip
 8000fae:	4588      	cmp	r8, r1
 8000fb0:	fa04 f403 	lsl.w	r4, r4, r3
 8000fb4:	d93a      	bls.n	800102c <__udivmoddi4+0x2e4>
 8000fb6:	1871      	adds	r1, r6, r1
 8000fb8:	f107 30ff 	add.w	r0, r7, #4294967295	@ 0xffffffff
 8000fbc:	d201      	bcs.n	8000fc2 <__udivmoddi4+0x27a>
 8000fbe:	4588      	cmp	r8, r1
 8000fc0:	d81f      	bhi.n	8001002 <__udivmoddi4+0x2ba>
 8000fc2:	eba1 0108 	sub.w	r1, r1, r8
 8000fc6:	fbb1 f8fe 	udiv	r8, r1, lr
 8000fca:	fb08 f70c 	mul.w	r7, r8, ip
 8000fce:	fb0e 1118 	mls	r1, lr, r8, r1
 8000fd2:	b292      	uxth	r2, r2
 8000fd4:	ea42 4201 	orr.w	r2, r2, r1, lsl #16
 8000fd8:	42ba      	cmp	r2, r7
 8000fda:	d22f      	bcs.n	800103c <__udivmoddi4+0x2f4>
 8000fdc:	18b2      	adds	r2, r6, r2
 8000fde:	f108 31ff 	add.w	r1, r8, #4294967295	@ 0xffffffff
 8000fe2:	d2c6      	bcs.n	8000f72 <__udivmoddi4+0x22a>
 8000fe4:	42ba      	cmp	r2, r7
 8000fe6:	d2c4      	bcs.n	8000f72 <__udivmoddi4+0x22a>
 8000fe8:	f1a8 0102 	sub.w	r1, r8, #2
 8000fec:	4432      	add	r2, r6
 8000fee:	e7c0      	b.n	8000f72 <__udivmoddi4+0x22a>
 8000ff0:	45f0      	cmp	r8, lr
 8000ff2:	d29c      	bcs.n	8000f2e <__udivmoddi4+0x1e6>
 8000ff4:	ebbe 0302 	subs.w	r3, lr, r2
 8000ff8:	eb67 070c 	sbc.w	r7, r7, ip
 8000ffc:	3801      	subs	r0, #1
 8000ffe:	46b9      	mov	r9, r7
 8001000:	e795      	b.n	8000f2e <__udivmoddi4+0x1e6>
 8001002:	eba6 0808 	sub.w	r8, r6, r8
 8001006:	4441      	add	r1, r8
 8001008:	1eb8      	subs	r0, r7, #2
 800100a:	fbb1 f8fe 	udiv	r8, r1, lr
 800100e:	fb08 f70c 	mul.w	r7, r8, ip
 8001012:	e7dc      	b.n	8000fce <__udivmoddi4+0x286>
 8001014:	463b      	mov	r3, r7
 8001016:	e77f      	b.n	8000f18 <__udivmoddi4+0x1d0>
 8001018:	4650      	mov	r0, sl
 800101a:	e767      	b.n	8000eec <__udivmoddi4+0x1a4>
 800101c:	4608      	mov	r0, r1
 800101e:	e6fb      	b.n	8000e18 <__udivmoddi4+0xd0>
 8001020:	4434      	add	r4, r6
 8001022:	3802      	subs	r0, #2
 8001024:	e732      	b.n	8000e8c <__udivmoddi4+0x144>
 8001026:	3f02      	subs	r7, #2
 8001028:	4432      	add	r2, r6
 800102a:	e71b      	b.n	8000e64 <__udivmoddi4+0x11c>
 800102c:	eba1 0108 	sub.w	r1, r1, r8
 8001030:	4638      	mov	r0, r7
 8001032:	fbb1 f8fe 	udiv	r8, r1, lr
 8001036:	fb08 f70c 	mul.w	r7, r8, ip
 800103a:	e7c8      	b.n	8000fce <__udivmoddi4+0x286>
 800103c:	4641      	mov	r1, r8
 800103e:	e798      	b.n	8000f72 <__udivmoddi4+0x22a>

08001040 <__aeabi_idiv0>:
 8001040:	4770      	bx	lr
 8001042:	bf00      	nop

08001044 <cs_high>:
 8001044:	2201      	movs	r2, #1
 8001046:	4802      	ldr	r0, [pc, #8]	@ (8001050 <cs_high+0xc>)
 8001048:	4611      	mov	r1, r2
 800104a:	f003 be11 	b.w	8004c70 <HAL_GPIO_WritePin>
 800104e:	bf00      	nop
 8001050:	48000400 	.word	0x48000400

08001054 <spi_read>:
 8001054:	b5f0      	push	{r4, r5, r6, r7, lr}
 8001056:	4604      	mov	r4, r0
 8001058:	f5ad 7d05 	sub.w	sp, sp, #532	@ 0x214
 800105c:	4615      	mov	r5, r2
 800105e:	460e      	mov	r6, r1
 8001060:	b319      	cbz	r1, 80010aa <spi_read+0x56>
 8001062:	f5b2 7f80 	cmp.w	r2, #256	@ 0x100
 8001066:	d820      	bhi.n	80010aa <spi_read+0x56>
 8001068:	f44f 7280 	mov.w	r2, #256	@ 0x100
 800106c:	2100      	movs	r1, #0
 800106e:	a804      	add	r0, sp, #16
 8001070:	f006 fdcc 	bl	8007c0c <memset>
 8001074:	f44f 7280 	mov.w	r2, #256	@ 0x100
 8001078:	2100      	movs	r1, #0
 800107a:	a844      	add	r0, sp, #272	@ 0x110
 800107c:	f006 fdc6 	bl	8007c0c <memset>
 8001080:	f10d 070f 	add.w	r7, sp, #15
 8001084:	4816      	ldr	r0, [pc, #88]	@ (80010e0 <spi_read+0x8c>)
 8001086:	2200      	movs	r2, #0
 8001088:	2101      	movs	r1, #1
 800108a:	f064 047f 	orn	r4, r4, #127	@ 0x7f
 800108e:	f88d 400f 	strb.w	r4, [sp, #15]
 8001092:	f003 fded 	bl	8004c70 <HAL_GPIO_WritePin>
 8001096:	4813      	ldr	r0, [pc, #76]	@ (80010e4 <spi_read+0x90>)
 8001098:	f04f 33ff 	mov.w	r3, #4294967295	@ 0xffffffff
 800109c:	2201      	movs	r2, #1
 800109e:	4639      	mov	r1, r7
 80010a0:	f004 fc72 	bl	8005988 <HAL_SPI_Transmit>
 80010a4:	b130      	cbz	r0, 80010b4 <spi_read+0x60>
 80010a6:	f7ff ffcd 	bl	8001044 <cs_high>
 80010aa:	f06f 0001 	mvn.w	r0, #1
 80010ae:	f50d 7d05 	add.w	sp, sp, #532	@ 0x214
 80010b2:	bdf0      	pop	{r4, r5, r6, r7, pc}
 80010b4:	f04f 33ff 	mov.w	r3, #4294967295	@ 0xffffffff
 80010b8:	9300      	str	r3, [sp, #0]
 80010ba:	480a      	ldr	r0, [pc, #40]	@ (80010e4 <spi_read+0x90>)
 80010bc:	b2ab      	uxth	r3, r5
 80010be:	aa44      	add	r2, sp, #272	@ 0x110
 80010c0:	a904      	add	r1, sp, #16
 80010c2:	f004 fd27 	bl	8005b14 <HAL_SPI_TransmitReceive>
 80010c6:	4604      	mov	r4, r0
 80010c8:	f7ff ffbc 	bl	8001044 <cs_high>
 80010cc:	2c00      	cmp	r4, #0
 80010ce:	d1ec      	bne.n	80010aa <spi_read+0x56>
 80010d0:	462a      	mov	r2, r5
 80010d2:	a944      	add	r1, sp, #272	@ 0x110
 80010d4:	4630      	mov	r0, r6
 80010d6:	f006 fe00 	bl	8007cda <memcpy>
 80010da:	4620      	mov	r0, r4
 80010dc:	e7e7      	b.n	80010ae <spi_read+0x5a>
 80010de:	bf00      	nop
 80010e0:	48000400 	.word	0x48000400
 80010e4:	2000067c 	.word	0x2000067c

080010e8 <delay_us>:
 80010e8:	b410      	push	{r4}
 80010ea:	b1b0      	cbz	r0, 800111a <delay_us+0x32>
 80010ec:	4b0c      	ldr	r3, [pc, #48]	@ (8001120 <delay_us+0x38>)
 80010ee:	781b      	ldrb	r3, [r3, #0]
 80010f0:	b113      	cbz	r3, 80010f8 <delay_us+0x10>
 80010f2:	4b0c      	ldr	r3, [pc, #48]	@ (8001124 <delay_us+0x3c>)
 80010f4:	681b      	ldr	r3, [r3, #0]
 80010f6:	b94b      	cbnz	r3, 800110c <delay_us+0x24>
 80010f8:	f200 30e7 	addw	r0, r0, #999	@ 0x3e7
 80010fc:	f44f 737a 	mov.w	r3, #1000	@ 0x3e8
 8001100:	f85d 4b04 	ldr.w	r4, [sp], #4
 8001104:	fbb0 f0f3 	udiv	r0, r0, r3
 8001108:	f003 ba82 	b.w	8004610 <HAL_Delay>
 800110c:	4906      	ldr	r1, [pc, #24]	@ (8001128 <delay_us+0x40>)
 800110e:	684c      	ldr	r4, [r1, #4]
 8001110:	4343      	muls	r3, r0
 8001112:	684a      	ldr	r2, [r1, #4]
 8001114:	1b12      	subs	r2, r2, r4
 8001116:	429a      	cmp	r2, r3
 8001118:	d3fb      	bcc.n	8001112 <delay_us+0x2a>
 800111a:	f85d 4b04 	ldr.w	r4, [sp], #4
 800111e:	4770      	bx	lr
 8001120:	20000200 	.word	0x20000200
 8001124:	200001fc 	.word	0x200001fc
 8001128:	e0001000 	.word	0xe0001000

0800112c <spi_write>:
 800112c:	b530      	push	{r4, r5, lr}
 800112e:	b0c1      	sub	sp, #260	@ 0x104
 8001130:	b119      	cbz	r1, 800113a <spi_write+0xe>
 8001132:	1c55      	adds	r5, r2, #1
 8001134:	f5b5 7f80 	cmp.w	r5, #256	@ 0x100
 8001138:	d903      	bls.n	8001142 <spi_write+0x16>
 800113a:	f06f 0001 	mvn.w	r0, #1
 800113e:	b041      	add	sp, #260	@ 0x104
 8001140:	bd30      	pop	{r4, r5, pc}
 8001142:	f000 007f 	and.w	r0, r0, #127	@ 0x7f
 8001146:	466c      	mov	r4, sp
 8001148:	f88d 0000 	strb.w	r0, [sp]
 800114c:	466b      	mov	r3, sp
 800114e:	440a      	add	r2, r1
 8001150:	4291      	cmp	r1, r2
 8001152:	d112      	bne.n	800117a <spi_write+0x4e>
 8001154:	480b      	ldr	r0, [pc, #44]	@ (8001184 <spi_write+0x58>)
 8001156:	2200      	movs	r2, #0
 8001158:	2101      	movs	r1, #1
 800115a:	f003 fd89 	bl	8004c70 <HAL_GPIO_WritePin>
 800115e:	4621      	mov	r1, r4
 8001160:	4809      	ldr	r0, [pc, #36]	@ (8001188 <spi_write+0x5c>)
 8001162:	f04f 33ff 	mov.w	r3, #4294967295	@ 0xffffffff
 8001166:	b2aa      	uxth	r2, r5
 8001168:	f004 fc0e 	bl	8005988 <HAL_SPI_Transmit>
 800116c:	4604      	mov	r4, r0
 800116e:	f7ff ff69 	bl	8001044 <cs_high>
 8001172:	2c00      	cmp	r4, #0
 8001174:	d1e1      	bne.n	800113a <spi_write+0xe>
 8001176:	4620      	mov	r0, r4
 8001178:	e7e1      	b.n	800113e <spi_write+0x12>
 800117a:	f811 0b01 	ldrb.w	r0, [r1], #1
 800117e:	f803 0f01 	strb.w	r0, [r3, #1]!
 8001182:	e7e5      	b.n	8001150 <spi_write+0x24>
 8001184:	48000400 	.word	0x48000400
 8001188:	2000067c 	.word	0x2000067c

0800118c <BMI330_App_Init>:
 800118c:	b530      	push	{r4, r5, lr}
 800118e:	2220      	movs	r2, #32
 8001190:	b097      	sub	sp, #92	@ 0x5c
 8001192:	2100      	movs	r1, #0
 8001194:	482d      	ldr	r0, [pc, #180]	@ (800124c <BMI330_App_Init+0xc0>)
 8001196:	4c2e      	ldr	r4, [pc, #184]	@ (8001250 <BMI330_App_Init+0xc4>)
 8001198:	f006 fd38 	bl	8007c0c <memset>
 800119c:	2100      	movs	r1, #0
 800119e:	2258      	movs	r2, #88	@ 0x58
 80011a0:	4668      	mov	r0, sp
 80011a2:	f006 fd33 	bl	8007c0c <memset>
 80011a6:	2500      	movs	r5, #0
 80011a8:	4a2a      	ldr	r2, [pc, #168]	@ (8001254 <BMI330_App_Init+0xc8>)
 80011aa:	7025      	strb	r5, [r4, #0]
 80011ac:	f8d2 30fc 	ldr.w	r3, [r2, #252]	@ 0xfc
 80011b0:	f043 7380 	orr.w	r3, r3, #16777216	@ 0x1000000
 80011b4:	f8c2 30fc 	str.w	r3, [r2, #252]	@ 0xfc
 80011b8:	4b27      	ldr	r3, [pc, #156]	@ (8001258 <BMI330_App_Init+0xcc>)
 80011ba:	681a      	ldr	r2, [r3, #0]
 80011bc:	f042 0201 	orr.w	r2, r2, #1
 80011c0:	601a      	str	r2, [r3, #0]
 80011c2:	605d      	str	r5, [r3, #4]
 80011c4:	f004 f8fc 	bl	80053c0 <HAL_RCC_GetHCLKFreq>
 80011c8:	4a24      	ldr	r2, [pc, #144]	@ (800125c <BMI330_App_Init+0xd0>)
 80011ca:	4b25      	ldr	r3, [pc, #148]	@ (8001260 <BMI330_App_Init+0xd4>)
 80011cc:	fbb0 f3f3 	udiv	r3, r0, r3
 80011d0:	6013      	str	r3, [r2, #0]
 80011d2:	4b24      	ldr	r3, [pc, #144]	@ (8001264 <BMI330_App_Init+0xd8>)
 80011d4:	4298      	cmp	r0, r3
 80011d6:	4b24      	ldr	r3, [pc, #144]	@ (8001268 <BMI330_App_Init+0xdc>)
 80011d8:	bf94      	ite	ls
 80011da:	2000      	movls	r0, #0
 80011dc:	2001      	movhi	r0, #1
 80011de:	7018      	strb	r0, [r3, #0]
 80011e0:	f7ff ff30 	bl	8001044 <cs_high>
 80011e4:	4a19      	ldr	r2, [pc, #100]	@ (800124c <BMI330_App_Init+0xc0>)
 80011e6:	4b21      	ldr	r3, [pc, #132]	@ (800126c <BMI330_App_Init+0xe0>)
 80011e8:	6113      	str	r3, [r2, #16]
 80011ea:	4b21      	ldr	r3, [pc, #132]	@ (8001270 <BMI330_App_Init+0xe4>)
 80011ec:	6153      	str	r3, [r2, #20]
 80011ee:	4610      	mov	r0, r2
 80011f0:	4b20      	ldr	r3, [pc, #128]	@ (8001274 <BMI330_App_Init+0xe8>)
 80011f2:	6193      	str	r3, [r2, #24]
 80011f4:	7255      	strb	r5, [r2, #9]
 80011f6:	6055      	str	r5, [r2, #4]
 80011f8:	f001 fe4e 	bl	8002e98 <bmi330_init>
 80011fc:	b110      	cbz	r0, 8001204 <BMI330_App_Init+0x78>
 80011fe:	2001      	movs	r0, #1
 8001200:	b017      	add	sp, #92	@ 0x5c
 8001202:	bd30      	pop	{r4, r5, pc}
 8001204:	f88d 0000 	strb.w	r0, [sp]
 8001208:	2501      	movs	r5, #1
 800120a:	4a10      	ldr	r2, [pc, #64]	@ (800124c <BMI330_App_Init+0xc0>)
 800120c:	f88d 502c 	strb.w	r5, [sp, #44]	@ 0x2c
 8001210:	2102      	movs	r1, #2
 8001212:	4668      	mov	r0, sp
 8001214:	f001 fdc0 	bl	8002d98 <bmi330_get_sensor_config>
 8001218:	2800      	cmp	r0, #0
 800121a:	d1f0      	bne.n	80011fe <BMI330_App_Init+0x72>
 800121c:	2207      	movs	r2, #7
 800121e:	f240 3307 	movw	r3, #775	@ 0x307
 8001222:	f8ad 2002 	strh.w	r2, [sp, #2]
 8001226:	f88d 0006 	strb.w	r0, [sp, #6]
 800122a:	f8ad 202e 	strh.w	r2, [sp, #46]	@ 0x2e
 800122e:	f88d 0032 	strb.w	r0, [sp, #50]	@ 0x32
 8001232:	4a06      	ldr	r2, [pc, #24]	@ (800124c <BMI330_App_Init+0xc0>)
 8001234:	f8ad 3004 	strh.w	r3, [sp, #4]
 8001238:	2102      	movs	r1, #2
 800123a:	4668      	mov	r0, sp
 800123c:	f8ad 3030 	strh.w	r3, [sp, #48]	@ 0x30
 8001240:	f001 fda8 	bl	8002d94 <bmi330_set_sensor_config>
 8001244:	2800      	cmp	r0, #0
 8001246:	d1da      	bne.n	80011fe <BMI330_App_Init+0x72>
 8001248:	7025      	strb	r5, [r4, #0]
 800124a:	e7d9      	b.n	8001200 <BMI330_App_Init+0x74>
 800124c:	20000204 	.word	0x20000204
 8001250:	20000201 	.word	0x20000201
 8001254:	e000ed00 	.word	0xe000ed00
 8001258:	e0001000 	.word	0xe0001000
 800125c:	200001fc 	.word	0x200001fc
 8001260:	000f4240 	.word	0x000f4240
 8001264:	000f423f 	.word	0x000f423f
 8001268:	20000200 	.word	0x20000200
 800126c:	08001055 	.word	0x08001055
 8001270:	0800112d 	.word	0x0800112d
 8001274:	080010e9 	.word	0x080010e9

08001278 <BMI330_App_ReadRaw>:
 8001278:	b510      	push	{r4, lr}
 800127a:	4604      	mov	r4, r0
 800127c:	b08a      	sub	sp, #40	@ 0x28
 800127e:	b360      	cbz	r0, 80012da <BMI330_App_ReadRaw+0x62>
 8001280:	4b17      	ldr	r3, [pc, #92]	@ (80012e0 <BMI330_App_ReadRaw+0x68>)
 8001282:	781b      	ldrb	r3, [r3, #0]
 8001284:	b34b      	cbz	r3, 80012da <BMI330_App_ReadRaw+0x62>
 8001286:	2228      	movs	r2, #40	@ 0x28
 8001288:	2100      	movs	r1, #0
 800128a:	4668      	mov	r0, sp
 800128c:	f006 fcbe 	bl	8007c0c <memset>
 8001290:	2301      	movs	r3, #1
 8001292:	4a14      	ldr	r2, [pc, #80]	@ (80012e4 <BMI330_App_ReadRaw+0x6c>)
 8001294:	f88d 3014 	strb.w	r3, [sp, #20]
 8001298:	2102      	movs	r1, #2
 800129a:	4668      	mov	r0, sp
 800129c:	f001 fd7e 	bl	8002d9c <bmi330_get_sensor_data>
 80012a0:	b9d8      	cbnz	r0, 80012da <BMI330_App_ReadRaw+0x62>
 80012a2:	466b      	mov	r3, sp
 80012a4:	781a      	ldrb	r2, [r3, #0]
 80012a6:	b97a      	cbnz	r2, 80012c8 <BMI330_App_ReadRaw+0x50>
 80012a8:	889a      	ldrh	r2, [r3, #4]
 80012aa:	8022      	strh	r2, [r4, #0]
 80012ac:	88da      	ldrh	r2, [r3, #6]
 80012ae:	8062      	strh	r2, [r4, #2]
 80012b0:	891a      	ldrh	r2, [r3, #8]
 80012b2:	80a2      	strh	r2, [r4, #4]
 80012b4:	1c42      	adds	r2, r0, #1
 80012b6:	2a02      	cmp	r2, #2
 80012b8:	f103 0314 	add.w	r3, r3, #20
 80012bc:	f04f 0001 	mov.w	r0, #1
 80012c0:	d1f0      	bne.n	80012a4 <BMI330_App_ReadRaw+0x2c>
 80012c2:	2000      	movs	r0, #0
 80012c4:	b00a      	add	sp, #40	@ 0x28
 80012c6:	bd10      	pop	{r4, pc}
 80012c8:	2a01      	cmp	r2, #1
 80012ca:	d1f3      	bne.n	80012b4 <BMI330_App_ReadRaw+0x3c>
 80012cc:	889a      	ldrh	r2, [r3, #4]
 80012ce:	80e2      	strh	r2, [r4, #6]
 80012d0:	88da      	ldrh	r2, [r3, #6]
 80012d2:	8122      	strh	r2, [r4, #8]
 80012d4:	891a      	ldrh	r2, [r3, #8]
 80012d6:	8162      	strh	r2, [r4, #10]
 80012d8:	e7ec      	b.n	80012b4 <BMI330_App_ReadRaw+0x3c>
 80012da:	2001      	movs	r0, #1
 80012dc:	e7f2      	b.n	80012c4 <BMI330_App_ReadRaw+0x4c>
 80012de:	bf00      	nop
 80012e0:	20000201 	.word	0x20000201
 80012e4:	20000204 	.word	0x20000204

080012e8 <BMP384_App_Init>:
 80012e8:	b57f      	push	{r0, r1, r2, r3, r4, r5, r6, lr}
 80012ea:	4c28      	ldr	r4, [pc, #160]	@ (800138c <BMP384_App_Init+0xa4>)
 80012ec:	4828      	ldr	r0, [pc, #160]	@ (8001390 <BMP384_App_Init+0xa8>)
 80012ee:	4e29      	ldr	r6, [pc, #164]	@ (8001394 <BMP384_App_Init+0xac>)
 80012f0:	2500      	movs	r5, #0
 80012f2:	22b0      	movs	r2, #176	@ 0xb0
 80012f4:	2100      	movs	r1, #0
 80012f6:	f006 fc89 	bl	8007c0c <memset>
 80012fa:	220d      	movs	r2, #13
 80012fc:	4629      	mov	r1, r5
 80012fe:	4668      	mov	r0, sp
 8001300:	e9c4 5500 	strd	r5, r5, [r4]
 8001304:	60a5      	str	r5, [r4, #8]
 8001306:	f006 fc81 	bl	8007c0c <memset>
 800130a:	4b23      	ldr	r3, [pc, #140]	@ (8001398 <BMP384_App_Init+0xb0>)
 800130c:	701d      	strb	r5, [r3, #0]
 800130e:	f002 fb6d 	bl	80039ec <BMP3_Port_InitDWT>
 8001312:	2201      	movs	r2, #1
 8001314:	4630      	mov	r0, r6
 8001316:	f44f 6180 	mov.w	r1, #1024	@ 0x400
 800131a:	f003 fca9 	bl	8004c70 <HAL_GPIO_WritePin>
 800131e:	4b1f      	ldr	r3, [pc, #124]	@ (800139c <BMP384_App_Init+0xb4>)
 8001320:	4a1b      	ldr	r2, [pc, #108]	@ (8001390 <BMP384_App_Init+0xa8>)
 8001322:	e9c4 3600 	strd	r3, r6, [r4]
 8001326:	f44f 6380 	mov.w	r3, #1024	@ 0x400
 800132a:	8123      	strh	r3, [r4, #8]
 800132c:	4b1c      	ldr	r3, [pc, #112]	@ (80013a0 <BMP384_App_Init+0xb8>)
 800132e:	60d3      	str	r3, [r2, #12]
 8001330:	4b1c      	ldr	r3, [pc, #112]	@ (80013a4 <BMP384_App_Init+0xbc>)
 8001332:	6113      	str	r3, [r2, #16]
 8001334:	4610      	mov	r0, r2
 8001336:	4b1c      	ldr	r3, [pc, #112]	@ (80013a8 <BMP384_App_Init+0xc0>)
 8001338:	7215      	strb	r5, [r2, #8]
 800133a:	6054      	str	r4, [r2, #4]
 800133c:	6153      	str	r3, [r2, #20]
 800133e:	f002 f989 	bl	8003654 <bmp3_init>
 8001342:	b110      	cbz	r0, 800134a <BMP384_App_Init+0x62>
 8001344:	2001      	movs	r0, #1
 8001346:	b004      	add	sp, #16
 8001348:	bd70      	pop	{r4, r5, r6, pc}
 800134a:	f240 1201 	movw	r2, #257	@ 0x101
 800134e:	f8ad 2002 	strh.w	r2, [sp, #2]
 8001352:	4a16      	ldr	r2, [pc, #88]	@ (80013ac <BMP384_App_Init+0xc4>)
 8001354:	9201      	str	r2, [sp, #4]
 8001356:	2301      	movs	r3, #1
 8001358:	4a0d      	ldr	r2, [pc, #52]	@ (8001390 <BMP384_App_Init+0xa8>)
 800135a:	f88d 3001 	strb.w	r3, [sp, #1]
 800135e:	4669      	mov	r1, sp
 8001360:	f240 70fe 	movw	r0, #2046	@ 0x7fe
 8001364:	f8ad 3008 	strh.w	r3, [sp, #8]
 8001368:	f88d 300a 	strb.w	r3, [sp, #10]
 800136c:	f002 f819 	bl	80033a2 <bmp3_set_sensor_settings>
 8001370:	2800      	cmp	r0, #0
 8001372:	d1e7      	bne.n	8001344 <BMP384_App_Init+0x5c>
 8001374:	2303      	movs	r3, #3
 8001376:	4906      	ldr	r1, [pc, #24]	@ (8001390 <BMP384_App_Init+0xa8>)
 8001378:	f88d 3000 	strb.w	r3, [sp]
 800137c:	4668      	mov	r0, sp
 800137e:	f002 fa7c 	bl	800387a <bmp3_set_op_mode>
 8001382:	3800      	subs	r0, #0
 8001384:	bf18      	it	ne
 8001386:	2001      	movne	r0, #1
 8001388:	e7dd      	b.n	8001346 <BMP384_App_Init+0x5e>
 800138a:	bf00      	nop
 800138c:	20000228 	.word	0x20000228
 8001390:	20000238 	.word	0x20000238
 8001394:	48000400 	.word	0x48000400
 8001398:	20000224 	.word	0x20000224
 800139c:	20000618 	.word	0x20000618
 80013a0:	08003a15 	.word	0x08003a15
 80013a4:	08003a7b 	.word	0x08003a7b
 80013a8:	08003acd 	.word	0x08003acd
 80013ac:	00030200 	.word	0x00030200

080013b0 <BMP384_App_ReadSample>:
 80013b0:	b530      	push	{r4, r5, lr}
 80013b2:	4605      	mov	r5, r0
 80013b4:	b085      	sub	sp, #20
 80013b6:	b910      	cbnz	r0, 80013be <BMP384_App_ReadSample+0xe>
 80013b8:	2001      	movs	r0, #1
 80013ba:	b005      	add	sp, #20
 80013bc:	bd30      	pop	{r4, r5, pc}
 80013be:	4a0b      	ldr	r2, [pc, #44]	@ (80013ec <BMP384_App_ReadSample+0x3c>)
 80013c0:	4669      	mov	r1, sp
 80013c2:	2003      	movs	r0, #3
 80013c4:	f002 fad3 	bl	800396e <bmp3_get_sensor_data>
 80013c8:	4604      	mov	r4, r0
 80013ca:	2800      	cmp	r0, #0
 80013cc:	d1f4      	bne.n	80013b8 <BMP384_App_ReadSample+0x8>
 80013ce:	e9dd 0100 	ldrd	r0, r1, [sp]
 80013d2:	f7ff fc1b 	bl	8000c0c <__aeabi_d2f>
 80013d6:	6068      	str	r0, [r5, #4]
 80013d8:	e9dd 0102 	ldrd	r0, r1, [sp, #8]
 80013dc:	f7ff fc16 	bl	8000c0c <__aeabi_d2f>
 80013e0:	2301      	movs	r3, #1
 80013e2:	6028      	str	r0, [r5, #0]
 80013e4:	722b      	strb	r3, [r5, #8]
 80013e6:	4620      	mov	r0, r4
 80013e8:	e7e7      	b.n	80013ba <BMP384_App_ReadSample+0xa>
 80013ea:	bf00      	nop
 80013ec:	20000238 	.word	0x20000238

080013f0 <BMP384_App_HasNewData>:
 80013f0:	4b01      	ldr	r3, [pc, #4]	@ (80013f8 <BMP384_App_HasNewData+0x8>)
 80013f2:	7818      	ldrb	r0, [r3, #0]
 80013f4:	4770      	bx	lr
 80013f6:	bf00      	nop
 80013f8:	20000224 	.word	0x20000224

080013fc <BMP384_App_ClearNewData>:
 80013fc:	4b01      	ldr	r3, [pc, #4]	@ (8001404 <BMP384_App_ClearNewData+0x8>)
 80013fe:	2200      	movs	r2, #0
 8001400:	701a      	strb	r2, [r3, #0]
 8001402:	4770      	bx	lr
 8001404:	20000224 	.word	0x20000224

08001408 <HAL_GPIO_EXTI_Callback>:
 8001408:	f5b0 6f00 	cmp.w	r0, #2048	@ 0x800
 800140c:	bf02      	ittt	eq
 800140e:	4b02      	ldreq	r3, [pc, #8]	@ (8001418 <HAL_GPIO_EXTI_Callback+0x10>)
 8001410:	2201      	moveq	r2, #1
 8001412:	701a      	strbeq	r2, [r3, #0]
 8001414:	4770      	bx	lr
 8001416:	bf00      	nop
 8001418:	20000224 	.word	0x20000224

0800141c <CAN_NEO6M_App_SendData>:
 800141c:	b500      	push	{lr}
 800141e:	b08d      	sub	sp, #52	@ 0x34
 8001420:	b368      	cbz	r0, 800147e <CAN_NEO6M_App_SendData+0x62>
 8001422:	7e83      	ldrb	r3, [r0, #26]
 8001424:	b35b      	cbz	r3, 800147e <CAN_NEO6M_App_SendData+0x62>
 8001426:	edd0 7a01 	vldr	s15, [r0, #4]
 800142a:	ed90 7a00 	vldr	s14, [r0]
 800142e:	eddf 6a15 	vldr	s13, [pc, #84]	@ 8001484 <CAN_NEO6M_App_SendData+0x68>
 8001432:	eef8 7ae7 	vcvt.f32.s32	s15, s15
 8001436:	eeb8 7ac7 	vcvt.f32.s32	s14, s14
 800143a:	eec7 7aa6 	vdiv.f32	s15, s15, s13
 800143e:	2220      	movs	r2, #32
 8001440:	2100      	movs	r1, #0
 8001442:	a804      	add	r0, sp, #16
 8001444:	ee87 7a26 	vdiv.f32	s14, s14, s13
 8001448:	edcd 7a02 	vstr	s15, [sp, #8]
 800144c:	ed8d 7a01 	vstr	s14, [sp, #4]
 8001450:	f006 fbdc 	bl	8007c0c <memset>
 8001454:	f240 1303 	movw	r3, #259	@ 0x103
 8001458:	9303      	str	r3, [sp, #12]
 800145a:	2308      	movs	r3, #8
 800145c:	9306      	str	r3, [sp, #24]
 800145e:	f44f 1080 	mov.w	r0, #1048576	@ 0x100000
 8001462:	f44f 1300 	mov.w	r3, #2097152	@ 0x200000
 8001466:	e9cd 0308 	strd	r0, r3, [sp, #32]
 800146a:	aa01      	add	r2, sp, #4
 800146c:	4806      	ldr	r0, [pc, #24]	@ (8001488 <CAN_NEO6M_App_SendData+0x6c>)
 800146e:	a903      	add	r1, sp, #12
 8001470:	f003 facc 	bl	8004a0c <HAL_FDCAN_AddMessageToTxFifoQ>
 8001474:	3800      	subs	r0, #0
 8001476:	bf18      	it	ne
 8001478:	2001      	movne	r0, #1
 800147a:	b00d      	add	sp, #52	@ 0x34
 800147c:	bd00      	pop	{pc}
 800147e:	2001      	movs	r0, #1
 8001480:	e7fb      	b.n	800147a <CAN_NEO6M_App_SendData+0x5e>
 8001482:	bf00      	nop
 8001484:	4b189680 	.word	0x4b189680
 8001488:	20000594 	.word	0x20000594

0800148c <CAN_SENSOR_App_SendCombined>:
 800148c:	b500      	push	{lr}
 800148e:	b08f      	sub	sp, #60	@ 0x3c
 8001490:	2800      	cmp	r0, #0
 8001492:	d03f      	beq.n	8001514 <CAN_SENSOR_App_SendCombined+0x88>
 8001494:	f06f 4300 	mvn.w	r3, #2147483648	@ 0x80000000
 8001498:	4299      	cmp	r1, r3
 800149a:	bf18      	it	ne
 800149c:	ee07 1a90 	vmovne	s15, r1
 80014a0:	8803      	ldrh	r3, [r0, #0]
 80014a2:	f8ad 3004 	strh.w	r3, [sp, #4]
 80014a6:	8843      	ldrh	r3, [r0, #2]
 80014a8:	bf18      	it	ne
 80014aa:	ed9f 7a1b 	vldrne	s14, [pc, #108]	@ 8001518 <CAN_SENSOR_App_SendCombined+0x8c>
 80014ae:	f8ad 3006 	strh.w	r3, [sp, #6]
 80014b2:	bf18      	it	ne
 80014b4:	eef8 7ae7 	vcvtne.f32.s32	s15, s15
 80014b8:	8883      	ldrh	r3, [r0, #4]
 80014ba:	f8ad 3008 	strh.w	r3, [sp, #8]
 80014be:	88c3      	ldrh	r3, [r0, #6]
 80014c0:	bf08      	it	eq
 80014c2:	eddf 7a16 	vldreq	s15, [pc, #88]	@ 800151c <CAN_SENSOR_App_SendCombined+0x90>
 80014c6:	f8ad 300a 	strh.w	r3, [sp, #10]
 80014ca:	bf18      	it	ne
 80014cc:	ee67 7a87 	vmulne.f32	s15, s15, s14
 80014d0:	8903      	ldrh	r3, [r0, #8]
 80014d2:	f8ad 300c 	strh.w	r3, [sp, #12]
 80014d6:	2220      	movs	r2, #32
 80014d8:	8943      	ldrh	r3, [r0, #10]
 80014da:	f8ad 300e 	strh.w	r3, [sp, #14]
 80014de:	2100      	movs	r1, #0
 80014e0:	a806      	add	r0, sp, #24
 80014e2:	edcd 7a04 	vstr	s15, [sp, #16]
 80014e6:	f006 fb91 	bl	8007c0c <memset>
 80014ea:	f240 1301 	movw	r3, #257	@ 0x101
 80014ee:	9305      	str	r3, [sp, #20]
 80014f0:	230a      	movs	r3, #10
 80014f2:	9308      	str	r3, [sp, #32]
 80014f4:	f44f 1080 	mov.w	r0, #1048576	@ 0x100000
 80014f8:	f44f 1300 	mov.w	r3, #2097152	@ 0x200000
 80014fc:	e9cd 030a 	strd	r0, r3, [sp, #40]	@ 0x28
 8001500:	aa01      	add	r2, sp, #4
 8001502:	4807      	ldr	r0, [pc, #28]	@ (8001520 <CAN_SENSOR_App_SendCombined+0x94>)
 8001504:	a905      	add	r1, sp, #20
 8001506:	f003 fa81 	bl	8004a0c <HAL_FDCAN_AddMessageToTxFifoQ>
 800150a:	3800      	subs	r0, #0
 800150c:	bf18      	it	ne
 800150e:	2001      	movne	r0, #1
 8001510:	b00f      	add	sp, #60	@ 0x3c
 8001512:	bd00      	pop	{pc}
 8001514:	2001      	movs	r0, #1
 8001516:	e7fb      	b.n	8001510 <CAN_SENSOR_App_SendCombined+0x84>
 8001518:	3c23d70a 	.word	0x3c23d70a
 800151c:	7fc00000 	.word	0x7fc00000
 8001520:	20000594 	.word	0x20000594

08001524 <NEO6M_RestartRxIT>:
 8001524:	4902      	ldr	r1, [pc, #8]	@ (8001530 <NEO6M_RestartRxIT+0xc>)
 8001526:	4803      	ldr	r0, [pc, #12]	@ (8001534 <NEO6M_RestartRxIT+0x10>)
 8001528:	2201      	movs	r2, #1
 800152a:	f005 bb77 	b.w	8006c1c <HAL_UART_Receive_IT>
 800152e:	bf00      	nop
 8001530:	20000592 	.word	0x20000592
 8001534:	200006e4 	.word	0x200006e4

08001538 <hex_to_int>:
 8001538:	4603      	mov	r3, r0
 800153a:	3830      	subs	r0, #48	@ 0x30
 800153c:	b2c2      	uxtb	r2, r0
 800153e:	2a09      	cmp	r2, #9
 8001540:	d90f      	bls.n	8001562 <hex_to_int+0x2a>
 8001542:	f1a3 0241 	sub.w	r2, r3, #65	@ 0x41
 8001546:	2a05      	cmp	r2, #5
 8001548:	d802      	bhi.n	8001550 <hex_to_int+0x18>
 800154a:	f1a3 0037 	sub.w	r0, r3, #55	@ 0x37
 800154e:	4770      	bx	lr
 8001550:	f1a3 0261 	sub.w	r2, r3, #97	@ 0x61
 8001554:	2a05      	cmp	r2, #5
 8001556:	d802      	bhi.n	800155e <hex_to_int+0x26>
 8001558:	f1a3 0057 	sub.w	r0, r3, #87	@ 0x57
 800155c:	4770      	bx	lr
 800155e:	f04f 30ff 	mov.w	r0, #4294967295	@ 0xffffffff
 8001562:	4770      	bx	lr
 8001564:	0000      	movs	r0, r0
	...

08001568 <parse_latlon_to_e7>:
 8001568:	e92d 43f8 	stmdb	sp!, {r3, r4, r5, r6, r7, r8, r9, lr}
 800156c:	460e      	mov	r6, r1
 800156e:	4603      	mov	r3, r0
 8001570:	2800      	cmp	r0, #0
 8001572:	d04f      	beq.n	8001614 <parse_latlon_to_e7+0xac>
 8001574:	7803      	ldrb	r3, [r0, #0]
 8001576:	2b00      	cmp	r3, #0
 8001578:	d04c      	beq.n	8001614 <parse_latlon_to_e7+0xac>
 800157a:	f005 fbf1 	bl	8006d60 <atof>
 800157e:	ec55 4b10 	vmov	r4, r5, d0
 8001582:	4b27      	ldr	r3, [pc, #156]	@ (8001620 <parse_latlon_to_e7+0xb8>)
 8001584:	2200      	movs	r2, #0
 8001586:	4620      	mov	r0, r4
 8001588:	4629      	mov	r1, r5
 800158a:	f7ff f987 	bl	800089c <__aeabi_ddiv>
 800158e:	f7ff faf5 	bl	8000b7c <__aeabi_d2iz>
 8001592:	f7fe ffef 	bl	8000574 <__aeabi_i2d>
 8001596:	4b22      	ldr	r3, [pc, #136]	@ (8001620 <parse_latlon_to_e7+0xb8>)
 8001598:	2200      	movs	r2, #0
 800159a:	4680      	mov	r8, r0
 800159c:	4689      	mov	r9, r1
 800159e:	f7ff f853 	bl	8000648 <__aeabi_dmul>
 80015a2:	4602      	mov	r2, r0
 80015a4:	460b      	mov	r3, r1
 80015a6:	4620      	mov	r0, r4
 80015a8:	4629      	mov	r1, r5
 80015aa:	f7fe fe95 	bl	80002d8 <__aeabi_dsub>
 80015ae:	4b1d      	ldr	r3, [pc, #116]	@ (8001624 <parse_latlon_to_e7+0xbc>)
 80015b0:	2200      	movs	r2, #0
 80015b2:	f7ff f973 	bl	800089c <__aeabi_ddiv>
 80015b6:	4642      	mov	r2, r8
 80015b8:	464b      	mov	r3, r9
 80015ba:	f7fe fe8f 	bl	80002dc <__adddf3>
 80015be:	f006 06fb 	and.w	r6, r6, #251	@ 0xfb
 80015c2:	2e53      	cmp	r6, #83	@ 0x53
 80015c4:	bf04      	itt	eq
 80015c6:	4602      	moveq	r2, r0
 80015c8:	f101 4300 	addeq.w	r3, r1, #2147483648	@ 0x80000000
 80015cc:	4604      	mov	r4, r0
 80015ce:	460d      	mov	r5, r1
 80015d0:	bf04      	itt	eq
 80015d2:	4614      	moveq	r4, r2
 80015d4:	461d      	moveq	r5, r3
 80015d6:	4620      	mov	r0, r4
 80015d8:	a30f      	add	r3, pc, #60	@ (adr r3, 8001618 <parse_latlon_to_e7+0xb0>)
 80015da:	e9d3 2300 	ldrd	r2, r3, [r3]
 80015de:	4629      	mov	r1, r5
 80015e0:	f7ff f832 	bl	8000648 <__aeabi_dmul>
 80015e4:	2200      	movs	r2, #0
 80015e6:	2300      	movs	r3, #0
 80015e8:	4606      	mov	r6, r0
 80015ea:	460f      	mov	r7, r1
 80015ec:	4620      	mov	r0, r4
 80015ee:	4629      	mov	r1, r5
 80015f0:	f7ff fab0 	bl	8000b54 <__aeabi_dcmpge>
 80015f4:	4b0c      	ldr	r3, [pc, #48]	@ (8001628 <parse_latlon_to_e7+0xc0>)
 80015f6:	2200      	movs	r2, #0
 80015f8:	b138      	cbz	r0, 800160a <parse_latlon_to_e7+0xa2>
 80015fa:	4630      	mov	r0, r6
 80015fc:	4639      	mov	r1, r7
 80015fe:	f7fe fe6d 	bl	80002dc <__adddf3>
 8001602:	f7ff fabb 	bl	8000b7c <__aeabi_d2iz>
 8001606:	e8bd 83f8 	ldmia.w	sp!, {r3, r4, r5, r6, r7, r8, r9, pc}
 800160a:	4630      	mov	r0, r6
 800160c:	4639      	mov	r1, r7
 800160e:	f7fe fe63 	bl	80002d8 <__aeabi_dsub>
 8001612:	e7f6      	b.n	8001602 <parse_latlon_to_e7+0x9a>
 8001614:	4618      	mov	r0, r3
 8001616:	e7f6      	b.n	8001606 <parse_latlon_to_e7+0x9e>
 8001618:	00000000 	.word	0x00000000
 800161c:	416312d0 	.word	0x416312d0
 8001620:	40590000 	.word	0x40590000
 8001624:	404e0000 	.word	0x404e0000
 8001628:	3fe00000 	.word	0x3fe00000

0800162c <NEO6M_SendUbx.constprop.0>:
 800162c:	b570      	push	{r4, r5, r6, lr}
 800162e:	b088      	sub	sp, #32
 8001630:	f246 23b5 	movw	r3, #25269	@ 0x62b5
 8001634:	4615      	mov	r5, r2
 8001636:	f8ad 3000 	strh.w	r3, [sp]
 800163a:	2306      	movs	r3, #6
 800163c:	f88d 0003 	strb.w	r0, [sp, #3]
 8001640:	2400      	movs	r4, #0
 8001642:	eb0d 0003 	add.w	r0, sp, r3
 8001646:	1dae      	adds	r6, r5, #6
 8001648:	f88d 3002 	strb.w	r3, [sp, #2]
 800164c:	f88d 2004 	strb.w	r2, [sp, #4]
 8001650:	f88d 4005 	strb.w	r4, [sp, #5]
 8001654:	b2b6      	uxth	r6, r6
 8001656:	f006 fb40 	bl	8007cda <memcpy>
 800165a:	2202      	movs	r2, #2
 800165c:	4623      	mov	r3, r4
 800165e:	4669      	mov	r1, sp
 8001660:	5c50      	ldrb	r0, [r2, r1]
 8001662:	3201      	adds	r2, #1
 8001664:	4420      	add	r0, r4
 8001666:	fa53 f380 	uxtab	r3, r3, r0
 800166a:	b2c4      	uxtb	r4, r0
 800166c:	b290      	uxth	r0, r2
 800166e:	4286      	cmp	r6, r0
 8001670:	b2db      	uxtb	r3, r3
 8001672:	d8f5      	bhi.n	8001660 <NEO6M_SendUbx.constprop.0+0x34>
 8001674:	f105 0220 	add.w	r2, r5, #32
 8001678:	446a      	add	r2, sp
 800167a:	4808      	ldr	r0, [pc, #32]	@ (800169c <NEO6M_SendUbx.constprop.0+0x70>)
 800167c:	f802 4c1a 	strb.w	r4, [r2, #-26]
 8001680:	f802 3c19 	strb.w	r3, [r2, #-25]
 8001684:	f105 0208 	add.w	r2, r5, #8
 8001688:	2364      	movs	r3, #100	@ 0x64
 800168a:	b292      	uxth	r2, r2
 800168c:	f005 f956 	bl	800693c <HAL_UART_Transmit>
 8001690:	3800      	subs	r0, #0
 8001692:	bf18      	it	ne
 8001694:	2001      	movne	r0, #1
 8001696:	b008      	add	sp, #32
 8001698:	bd70      	pop	{r4, r5, r6, pc}
 800169a:	bf00      	nop
 800169c:	200006e4 	.word	0x200006e4

080016a0 <split_csv.constprop.0>:
 80016a0:	b570      	push	{r4, r5, r6, lr}
 80016a2:	2400      	movs	r4, #0
 80016a4:	1f0d      	subs	r5, r1, #4
 80016a6:	4626      	mov	r6, r4
 80016a8:	f845 0f04 	str.w	r0, [r5, #4]!
 80016ac:	212c      	movs	r1, #44	@ 0x2c
 80016ae:	3401      	adds	r4, #1
 80016b0:	f006 fab4 	bl	8007c1c <strchr>
 80016b4:	b118      	cbz	r0, 80016be <split_csv.constprop.0+0x1e>
 80016b6:	2c10      	cmp	r4, #16
 80016b8:	f800 6b01 	strb.w	r6, [r0], #1
 80016bc:	d1f4      	bne.n	80016a8 <split_csv.constprop.0+0x8>
 80016be:	4620      	mov	r0, r4
 80016c0:	bd70      	pop	{r4, r5, r6, pc}
	...

080016c4 <NEO6M_App_Init>:
 80016c4:	e92d 41f3 	stmdb	sp!, {r0, r1, r4, r5, r6, r7, r8, lr}
 80016c8:	221c      	movs	r2, #28
 80016ca:	2100      	movs	r1, #0
 80016cc:	482b      	ldr	r0, [pc, #172]	@ (800177c <NEO6M_App_Init+0xb8>)
 80016ce:	4d2c      	ldr	r5, [pc, #176]	@ (8001780 <NEO6M_App_Init+0xbc>)
 80016d0:	f006 fa9c 	bl	8007c0c <memset>
 80016d4:	2280      	movs	r2, #128	@ 0x80
 80016d6:	2100      	movs	r1, #0
 80016d8:	482a      	ldr	r0, [pc, #168]	@ (8001784 <NEO6M_App_Init+0xc0>)
 80016da:	f006 fa97 	bl	8007c0c <memset>
 80016de:	f44f 7200 	mov.w	r2, #512	@ 0x200
 80016e2:	4829      	ldr	r0, [pc, #164]	@ (8001788 <NEO6M_App_Init+0xc4>)
 80016e4:	2100      	movs	r1, #0
 80016e6:	f006 fa91 	bl	8007c0c <memset>
 80016ea:	4a28      	ldr	r2, [pc, #160]	@ (800178c <NEO6M_App_Init+0xc8>)
 80016ec:	2300      	movs	r3, #0
 80016ee:	8013      	strh	r3, [r2, #0]
 80016f0:	4a27      	ldr	r2, [pc, #156]	@ (8001790 <NEO6M_App_Init+0xcc>)
 80016f2:	8013      	strh	r3, [r2, #0]
 80016f4:	4a27      	ldr	r2, [pc, #156]	@ (8001794 <NEO6M_App_Init+0xd0>)
 80016f6:	8013      	strh	r3, [r2, #0]
 80016f8:	4a27      	ldr	r2, [pc, #156]	@ (8001798 <NEO6M_App_Init+0xd4>)
 80016fa:	7013      	strb	r3, [r2, #0]
 80016fc:	4a27      	ldr	r2, [pc, #156]	@ (800179c <NEO6M_App_Init+0xd8>)
 80016fe:	7013      	strb	r3, [r2, #0]
 8001700:	4a27      	ldr	r2, [pc, #156]	@ (80017a0 <NEO6M_App_Init+0xdc>)
 8001702:	6013      	str	r3, [r2, #0]
 8001704:	702b      	strb	r3, [r5, #0]
 8001706:	f7ff ff0d 	bl	8001524 <NEO6M_RestartRxIT>
 800170a:	b120      	cbz	r0, 8001716 <NEO6M_App_Init+0x52>
 800170c:	2601      	movs	r6, #1
 800170e:	4630      	mov	r0, r6
 8001710:	b002      	add	sp, #8
 8001712:	e8bd 81f0 	ldmia.w	sp!, {r4, r5, r6, r7, r8, pc}
 8001716:	4923      	ldr	r1, [pc, #140]	@ (80017a4 <NEO6M_App_Init+0xe0>)
 8001718:	2202      	movs	r2, #2
 800171a:	2011      	movs	r0, #17
 800171c:	f7ff ff86 	bl	800162c <NEO6M_SendUbx.constprop.0>
 8001720:	2800      	cmp	r0, #0
 8001722:	d1f3      	bne.n	800170c <NEO6M_App_Init+0x48>
 8001724:	2014      	movs	r0, #20
 8001726:	f002 ff73 	bl	8004610 <HAL_Delay>
 800172a:	491f      	ldr	r1, [pc, #124]	@ (80017a8 <NEO6M_App_Init+0xe4>)
 800172c:	2206      	movs	r2, #6
 800172e:	2008      	movs	r0, #8
 8001730:	f7ff ff7c 	bl	800162c <NEO6M_SendUbx.constprop.0>
 8001734:	4604      	mov	r4, r0
 8001736:	2800      	cmp	r0, #0
 8001738:	d1e8      	bne.n	800170c <NEO6M_App_Init+0x48>
 800173a:	2014      	movs	r0, #20
 800173c:	f002 ff68 	bl	8004610 <HAL_Delay>
 8001740:	4f1a      	ldr	r7, [pc, #104]	@ (80017ac <NEO6M_App_Init+0xe8>)
 8001742:	f04f 08f0 	mov.w	r8, #240	@ 0xf0
 8001746:	783a      	ldrb	r2, [r7, #0]
 8001748:	787b      	ldrb	r3, [r7, #1]
 800174a:	f88d 2005 	strb.w	r2, [sp, #5]
 800174e:	a901      	add	r1, sp, #4
 8001750:	2203      	movs	r2, #3
 8001752:	2001      	movs	r0, #1
 8001754:	f88d 8004 	strb.w	r8, [sp, #4]
 8001758:	f88d 3006 	strb.w	r3, [sp, #6]
 800175c:	f7ff ff66 	bl	800162c <NEO6M_SendUbx.constprop.0>
 8001760:	4606      	mov	r6, r0
 8001762:	2800      	cmp	r0, #0
 8001764:	d1d2      	bne.n	800170c <NEO6M_App_Init+0x48>
 8001766:	200a      	movs	r0, #10
 8001768:	3401      	adds	r4, #1
 800176a:	f002 ff51 	bl	8004610 <HAL_Delay>
 800176e:	2c0d      	cmp	r4, #13
 8001770:	f107 0702 	add.w	r7, r7, #2
 8001774:	d1e7      	bne.n	8001746 <NEO6M_App_Init+0x82>
 8001776:	2301      	movs	r3, #1
 8001778:	702b      	strb	r3, [r5, #0]
 800177a:	e7c8      	b.n	800170e <NEO6M_App_Init+0x4a>
 800177c:	200002e8 	.word	0x200002e8
 8001780:	20000309 	.word	0x20000309
 8001784:	20000512 	.word	0x20000512
 8001788:	20000310 	.word	0x20000310
 800178c:	20000510 	.word	0x20000510
 8001790:	2000030e 	.word	0x2000030e
 8001794:	2000030c 	.word	0x2000030c
 8001798:	2000030a 	.word	0x2000030a
 800179c:	20000308 	.word	0x20000308
 80017a0:	20000304 	.word	0x20000304
 80017a4:	0800a56c 	.word	0x0800a56c
 80017a8:	0800a566 	.word	0x0800a566
 80017ac:	0800a54c 	.word	0x0800a54c

080017b0 <NEO6M_App_ReadLatest>:
 80017b0:	b570      	push	{r4, r5, r6, lr}
 80017b2:	4603      	mov	r3, r0
 80017b4:	b1b8      	cbz	r0, 80017e6 <NEO6M_App_ReadLatest+0x36>
 80017b6:	4a0d      	ldr	r2, [pc, #52]	@ (80017ec <NEO6M_App_ReadLatest+0x3c>)
 80017b8:	7812      	ldrb	r2, [r2, #0]
 80017ba:	b1a2      	cbz	r2, 80017e6 <NEO6M_App_ReadLatest+0x36>
 80017bc:	f3ef 8510 	mrs	r5, PRIMASK
 80017c0:	b672      	cpsid	i
 80017c2:	4a0b      	ldr	r2, [pc, #44]	@ (80017f0 <NEO6M_App_ReadLatest+0x40>)
 80017c4:	f102 0618 	add.w	r6, r2, #24
 80017c8:	4614      	mov	r4, r2
 80017ca:	cc03      	ldmia	r4!, {r0, r1}
 80017cc:	42b4      	cmp	r4, r6
 80017ce:	6018      	str	r0, [r3, #0]
 80017d0:	6059      	str	r1, [r3, #4]
 80017d2:	4622      	mov	r2, r4
 80017d4:	f103 0308 	add.w	r3, r3, #8
 80017d8:	d1f6      	bne.n	80017c8 <NEO6M_App_ReadLatest+0x18>
 80017da:	6820      	ldr	r0, [r4, #0]
 80017dc:	6018      	str	r0, [r3, #0]
 80017de:	b905      	cbnz	r5, 80017e2 <NEO6M_App_ReadLatest+0x32>
 80017e0:	b662      	cpsie	i
 80017e2:	2000      	movs	r0, #0
 80017e4:	bd70      	pop	{r4, r5, r6, pc}
 80017e6:	2001      	movs	r0, #1
 80017e8:	e7fc      	b.n	80017e4 <NEO6M_App_ReadLatest+0x34>
 80017ea:	bf00      	nop
 80017ec:	20000309 	.word	0x20000309
 80017f0:	200002e8 	.word	0x200002e8

080017f4 <NEO6M_App_HasNewData>:
 80017f4:	4b01      	ldr	r3, [pc, #4]	@ (80017fc <NEO6M_App_HasNewData+0x8>)
 80017f6:	7818      	ldrb	r0, [r3, #0]
 80017f8:	4770      	bx	lr
 80017fa:	bf00      	nop
 80017fc:	20000308 	.word	0x20000308

08001800 <NEO6M_App_ClearNewData>:
 8001800:	4b01      	ldr	r3, [pc, #4]	@ (8001808 <NEO6M_App_ClearNewData+0x8>)
 8001802:	2200      	movs	r2, #0
 8001804:	701a      	strb	r2, [r3, #0]
 8001806:	4770      	bx	lr
 8001808:	20000308 	.word	0x20000308
 800180c:	00000000 	.word	0x00000000

08001810 <NEO6M_App_Process>:
 8001810:	e92d 4ff0 	stmdb	sp!, {r4, r5, r6, r7, r8, r9, sl, fp, lr}
 8001814:	4b21      	ldr	r3, [pc, #132]	@ (800189c <NEO6M_App_Process+0x8c>)
 8001816:	781b      	ldrb	r3, [r3, #0]
 8001818:	b0b3      	sub	sp, #204	@ 0xcc
 800181a:	2b00      	cmp	r3, #0
 800181c:	f000 8267 	beq.w	8001cee <NEO6M_App_Process+0x4de>
 8001820:	4a1f      	ldr	r2, [pc, #124]	@ (80018a0 <NEO6M_App_Process+0x90>)
 8001822:	f8df 9090 	ldr.w	r9, [pc, #144]	@ 80018b4 <NEO6M_App_Process+0xa4>
 8001826:	7813      	ldrb	r3, [r2, #0]
 8001828:	b16b      	cbz	r3, 8001846 <NEO6M_App_Process+0x36>
 800182a:	f3ef 8110 	mrs	r1, PRIMASK
 800182e:	b672      	cpsid	i
 8001830:	4b1c      	ldr	r3, [pc, #112]	@ (80018a4 <NEO6M_App_Process+0x94>)
 8001832:	881b      	ldrh	r3, [r3, #0]
 8001834:	b29b      	uxth	r3, r3
 8001836:	f8a9 3000 	strh.w	r3, [r9]
 800183a:	2300      	movs	r3, #0
 800183c:	7013      	strb	r3, [r2, #0]
 800183e:	b901      	cbnz	r1, 8001842 <NEO6M_App_Process+0x32>
 8001840:	b662      	cpsie	i
 8001842:	4a19      	ldr	r2, [pc, #100]	@ (80018a8 <NEO6M_App_Process+0x98>)
 8001844:	8013      	strh	r3, [r2, #0]
 8001846:	f8df a060 	ldr.w	sl, [pc, #96]	@ 80018a8 <NEO6M_App_Process+0x98>
 800184a:	e006      	b.n	800185a <NEO6M_App_Process+0x4a>
 800184c:	2a24      	cmp	r2, #36	@ 0x24
 800184e:	d133      	bne.n	80018b8 <NEO6M_App_Process+0xa8>
 8001850:	2301      	movs	r3, #1
 8001852:	f8aa 3000 	strh.w	r3, [sl]
 8001856:	4b15      	ldr	r3, [pc, #84]	@ (80018ac <NEO6M_App_Process+0x9c>)
 8001858:	701a      	strb	r2, [r3, #0]
 800185a:	f3ef 8110 	mrs	r1, PRIMASK
 800185e:	b672      	cpsid	i
 8001860:	4b10      	ldr	r3, [pc, #64]	@ (80018a4 <NEO6M_App_Process+0x94>)
 8001862:	881a      	ldrh	r2, [r3, #0]
 8001864:	f8b9 3000 	ldrh.w	r3, [r9]
 8001868:	b292      	uxth	r2, r2
 800186a:	b29b      	uxth	r3, r3
 800186c:	429a      	cmp	r2, r3
 800186e:	f000 822f 	beq.w	8001cd0 <NEO6M_App_Process+0x4c0>
 8001872:	f8b9 3000 	ldrh.w	r3, [r9]
 8001876:	4a0e      	ldr	r2, [pc, #56]	@ (80018b0 <NEO6M_App_Process+0xa0>)
 8001878:	b29b      	uxth	r3, r3
 800187a:	5cd2      	ldrb	r2, [r2, r3]
 800187c:	f8b9 3000 	ldrh.w	r3, [r9]
 8001880:	3301      	adds	r3, #1
 8001882:	b29b      	uxth	r3, r3
 8001884:	f5b3 7f00 	cmp.w	r3, #512	@ 0x200
 8001888:	bf28      	it	cs
 800188a:	2300      	movcs	r3, #0
 800188c:	b2d2      	uxtb	r2, r2
 800188e:	f8a9 3000 	strh.w	r3, [r9]
 8001892:	2900      	cmp	r1, #0
 8001894:	d1da      	bne.n	800184c <NEO6M_App_Process+0x3c>
 8001896:	b662      	cpsie	i
 8001898:	e7d8      	b.n	800184c <NEO6M_App_Process+0x3c>
 800189a:	bf00      	nop
 800189c:	20000309 	.word	0x20000309
 80018a0:	2000030a 	.word	0x2000030a
 80018a4:	2000030e 	.word	0x2000030e
 80018a8:	20000510 	.word	0x20000510
 80018ac:	20000512 	.word	0x20000512
 80018b0:	20000310 	.word	0x20000310
 80018b4:	2000030c 	.word	0x2000030c
 80018b8:	2a0a      	cmp	r2, #10
 80018ba:	f040 81fa 	bne.w	8001cb2 <NEO6M_App_Process+0x4a2>
 80018be:	f8ba 3000 	ldrh.w	r3, [sl]
 80018c2:	1e5a      	subs	r2, r3, #1
 80018c4:	2a7e      	cmp	r2, #126	@ 0x7e
 80018c6:	f200 812b 	bhi.w	8001b20 <NEO6M_App_Process+0x310>
 80018ca:	4ca5      	ldr	r4, [pc, #660]	@ (8001b60 <NEO6M_App_Process+0x350>)
 80018cc:	2500      	movs	r5, #0
 80018ce:	54e5      	strb	r5, [r4, r3]
 80018d0:	7823      	ldrb	r3, [r4, #0]
 80018d2:	2b24      	cmp	r3, #36	@ 0x24
 80018d4:	f040 8124 	bne.w	8001b20 <NEO6M_App_Process+0x310>
 80018d8:	212a      	movs	r1, #42	@ 0x2a
 80018da:	4620      	mov	r0, r4
 80018dc:	f006 f99e 	bl	8007c1c <strchr>
 80018e0:	4603      	mov	r3, r0
 80018e2:	2800      	cmp	r0, #0
 80018e4:	f000 811c 	beq.w	8001b20 <NEO6M_App_Process+0x310>
 80018e8:	1b02      	subs	r2, r0, r4
 80018ea:	42aa      	cmp	r2, r5
 80018ec:	f340 8118 	ble.w	8001b20 <NEO6M_App_Process+0x310>
 80018f0:	7840      	ldrb	r0, [r0, #1]
 80018f2:	2800      	cmp	r0, #0
 80018f4:	f000 8114 	beq.w	8001b20 <NEO6M_App_Process+0x310>
 80018f8:	789e      	ldrb	r6, [r3, #2]
 80018fa:	2e00      	cmp	r6, #0
 80018fc:	f000 8110 	beq.w	8001b20 <NEO6M_App_Process+0x310>
 8001900:	3401      	adds	r4, #1
 8001902:	42a3      	cmp	r3, r4
 8001904:	f200 8110 	bhi.w	8001b28 <NEO6M_App_Process+0x318>
 8001908:	f7ff fe16 	bl	8001538 <hex_to_int>
 800190c:	4604      	mov	r4, r0
 800190e:	4630      	mov	r0, r6
 8001910:	f7ff fe12 	bl	8001538 <hex_to_int>
 8001914:	1c62      	adds	r2, r4, #1
 8001916:	f000 8103 	beq.w	8001b20 <NEO6M_App_Process+0x310>
 800191a:	1c43      	adds	r3, r0, #1
 800191c:	f000 8100 	beq.w	8001b20 <NEO6M_App_Process+0x310>
 8001920:	ea40 1004 	orr.w	r0, r0, r4, lsl #4
 8001924:	b2c0      	uxtb	r0, r0
 8001926:	4285      	cmp	r5, r0
 8001928:	f040 80fa 	bne.w	8001b20 <NEO6M_App_Process+0x310>
 800192c:	498d      	ldr	r1, [pc, #564]	@ (8001b64 <NEO6M_App_Process+0x354>)
 800192e:	2400      	movs	r4, #0
 8001930:	227f      	movs	r2, #127	@ 0x7f
 8001932:	a812      	add	r0, sp, #72	@ 0x48
 8001934:	f88d 40c7 	strb.w	r4, [sp, #199]	@ 0xc7
 8001938:	f006 f98f 	bl	8007c5a <strncpy>
 800193c:	212a      	movs	r1, #42	@ 0x2a
 800193e:	a812      	add	r0, sp, #72	@ 0x48
 8001940:	f006 f96c 	bl	8007c1c <strchr>
 8001944:	2800      	cmp	r0, #0
 8001946:	f000 80eb 	beq.w	8001b20 <NEO6M_App_Process+0x310>
 800194a:	7004      	strb	r4, [r0, #0]
 800194c:	4986      	ldr	r1, [pc, #536]	@ (8001b68 <NEO6M_App_Process+0x358>)
 800194e:	2205      	movs	r2, #5
 8001950:	a812      	add	r0, sp, #72	@ 0x48
 8001952:	f006 f970 	bl	8007c36 <strncmp>
 8001956:	b138      	cbz	r0, 8001968 <NEO6M_App_Process+0x158>
 8001958:	4984      	ldr	r1, [pc, #528]	@ (8001b6c <NEO6M_App_Process+0x35c>)
 800195a:	2205      	movs	r2, #5
 800195c:	a812      	add	r0, sp, #72	@ 0x48
 800195e:	f006 f96a 	bl	8007c36 <strncmp>
 8001962:	2800      	cmp	r0, #0
 8001964:	f040 810e 	bne.w	8001b84 <NEO6M_App_Process+0x374>
 8001968:	2240      	movs	r2, #64	@ 0x40
 800196a:	2100      	movs	r1, #0
 800196c:	a802      	add	r0, sp, #8
 800196e:	f006 f94d 	bl	8007c0c <memset>
 8001972:	a902      	add	r1, sp, #8
 8001974:	a812      	add	r0, sp, #72	@ 0x48
 8001976:	f7ff fe93 	bl	80016a0 <split_csv.constprop.0>
 800197a:	2809      	cmp	r0, #9
 800197c:	f340 80d0 	ble.w	8001b20 <NEO6M_App_Process+0x310>
 8001980:	9a04      	ldr	r2, [sp, #16]
 8001982:	4c7b      	ldr	r4, [pc, #492]	@ (8001b70 <NEO6M_App_Process+0x360>)
 8001984:	7812      	ldrb	r2, [r2, #0]
 8001986:	f8dd 800c 	ldr.w	r8, [sp, #12]
 800198a:	9d0b      	ldr	r5, [sp, #44]	@ 0x2c
 800198c:	f1a2 0c41 	sub.w	ip, r2, #65	@ 0x41
 8001990:	e9dd 0105 	ldrd	r0, r1, [sp, #20]
 8001994:	f1dc 0200 	rsbs	r2, ip, #0
 8001998:	eb42 020c 	adc.w	r2, r2, ip
 800199c:	75e2      	strb	r2, [r4, #23]
 800199e:	7802      	ldrb	r2, [r0, #0]
 80019a0:	e9dd 7307 	ldrd	r7, r3, [sp, #28]
 80019a4:	e9dd 6b09 	ldrd	r6, fp, [sp, #36]	@ 0x24
 80019a8:	b132      	cbz	r2, 80019b8 <NEO6M_App_Process+0x1a8>
 80019aa:	7809      	ldrb	r1, [r1, #0]
 80019ac:	b121      	cbz	r1, 80019b8 <NEO6M_App_Process+0x1a8>
 80019ae:	9301      	str	r3, [sp, #4]
 80019b0:	f7ff fdda 	bl	8001568 <parse_latlon_to_e7>
 80019b4:	9b01      	ldr	r3, [sp, #4]
 80019b6:	6020      	str	r0, [r4, #0]
 80019b8:	783a      	ldrb	r2, [r7, #0]
 80019ba:	b12a      	cbz	r2, 80019c8 <NEO6M_App_Process+0x1b8>
 80019bc:	7819      	ldrb	r1, [r3, #0]
 80019be:	b119      	cbz	r1, 80019c8 <NEO6M_App_Process+0x1b8>
 80019c0:	4638      	mov	r0, r7
 80019c2:	f7ff fdd1 	bl	8001568 <parse_latlon_to_e7>
 80019c6:	6060      	str	r0, [r4, #4]
 80019c8:	2e00      	cmp	r6, #0
 80019ca:	f000 80b7 	beq.w	8001b3c <NEO6M_App_Process+0x32c>
 80019ce:	7830      	ldrb	r0, [r6, #0]
 80019d0:	b350      	cbz	r0, 8001a28 <NEO6M_App_Process+0x218>
 80019d2:	4630      	mov	r0, r6
 80019d4:	f005 f9c4 	bl	8006d60 <atof>
 80019d8:	a35d      	add	r3, pc, #372	@ (adr r3, 8001b50 <NEO6M_App_Process+0x340>)
 80019da:	e9d3 2300 	ldrd	r2, r3, [r3]
 80019de:	ec51 0b10 	vmov	r0, r1, d0
 80019e2:	f7fe fe31 	bl	8000648 <__aeabi_dmul>
 80019e6:	4b63      	ldr	r3, [pc, #396]	@ (8001b74 <NEO6M_App_Process+0x364>)
 80019e8:	2200      	movs	r2, #0
 80019ea:	f7fe fe2d 	bl	8000648 <__aeabi_dmul>
 80019ee:	2200      	movs	r2, #0
 80019f0:	2300      	movs	r3, #0
 80019f2:	4606      	mov	r6, r0
 80019f4:	460f      	mov	r7, r1
 80019f6:	f7ff f899 	bl	8000b2c <__aeabi_dcmplt>
 80019fa:	2800      	cmp	r0, #0
 80019fc:	f040 809b 	bne.w	8001b36 <NEO6M_App_Process+0x326>
 8001a00:	a355      	add	r3, pc, #340	@ (adr r3, 8001b58 <NEO6M_App_Process+0x348>)
 8001a02:	e9d3 2300 	ldrd	r2, r3, [r3]
 8001a06:	4630      	mov	r0, r6
 8001a08:	4639      	mov	r1, r7
 8001a0a:	f7ff f8ad 	bl	8000b68 <__aeabi_dcmpgt>
 8001a0e:	2800      	cmp	r0, #0
 8001a10:	f000 808e 	beq.w	8001b30 <NEO6M_App_Process+0x320>
 8001a14:	a150      	add	r1, pc, #320	@ (adr r1, 8001b58 <NEO6M_App_Process+0x348>)
 8001a16:	e9d1 0100 	ldrd	r0, r1, [r1]
 8001a1a:	4b57      	ldr	r3, [pc, #348]	@ (8001b78 <NEO6M_App_Process+0x368>)
 8001a1c:	2200      	movs	r2, #0
 8001a1e:	f7fe fc5d 	bl	80002dc <__adddf3>
 8001a22:	f7ff f8d3 	bl	8000bcc <__aeabi_d2uiz>
 8001a26:	b280      	uxth	r0, r0
 8001a28:	8160      	strh	r0, [r4, #10]
 8001a2a:	f1bb 0f00 	cmp.w	fp, #0
 8001a2e:	f000 808d 	beq.w	8001b4c <NEO6M_App_Process+0x33c>
 8001a32:	f89b 0000 	ldrb.w	r0, [fp]
 8001a36:	b318      	cbz	r0, 8001a80 <NEO6M_App_Process+0x270>
 8001a38:	4658      	mov	r0, fp
 8001a3a:	f005 f991 	bl	8006d60 <atof>
 8001a3e:	4b4d      	ldr	r3, [pc, #308]	@ (8001b74 <NEO6M_App_Process+0x364>)
 8001a40:	2200      	movs	r2, #0
 8001a42:	ec51 0b10 	vmov	r0, r1, d0
 8001a46:	f7fe fdff 	bl	8000648 <__aeabi_dmul>
 8001a4a:	2200      	movs	r2, #0
 8001a4c:	2300      	movs	r3, #0
 8001a4e:	4606      	mov	r6, r0
 8001a50:	460f      	mov	r7, r1
 8001a52:	f7ff f86b 	bl	8000b2c <__aeabi_dcmplt>
 8001a56:	2800      	cmp	r0, #0
 8001a58:	d175      	bne.n	8001b46 <NEO6M_App_Process+0x336>
 8001a5a:	a33f      	add	r3, pc, #252	@ (adr r3, 8001b58 <NEO6M_App_Process+0x348>)
 8001a5c:	e9d3 2300 	ldrd	r2, r3, [r3]
 8001a60:	4630      	mov	r0, r6
 8001a62:	4639      	mov	r1, r7
 8001a64:	f7ff f880 	bl	8000b68 <__aeabi_dcmpgt>
 8001a68:	2800      	cmp	r0, #0
 8001a6a:	d069      	beq.n	8001b40 <NEO6M_App_Process+0x330>
 8001a6c:	a13a      	add	r1, pc, #232	@ (adr r1, 8001b58 <NEO6M_App_Process+0x348>)
 8001a6e:	e9d1 0100 	ldrd	r0, r1, [r1]
 8001a72:	4b41      	ldr	r3, [pc, #260]	@ (8001b78 <NEO6M_App_Process+0x368>)
 8001a74:	2200      	movs	r2, #0
 8001a76:	f7fe fc31 	bl	80002dc <__adddf3>
 8001a7a:	f7ff f8a7 	bl	8000bcc <__aeabi_d2uiz>
 8001a7e:	b280      	uxth	r0, r0
 8001a80:	81a0      	strh	r0, [r4, #12]
 8001a82:	4640      	mov	r0, r8
 8001a84:	f7fe fbcc 	bl	8000220 <strlen>
 8001a88:	2805      	cmp	r0, #5
 8001a8a:	d920      	bls.n	8001ace <NEO6M_App_Process+0x2be>
 8001a8c:	f898 3000 	ldrb.w	r3, [r8]
 8001a90:	f898 2001 	ldrb.w	r2, [r8, #1]
 8001a94:	3b30      	subs	r3, #48	@ 0x30
 8001a96:	3a30      	subs	r2, #48	@ 0x30
 8001a98:	eb03 0383 	add.w	r3, r3, r3, lsl #2
 8001a9c:	eb02 0343 	add.w	r3, r2, r3, lsl #1
 8001aa0:	7523      	strb	r3, [r4, #20]
 8001aa2:	f898 3002 	ldrb.w	r3, [r8, #2]
 8001aa6:	f898 2003 	ldrb.w	r2, [r8, #3]
 8001aaa:	3b30      	subs	r3, #48	@ 0x30
 8001aac:	3a30      	subs	r2, #48	@ 0x30
 8001aae:	eb03 0383 	add.w	r3, r3, r3, lsl #2
 8001ab2:	eb02 0343 	add.w	r3, r2, r3, lsl #1
 8001ab6:	7563      	strb	r3, [r4, #21]
 8001ab8:	f898 3004 	ldrb.w	r3, [r8, #4]
 8001abc:	f898 2005 	ldrb.w	r2, [r8, #5]
 8001ac0:	3b30      	subs	r3, #48	@ 0x30
 8001ac2:	eb03 0383 	add.w	r3, r3, r3, lsl #2
 8001ac6:	3a30      	subs	r2, #48	@ 0x30
 8001ac8:	eb02 0343 	add.w	r3, r2, r3, lsl #1
 8001acc:	75a3      	strb	r3, [r4, #22]
 8001ace:	4628      	mov	r0, r5
 8001ad0:	f7fe fba6 	bl	8000220 <strlen>
 8001ad4:	2805      	cmp	r0, #5
 8001ad6:	d91b      	bls.n	8001b10 <NEO6M_App_Process+0x300>
 8001ad8:	782b      	ldrb	r3, [r5, #0]
 8001ada:	786a      	ldrb	r2, [r5, #1]
 8001adc:	3b30      	subs	r3, #48	@ 0x30
 8001ade:	3a30      	subs	r2, #48	@ 0x30
 8001ae0:	eb03 0383 	add.w	r3, r3, r3, lsl #2
 8001ae4:	eb02 0343 	add.w	r3, r2, r3, lsl #1
 8001ae8:	74e3      	strb	r3, [r4, #19]
 8001aea:	78ab      	ldrb	r3, [r5, #2]
 8001aec:	78ea      	ldrb	r2, [r5, #3]
 8001aee:	3b30      	subs	r3, #48	@ 0x30
 8001af0:	3a30      	subs	r2, #48	@ 0x30
 8001af2:	eb03 0383 	add.w	r3, r3, r3, lsl #2
 8001af6:	eb02 0343 	add.w	r3, r2, r3, lsl #1
 8001afa:	74a3      	strb	r3, [r4, #18]
 8001afc:	792b      	ldrb	r3, [r5, #4]
 8001afe:	796a      	ldrb	r2, [r5, #5]
 8001b00:	3b30      	subs	r3, #48	@ 0x30
 8001b02:	eb03 0383 	add.w	r3, r3, r3, lsl #2
 8001b06:	f502 62f4 	add.w	r2, r2, #1952	@ 0x7a0
 8001b0a:	eb02 0343 	add.w	r3, r2, r3, lsl #1
 8001b0e:	8223      	strh	r3, [r4, #16]
 8001b10:	2301      	movs	r3, #1
 8001b12:	76a3      	strb	r3, [r4, #26]
 8001b14:	4a19      	ldr	r2, [pc, #100]	@ (8001b7c <NEO6M_App_Process+0x36c>)
 8001b16:	7013      	strb	r3, [r2, #0]
 8001b18:	f002 fd74 	bl	8004604 <HAL_GetTick>
 8001b1c:	4b18      	ldr	r3, [pc, #96]	@ (8001b80 <NEO6M_App_Process+0x370>)
 8001b1e:	6018      	str	r0, [r3, #0]
 8001b20:	2300      	movs	r3, #0
 8001b22:	f8aa 3000 	strh.w	r3, [sl]
 8001b26:	e698      	b.n	800185a <NEO6M_App_Process+0x4a>
 8001b28:	f814 2b01 	ldrb.w	r2, [r4], #1
 8001b2c:	4055      	eors	r5, r2
 8001b2e:	e6e8      	b.n	8001902 <NEO6M_App_Process+0xf2>
 8001b30:	4630      	mov	r0, r6
 8001b32:	4639      	mov	r1, r7
 8001b34:	e771      	b.n	8001a1a <NEO6M_App_Process+0x20a>
 8001b36:	2000      	movs	r0, #0
 8001b38:	2100      	movs	r1, #0
 8001b3a:	e76e      	b.n	8001a1a <NEO6M_App_Process+0x20a>
 8001b3c:	4630      	mov	r0, r6
 8001b3e:	e773      	b.n	8001a28 <NEO6M_App_Process+0x218>
 8001b40:	4630      	mov	r0, r6
 8001b42:	4639      	mov	r1, r7
 8001b44:	e795      	b.n	8001a72 <NEO6M_App_Process+0x262>
 8001b46:	2000      	movs	r0, #0
 8001b48:	2100      	movs	r1, #0
 8001b4a:	e792      	b.n	8001a72 <NEO6M_App_Process+0x262>
 8001b4c:	4658      	mov	r0, fp
 8001b4e:	e797      	b.n	8001a80 <NEO6M_App_Process+0x270>
 8001b50:	c083126f 	.word	0xc083126f
 8001b54:	3ffda1ca 	.word	0x3ffda1ca
 8001b58:	00000000 	.word	0x00000000
 8001b5c:	40efffe0 	.word	0x40efffe0
 8001b60:	20000512 	.word	0x20000512
 8001b64:	20000513 	.word	0x20000513
 8001b68:	0800a3d0 	.word	0x0800a3d0
 8001b6c:	0800a3d6 	.word	0x0800a3d6
 8001b70:	200002e8 	.word	0x200002e8
 8001b74:	40590000 	.word	0x40590000
 8001b78:	3fe00000 	.word	0x3fe00000
 8001b7c:	20000308 	.word	0x20000308
 8001b80:	20000304 	.word	0x20000304
 8001b84:	4960      	ldr	r1, [pc, #384]	@ (8001d08 <NEO6M_App_Process+0x4f8>)
 8001b86:	2205      	movs	r2, #5
 8001b88:	a812      	add	r0, sp, #72	@ 0x48
 8001b8a:	f006 f854 	bl	8007c36 <strncmp>
 8001b8e:	b130      	cbz	r0, 8001b9e <NEO6M_App_Process+0x38e>
 8001b90:	495e      	ldr	r1, [pc, #376]	@ (8001d0c <NEO6M_App_Process+0x4fc>)
 8001b92:	2205      	movs	r2, #5
 8001b94:	a812      	add	r0, sp, #72	@ 0x48
 8001b96:	f006 f84e 	bl	8007c36 <strncmp>
 8001b9a:	2800      	cmp	r0, #0
 8001b9c:	d1c0      	bne.n	8001b20 <NEO6M_App_Process+0x310>
 8001b9e:	2240      	movs	r2, #64	@ 0x40
 8001ba0:	2100      	movs	r1, #0
 8001ba2:	a802      	add	r0, sp, #8
 8001ba4:	f006 f832 	bl	8007c0c <memset>
 8001ba8:	a902      	add	r1, sp, #8
 8001baa:	a812      	add	r0, sp, #72	@ 0x48
 8001bac:	f7ff fd78 	bl	80016a0 <split_csv.constprop.0>
 8001bb0:	2809      	cmp	r0, #9
 8001bb2:	ddb5      	ble.n	8001b20 <NEO6M_App_Process+0x310>
 8001bb4:	9808      	ldr	r0, [sp, #32]
 8001bb6:	9f0b      	ldr	r7, [sp, #44]	@ 0x2c
 8001bb8:	4e55      	ldr	r6, [pc, #340]	@ (8001d10 <NEO6M_App_Process+0x500>)
 8001bba:	e9dd 4509 	ldrd	r4, r5, [sp, #36]	@ 0x24
 8001bbe:	f005 f8d2 	bl	8006d66 <atoi>
 8001bc2:	7630      	strb	r0, [r6, #24]
 8001bc4:	4620      	mov	r0, r4
 8001bc6:	f005 f8ce 	bl	8006d66 <atoi>
 8001bca:	7670      	strb	r0, [r6, #25]
 8001bcc:	2d00      	cmp	r5, #0
 8001bce:	d05f      	beq.n	8001c90 <NEO6M_App_Process+0x480>
 8001bd0:	7828      	ldrb	r0, [r5, #0]
 8001bd2:	b318      	cbz	r0, 8001c1c <NEO6M_App_Process+0x40c>
 8001bd4:	4628      	mov	r0, r5
 8001bd6:	f005 f8c3 	bl	8006d60 <atof>
 8001bda:	4b4e      	ldr	r3, [pc, #312]	@ (8001d14 <NEO6M_App_Process+0x504>)
 8001bdc:	2200      	movs	r2, #0
 8001bde:	ec51 0b10 	vmov	r0, r1, d0
 8001be2:	f7fe fd31 	bl	8000648 <__aeabi_dmul>
 8001be6:	2200      	movs	r2, #0
 8001be8:	2300      	movs	r3, #0
 8001bea:	4604      	mov	r4, r0
 8001bec:	460d      	mov	r5, r1
 8001bee:	f7fe ff9d 	bl	8000b2c <__aeabi_dcmplt>
 8001bf2:	2800      	cmp	r0, #0
 8001bf4:	d149      	bne.n	8001c8a <NEO6M_App_Process+0x47a>
 8001bf6:	a340      	add	r3, pc, #256	@ (adr r3, 8001cf8 <NEO6M_App_Process+0x4e8>)
 8001bf8:	e9d3 2300 	ldrd	r2, r3, [r3]
 8001bfc:	4620      	mov	r0, r4
 8001bfe:	4629      	mov	r1, r5
 8001c00:	f7fe ffb2 	bl	8000b68 <__aeabi_dcmpgt>
 8001c04:	2800      	cmp	r0, #0
 8001c06:	d03d      	beq.n	8001c84 <NEO6M_App_Process+0x474>
 8001c08:	a13b      	add	r1, pc, #236	@ (adr r1, 8001cf8 <NEO6M_App_Process+0x4e8>)
 8001c0a:	e9d1 0100 	ldrd	r0, r1, [r1]
 8001c0e:	4b42      	ldr	r3, [pc, #264]	@ (8001d18 <NEO6M_App_Process+0x508>)
 8001c10:	2200      	movs	r2, #0
 8001c12:	f7fe fb63 	bl	80002dc <__adddf3>
 8001c16:	f7fe ffd9 	bl	8000bcc <__aeabi_d2uiz>
 8001c1a:	b280      	uxth	r0, r0
 8001c1c:	81f0      	strh	r0, [r6, #14]
 8001c1e:	2f00      	cmp	r7, #0
 8001c20:	d045      	beq.n	8001cae <NEO6M_App_Process+0x49e>
 8001c22:	7838      	ldrb	r0, [r7, #0]
 8001c24:	b338      	cbz	r0, 8001c76 <NEO6M_App_Process+0x466>
 8001c26:	4638      	mov	r0, r7
 8001c28:	f005 f89a 	bl	8006d60 <atof>
 8001c2c:	4b39      	ldr	r3, [pc, #228]	@ (8001d14 <NEO6M_App_Process+0x504>)
 8001c2e:	2200      	movs	r2, #0
 8001c30:	ec51 0b10 	vmov	r0, r1, d0
 8001c34:	f7fe fd08 	bl	8000648 <__aeabi_dmul>
 8001c38:	a331      	add	r3, pc, #196	@ (adr r3, 8001d00 <NEO6M_App_Process+0x4f0>)
 8001c3a:	e9d3 2300 	ldrd	r2, r3, [r3]
 8001c3e:	4604      	mov	r4, r0
 8001c40:	460d      	mov	r5, r1
 8001c42:	f7fe ff91 	bl	8000b68 <__aeabi_dcmpgt>
 8001c46:	bb28      	cbnz	r0, 8001c94 <NEO6M_App_Process+0x484>
 8001c48:	4b34      	ldr	r3, [pc, #208]	@ (8001d1c <NEO6M_App_Process+0x50c>)
 8001c4a:	2200      	movs	r2, #0
 8001c4c:	4620      	mov	r0, r4
 8001c4e:	4629      	mov	r1, r5
 8001c50:	f7fe ff6c 	bl	8000b2c <__aeabi_dcmplt>
 8001c54:	bb10      	cbnz	r0, 8001c9c <NEO6M_App_Process+0x48c>
 8001c56:	2200      	movs	r2, #0
 8001c58:	2300      	movs	r3, #0
 8001c5a:	4620      	mov	r0, r4
 8001c5c:	4629      	mov	r1, r5
 8001c5e:	f7fe ff79 	bl	8000b54 <__aeabi_dcmpge>
 8001c62:	b1e8      	cbz	r0, 8001ca0 <NEO6M_App_Process+0x490>
 8001c64:	4b2c      	ldr	r3, [pc, #176]	@ (8001d18 <NEO6M_App_Process+0x508>)
 8001c66:	2200      	movs	r2, #0
 8001c68:	4620      	mov	r0, r4
 8001c6a:	4629      	mov	r1, r5
 8001c6c:	f7fe fb36 	bl	80002dc <__adddf3>
 8001c70:	f7fe ff84 	bl	8000b7c <__aeabi_d2iz>
 8001c74:	b200      	sxth	r0, r0
 8001c76:	7e33      	ldrb	r3, [r6, #24]
 8001c78:	8130      	strh	r0, [r6, #8]
 8001c7a:	b903      	cbnz	r3, 8001c7e <NEO6M_App_Process+0x46e>
 8001c7c:	75f3      	strb	r3, [r6, #23]
 8001c7e:	2301      	movs	r3, #1
 8001c80:	76b3      	strb	r3, [r6, #26]
 8001c82:	e747      	b.n	8001b14 <NEO6M_App_Process+0x304>
 8001c84:	4620      	mov	r0, r4
 8001c86:	4629      	mov	r1, r5
 8001c88:	e7c1      	b.n	8001c0e <NEO6M_App_Process+0x3fe>
 8001c8a:	2000      	movs	r0, #0
 8001c8c:	2100      	movs	r1, #0
 8001c8e:	e7be      	b.n	8001c0e <NEO6M_App_Process+0x3fe>
 8001c90:	4628      	mov	r0, r5
 8001c92:	e7c3      	b.n	8001c1c <NEO6M_App_Process+0x40c>
 8001c94:	a51a      	add	r5, pc, #104	@ (adr r5, 8001d00 <NEO6M_App_Process+0x4f0>)
 8001c96:	e9d5 4500 	ldrd	r4, r5, [r5]
 8001c9a:	e7e3      	b.n	8001c64 <NEO6M_App_Process+0x454>
 8001c9c:	4d1f      	ldr	r5, [pc, #124]	@ (8001d1c <NEO6M_App_Process+0x50c>)
 8001c9e:	2400      	movs	r4, #0
 8001ca0:	4b1d      	ldr	r3, [pc, #116]	@ (8001d18 <NEO6M_App_Process+0x508>)
 8001ca2:	2200      	movs	r2, #0
 8001ca4:	4620      	mov	r0, r4
 8001ca6:	4629      	mov	r1, r5
 8001ca8:	f7fe fb16 	bl	80002d8 <__aeabi_dsub>
 8001cac:	e7e0      	b.n	8001c70 <NEO6M_App_Process+0x460>
 8001cae:	4638      	mov	r0, r7
 8001cb0:	e7e1      	b.n	8001c76 <NEO6M_App_Process+0x466>
 8001cb2:	2a0d      	cmp	r2, #13
 8001cb4:	f43f add1 	beq.w	800185a <NEO6M_App_Process+0x4a>
 8001cb8:	f8ba 3000 	ldrh.w	r3, [sl]
 8001cbc:	2b00      	cmp	r3, #0
 8001cbe:	f43f adcc 	beq.w	800185a <NEO6M_App_Process+0x4a>
 8001cc2:	2b7e      	cmp	r3, #126	@ 0x7e
 8001cc4:	f63f af2c 	bhi.w	8001b20 <NEO6M_App_Process+0x310>
 8001cc8:	4915      	ldr	r1, [pc, #84]	@ (8001d20 <NEO6M_App_Process+0x510>)
 8001cca:	54ca      	strb	r2, [r1, r3]
 8001ccc:	3301      	adds	r3, #1
 8001cce:	e728      	b.n	8001b22 <NEO6M_App_Process+0x312>
 8001cd0:	b901      	cbnz	r1, 8001cd4 <NEO6M_App_Process+0x4c4>
 8001cd2:	b662      	cpsie	i
 8001cd4:	4c13      	ldr	r4, [pc, #76]	@ (8001d24 <NEO6M_App_Process+0x514>)
 8001cd6:	6823      	ldr	r3, [r4, #0]
 8001cd8:	b14b      	cbz	r3, 8001cee <NEO6M_App_Process+0x4de>
 8001cda:	f002 fc93 	bl	8004604 <HAL_GetTick>
 8001cde:	6823      	ldr	r3, [r4, #0]
 8001ce0:	1ac0      	subs	r0, r0, r3
 8001ce2:	f5b0 6ffa 	cmp.w	r0, #2000	@ 0x7d0
 8001ce6:	d902      	bls.n	8001cee <NEO6M_App_Process+0x4de>
 8001ce8:	4b09      	ldr	r3, [pc, #36]	@ (8001d10 <NEO6M_App_Process+0x500>)
 8001cea:	2200      	movs	r2, #0
 8001cec:	75da      	strb	r2, [r3, #23]
 8001cee:	b033      	add	sp, #204	@ 0xcc
 8001cf0:	e8bd 8ff0 	ldmia.w	sp!, {r4, r5, r6, r7, r8, r9, sl, fp, pc}
 8001cf4:	f3af 8000 	nop.w
 8001cf8:	00000000 	.word	0x00000000
 8001cfc:	40efffe0 	.word	0x40efffe0
 8001d00:	00000000 	.word	0x00000000
 8001d04:	40dfffc0 	.word	0x40dfffc0
 8001d08:	0800a3dc 	.word	0x0800a3dc
 8001d0c:	0800a3e2 	.word	0x0800a3e2
 8001d10:	200002e8 	.word	0x200002e8
 8001d14:	40240000 	.word	0x40240000
 8001d18:	3fe00000 	.word	0x3fe00000
 8001d1c:	c0e00000 	.word	0xc0e00000
 8001d20:	20000512 	.word	0x20000512
 8001d24:	20000304 	.word	0x20000304

08001d28 <HAL_UART_RxCpltCallback>:
 8001d28:	4b12      	ldr	r3, [pc, #72]	@ (8001d74 <HAL_UART_RxCpltCallback+0x4c>)
 8001d2a:	4283      	cmp	r3, r0
 8001d2c:	b510      	push	{r4, lr}
 8001d2e:	d11f      	bne.n	8001d70 <HAL_UART_RxCpltCallback+0x48>
 8001d30:	4a11      	ldr	r2, [pc, #68]	@ (8001d78 <HAL_UART_RxCpltCallback+0x50>)
 8001d32:	4b12      	ldr	r3, [pc, #72]	@ (8001d7c <HAL_UART_RxCpltCallback+0x54>)
 8001d34:	4912      	ldr	r1, [pc, #72]	@ (8001d80 <HAL_UART_RxCpltCallback+0x58>)
 8001d36:	7818      	ldrb	r0, [r3, #0]
 8001d38:	8813      	ldrh	r3, [r2, #0]
 8001d3a:	8809      	ldrh	r1, [r1, #0]
 8001d3c:	3301      	adds	r3, #1
 8001d3e:	b29b      	uxth	r3, r3
 8001d40:	f5b3 7f00 	cmp.w	r3, #512	@ 0x200
 8001d44:	bf28      	it	cs
 8001d46:	2300      	movcs	r3, #0
 8001d48:	b289      	uxth	r1, r1
 8001d4a:	4299      	cmp	r1, r3
 8001d4c:	bf17      	itett	ne
 8001d4e:	8811      	ldrhne	r1, [r2, #0]
 8001d50:	4b0c      	ldreq	r3, [pc, #48]	@ (8001d84 <HAL_UART_RxCpltCallback+0x5c>)
 8001d52:	4c0d      	ldrne	r4, [pc, #52]	@ (8001d88 <HAL_UART_RxCpltCallback+0x60>)
 8001d54:	b289      	uxthne	r1, r1
 8001d56:	bf08      	it	eq
 8001d58:	2201      	moveq	r2, #1
 8001d5a:	b2c0      	uxtb	r0, r0
 8001d5c:	bf16      	itet	ne
 8001d5e:	5460      	strbne	r0, [r4, r1]
 8001d60:	701a      	strbeq	r2, [r3, #0]
 8001d62:	8013      	strhne	r3, [r2, #0]
 8001d64:	f7ff fbde 	bl	8001524 <NEO6M_RestartRxIT>
 8001d68:	b110      	cbz	r0, 8001d70 <HAL_UART_RxCpltCallback+0x48>
 8001d6a:	4b08      	ldr	r3, [pc, #32]	@ (8001d8c <HAL_UART_RxCpltCallback+0x64>)
 8001d6c:	2200      	movs	r2, #0
 8001d6e:	701a      	strb	r2, [r3, #0]
 8001d70:	bd10      	pop	{r4, pc}
 8001d72:	bf00      	nop
 8001d74:	200006e4 	.word	0x200006e4
 8001d78:	2000030e 	.word	0x2000030e
 8001d7c:	20000592 	.word	0x20000592
 8001d80:	2000030c 	.word	0x2000030c
 8001d84:	2000030a 	.word	0x2000030a
 8001d88:	20000310 	.word	0x20000310
 8001d8c:	20000309 	.word	0x20000309

08001d90 <HAL_UART_ErrorCallback>:
 8001d90:	4b09      	ldr	r3, [pc, #36]	@ (8001db8 <HAL_UART_ErrorCallback+0x28>)
 8001d92:	4283      	cmp	r3, r0
 8001d94:	b510      	push	{r4, lr}
 8001d96:	d10d      	bne.n	8001db4 <HAL_UART_ErrorCallback+0x24>
 8001d98:	4b08      	ldr	r3, [pc, #32]	@ (8001dbc <HAL_UART_ErrorCallback+0x2c>)
 8001d9a:	2400      	movs	r4, #0
 8001d9c:	801c      	strh	r4, [r3, #0]
 8001d9e:	4b08      	ldr	r3, [pc, #32]	@ (8001dc0 <HAL_UART_ErrorCallback+0x30>)
 8001da0:	801c      	strh	r4, [r3, #0]
 8001da2:	4b08      	ldr	r3, [pc, #32]	@ (8001dc4 <HAL_UART_ErrorCallback+0x34>)
 8001da4:	801c      	strh	r4, [r3, #0]
 8001da6:	4b08      	ldr	r3, [pc, #32]	@ (8001dc8 <HAL_UART_ErrorCallback+0x38>)
 8001da8:	701c      	strb	r4, [r3, #0]
 8001daa:	f7ff fbbb 	bl	8001524 <NEO6M_RestartRxIT>
 8001dae:	b108      	cbz	r0, 8001db4 <HAL_UART_ErrorCallback+0x24>
 8001db0:	4b06      	ldr	r3, [pc, #24]	@ (8001dcc <HAL_UART_ErrorCallback+0x3c>)
 8001db2:	701c      	strb	r4, [r3, #0]
 8001db4:	bd10      	pop	{r4, pc}
 8001db6:	bf00      	nop
 8001db8:	200006e4 	.word	0x200006e4
 8001dbc:	20000510 	.word	0x20000510
 8001dc0:	2000030e 	.word	0x2000030e
 8001dc4:	2000030c 	.word	0x2000030c
 8001dc8:	2000030a 	.word	0x2000030a
 8001dcc:	20000309 	.word	0x20000309

08001dd0 <null_ptr_check>:
 8001dd0:	b148      	cbz	r0, 8001de6 <null_ptr_check+0x16>
 8001dd2:	6903      	ldr	r3, [r0, #16]
 8001dd4:	b13b      	cbz	r3, 8001de6 <null_ptr_check+0x16>
 8001dd6:	6943      	ldr	r3, [r0, #20]
 8001dd8:	b12b      	cbz	r3, 8001de6 <null_ptr_check+0x16>
 8001dda:	6980      	ldr	r0, [r0, #24]
 8001ddc:	fab0 f080 	clz	r0, r0
 8001de0:	0940      	lsrs	r0, r0, #5
 8001de2:	4240      	negs	r0, r0
 8001de4:	4770      	bx	lr
 8001de6:	f04f 30ff 	mov.w	r0, #4294967295	@ 0xffffffff
 8001dea:	4770      	bx	lr

08001dec <check_boundary_val>:
 8001dec:	b538      	push	{r3, r4, r5, lr}
 8001dee:	4605      	mov	r5, r0
 8001df0:	4618      	mov	r0, r3
 8001df2:	461c      	mov	r4, r3
 8001df4:	f7ff ffec 	bl	8001dd0 <null_ptr_check>
 8001df8:	b988      	cbnz	r0, 8001e1e <check_boundary_val+0x32>
 8001dfa:	782b      	ldrb	r3, [r5, #0]
 8001dfc:	428b      	cmp	r3, r1
 8001dfe:	d205      	bcs.n	8001e0c <check_boundary_val+0x20>
 8001e00:	2301      	movs	r3, #1
 8001e02:	702b      	strb	r3, [r5, #0]
 8001e04:	7a23      	ldrb	r3, [r4, #8]
 8001e06:	f043 0301 	orr.w	r3, r3, #1
 8001e0a:	7223      	strb	r3, [r4, #8]
 8001e0c:	782b      	ldrb	r3, [r5, #0]
 8001e0e:	4293      	cmp	r3, r2
 8001e10:	d904      	bls.n	8001e1c <check_boundary_val+0x30>
 8001e12:	702a      	strb	r2, [r5, #0]
 8001e14:	7a23      	ldrb	r3, [r4, #8]
 8001e16:	f043 0302 	orr.w	r3, r3, #2
 8001e1a:	7223      	strb	r3, [r4, #8]
 8001e1c:	bd38      	pop	{r3, r4, r5, pc}
 8001e1e:	f04f 30ff 	mov.w	r0, #4294967295	@ 0xffffffff
 8001e22:	e7fb      	b.n	8001e1c <check_boundary_val+0x30>

08001e24 <bmi3_get_regs>:
 8001e24:	b5f0      	push	{r4, r5, r6, r7, lr}
 8001e26:	4605      	mov	r5, r0
 8001e28:	b0a1      	sub	sp, #132	@ 0x84
 8001e2a:	4618      	mov	r0, r3
 8001e2c:	460f      	mov	r7, r1
 8001e2e:	4616      	mov	r6, r2
 8001e30:	461c      	mov	r4, r3
 8001e32:	f7ff ffcd 	bl	8001dd0 <null_ptr_check>
 8001e36:	bb30      	cbnz	r0, 8001e86 <bmi3_get_regs+0x62>
 8001e38:	b329      	cbz	r1, 8001e86 <bmi3_get_regs+0x62>
 8001e3a:	7a63      	ldrb	r3, [r4, #9]
 8001e3c:	b90b      	cbnz	r3, 8001e42 <bmi3_get_regs+0x1e>
 8001e3e:	f045 0580 	orr.w	r5, r5, #128	@ 0x80
 8001e42:	7ae2      	ldrb	r2, [r4, #11]
 8001e44:	6863      	ldr	r3, [r4, #4]
 8001e46:	4432      	add	r2, r6
 8001e48:	4669      	mov	r1, sp
 8001e4a:	4628      	mov	r0, r5
 8001e4c:	6925      	ldr	r5, [r4, #16]
 8001e4e:	47a8      	blx	r5
 8001e50:	69a3      	ldr	r3, [r4, #24]
 8001e52:	72a0      	strb	r0, [r4, #10]
 8001e54:	6861      	ldr	r1, [r4, #4]
 8001e56:	2002      	movs	r0, #2
 8001e58:	4798      	blx	r3
 8001e5a:	f994 000a 	ldrsb.w	r0, [r4, #10]
 8001e5e:	b180      	cbz	r0, 8001e82 <bmi3_get_regs+0x5e>
 8001e60:	f06f 0001 	mvn.w	r0, #1
 8001e64:	b021      	add	sp, #132	@ 0x84
 8001e66:	bdf0      	pop	{r4, r5, r6, r7, pc}
 8001e68:	7ae1      	ldrb	r1, [r4, #11]
 8001e6a:	f103 0280 	add.w	r2, r3, #128	@ 0x80
 8001e6e:	446a      	add	r2, sp
 8001e70:	440a      	add	r2, r1
 8001e72:	f812 2c80 	ldrb.w	r2, [r2, #-128]
 8001e76:	54fa      	strb	r2, [r7, r3]
 8001e78:	3301      	adds	r3, #1
 8001e7a:	b29a      	uxth	r2, r3
 8001e7c:	4296      	cmp	r6, r2
 8001e7e:	d8f3      	bhi.n	8001e68 <bmi3_get_regs+0x44>
 8001e80:	e7f0      	b.n	8001e64 <bmi3_get_regs+0x40>
 8001e82:	4603      	mov	r3, r0
 8001e84:	e7f9      	b.n	8001e7a <bmi3_get_regs+0x56>
 8001e86:	f04f 30ff 	mov.w	r0, #4294967295	@ 0xffffffff
 8001e8a:	e7eb      	b.n	8001e64 <bmi3_get_regs+0x40>

08001e8c <get_accel_config>:
 8001e8c:	b513      	push	{r0, r1, r4, lr}
 8001e8e:	2200      	movs	r2, #0
 8001e90:	4604      	mov	r4, r0
 8001e92:	460b      	mov	r3, r1
 8001e94:	f8ad 2004 	strh.w	r2, [sp, #4]
 8001e98:	a901      	add	r1, sp, #4
 8001e9a:	2202      	movs	r2, #2
 8001e9c:	2020      	movs	r0, #32
 8001e9e:	f7ff ffc1 	bl	8001e24 <bmi3_get_regs>
 8001ea2:	b988      	cbnz	r0, 8001ec8 <get_accel_config+0x3c>
 8001ea4:	f89d 3004 	ldrb.w	r3, [sp, #4]
 8001ea8:	f89d 2005 	ldrb.w	r2, [sp, #5]
 8001eac:	f003 010f 	and.w	r1, r3, #15
 8001eb0:	7021      	strb	r1, [r4, #0]
 8001eb2:	f3c3 1102 	ubfx	r1, r3, #4, #3
 8001eb6:	11db      	asrs	r3, r3, #7
 8001eb8:	7063      	strb	r3, [r4, #1]
 8001eba:	f002 0307 	and.w	r3, r2, #7
 8001ebe:	f3c2 1202 	ubfx	r2, r2, #4, #3
 8001ec2:	70e1      	strb	r1, [r4, #3]
 8001ec4:	7123      	strb	r3, [r4, #4]
 8001ec6:	70a2      	strb	r2, [r4, #2]
 8001ec8:	b002      	add	sp, #8
 8001eca:	bd10      	pop	{r4, pc}

08001ecc <get_alternate_accel_config>:
 8001ecc:	b513      	push	{r0, r1, r4, lr}
 8001ece:	2200      	movs	r2, #0
 8001ed0:	4604      	mov	r4, r0
 8001ed2:	460b      	mov	r3, r1
 8001ed4:	f8ad 2004 	strh.w	r2, [sp, #4]
 8001ed8:	a901      	add	r1, sp, #4
 8001eda:	2202      	movs	r2, #2
 8001edc:	2028      	movs	r0, #40	@ 0x28
 8001ede:	f7ff ffa1 	bl	8001e24 <bmi3_get_regs>
 8001ee2:	b960      	cbnz	r0, 8001efe <get_alternate_accel_config+0x32>
 8001ee4:	f89d 2004 	ldrb.w	r2, [sp, #4]
 8001ee8:	f89d 3005 	ldrb.w	r3, [sp, #5]
 8001eec:	f002 020f 	and.w	r2, r2, #15
 8001ef0:	7022      	strb	r2, [r4, #0]
 8001ef2:	f003 0207 	and.w	r2, r3, #7
 8001ef6:	f3c3 1302 	ubfx	r3, r3, #4, #3
 8001efa:	70a2      	strb	r2, [r4, #2]
 8001efc:	7063      	strb	r3, [r4, #1]
 8001efe:	b002      	add	sp, #8
 8001f00:	bd10      	pop	{r4, pc}

08001f02 <get_alternate_gyro_config>:
 8001f02:	b513      	push	{r0, r1, r4, lr}
 8001f04:	2200      	movs	r2, #0
 8001f06:	4604      	mov	r4, r0
 8001f08:	460b      	mov	r3, r1
 8001f0a:	f8ad 2004 	strh.w	r2, [sp, #4]
 8001f0e:	a901      	add	r1, sp, #4
 8001f10:	2202      	movs	r2, #2
 8001f12:	2029      	movs	r0, #41	@ 0x29
 8001f14:	f7ff ff86 	bl	8001e24 <bmi3_get_regs>
 8001f18:	b960      	cbnz	r0, 8001f34 <get_alternate_gyro_config+0x32>
 8001f1a:	f89d 2004 	ldrb.w	r2, [sp, #4]
 8001f1e:	f89d 3005 	ldrb.w	r3, [sp, #5]
 8001f22:	f002 020f 	and.w	r2, r2, #15
 8001f26:	7022      	strb	r2, [r4, #0]
 8001f28:	f003 0207 	and.w	r2, r3, #7
 8001f2c:	f3c3 1302 	ubfx	r3, r3, #4, #3
 8001f30:	70a2      	strb	r2, [r4, #2]
 8001f32:	7063      	strb	r3, [r4, #1]
 8001f34:	b002      	add	sp, #8
 8001f36:	bd10      	pop	{r4, pc}

08001f38 <bmi3_set_regs>:
 8001f38:	b570      	push	{r4, r5, r6, lr}
 8001f3a:	4605      	mov	r5, r0
 8001f3c:	4618      	mov	r0, r3
 8001f3e:	461c      	mov	r4, r3
 8001f40:	f7ff ff46 	bl	8001dd0 <null_ptr_check>
 8001f44:	b9a0      	cbnz	r0, 8001f70 <bmi3_set_regs+0x38>
 8001f46:	b199      	cbz	r1, 8001f70 <bmi3_set_regs+0x38>
 8001f48:	7a63      	ldrb	r3, [r4, #9]
 8001f4a:	b90b      	cbnz	r3, 8001f50 <bmi3_set_regs+0x18>
 8001f4c:	f005 057f 	and.w	r5, r5, #127	@ 0x7f
 8001f50:	6863      	ldr	r3, [r4, #4]
 8001f52:	6966      	ldr	r6, [r4, #20]
 8001f54:	4628      	mov	r0, r5
 8001f56:	47b0      	blx	r6
 8001f58:	69a3      	ldr	r3, [r4, #24]
 8001f5a:	72a0      	strb	r0, [r4, #10]
 8001f5c:	6861      	ldr	r1, [r4, #4]
 8001f5e:	2002      	movs	r0, #2
 8001f60:	4798      	blx	r3
 8001f62:	f994 000a 	ldrsb.w	r0, [r4, #10]
 8001f66:	2800      	cmp	r0, #0
 8001f68:	bf18      	it	ne
 8001f6a:	f06f 0001 	mvnne.w	r0, #1
 8001f6e:	bd70      	pop	{r4, r5, r6, pc}
 8001f70:	f04f 30ff 	mov.w	r0, #4294967295	@ 0xffffffff
 8001f74:	e7fb      	b.n	8001f6e <bmi3_set_regs+0x36>
	...

08001f78 <set_accel_config>:
 8001f78:	b5f7      	push	{r0, r1, r2, r4, r5, r6, r7, lr}
 8001f7a:	460d      	mov	r5, r1
 8001f7c:	4604      	mov	r4, r0
 8001f7e:	2100      	movs	r1, #0
 8001f80:	1c46      	adds	r6, r0, #1
 8001f82:	1d07      	adds	r7, r0, #4
 8001f84:	462b      	mov	r3, r5
 8001f86:	2207      	movs	r2, #7
 8001f88:	3002      	adds	r0, #2
 8001f8a:	f8ad 1004 	strh.w	r1, [sp, #4]
 8001f8e:	f7ff ff2d 	bl	8001dec <check_boundary_val>
 8001f92:	b118      	cbz	r0, 8001f9c <set_accel_config+0x24>
 8001f94:	f06f 0003 	mvn.w	r0, #3
 8001f98:	b003      	add	sp, #12
 8001f9a:	bdf0      	pop	{r4, r5, r6, r7, pc}
 8001f9c:	462b      	mov	r3, r5
 8001f9e:	2206      	movs	r2, #6
 8001fa0:	4638      	mov	r0, r7
 8001fa2:	f7ff ff23 	bl	8001dec <check_boundary_val>
 8001fa6:	2800      	cmp	r0, #0
 8001fa8:	d1f4      	bne.n	8001f94 <set_accel_config+0x1c>
 8001faa:	462b      	mov	r3, r5
 8001fac:	2201      	movs	r2, #1
 8001fae:	4630      	mov	r0, r6
 8001fb0:	f7ff ff1c 	bl	8001dec <check_boundary_val>
 8001fb4:	2800      	cmp	r0, #0
 8001fb6:	d1ed      	bne.n	8001f94 <set_accel_config+0x1c>
 8001fb8:	2101      	movs	r1, #1
 8001fba:	462b      	mov	r3, r5
 8001fbc:	220e      	movs	r2, #14
 8001fbe:	4620      	mov	r0, r4
 8001fc0:	f7ff ff14 	bl	8001dec <check_boundary_val>
 8001fc4:	1ce6      	adds	r6, r4, #3
 8001fc6:	4601      	mov	r1, r0
 8001fc8:	2800      	cmp	r0, #0
 8001fca:	d1e3      	bne.n	8001f94 <set_accel_config+0x1c>
 8001fcc:	462b      	mov	r3, r5
 8001fce:	2203      	movs	r2, #3
 8001fd0:	4630      	mov	r0, r6
 8001fd2:	f7ff ff0b 	bl	8001dec <check_boundary_val>
 8001fd6:	2800      	cmp	r0, #0
 8001fd8:	d1dc      	bne.n	8001f94 <set_accel_config+0x1c>
 8001fda:	78a0      	ldrb	r0, [r4, #2]
 8001fdc:	7823      	ldrb	r3, [r4, #0]
 8001fde:	4290      	cmp	r0, r2
 8001fe0:	d146      	bne.n	8002070 <set_accel_config+0xf8>
 8001fe2:	1e5a      	subs	r2, r3, #1
 8001fe4:	b2d2      	uxtb	r2, r2
 8001fe6:	2a09      	cmp	r2, #9
 8001fe8:	bf98      	it	ls
 8001fea:	4926      	ldrls	r1, [pc, #152]	@ (8002084 <set_accel_config+0x10c>)
 8001fec:	7926      	ldrb	r6, [r4, #4]
 8001fee:	bf8e      	itee	hi
 8001ff0:	ed9f 7a25 	vldrhi	s14, [pc, #148]	@ 8002088 <set_accel_config+0x110>
 8001ff4:	eb01 0282 	addls.w	r2, r1, r2, lsl #2
 8001ff8:	ed92 7a00 	vldrls	s14, [r2]
 8001ffc:	2e06      	cmp	r6, #6
 8001ffe:	d8c9      	bhi.n	8001f94 <set_accel_config+0x1c>
 8002000:	4a22      	ldr	r2, [pc, #136]	@ (800208c <set_accel_config+0x114>)
 8002002:	eeb5 7ac0 	vcmpe.f32	s14, #0.0
 8002006:	eb02 0286 	add.w	r2, r2, r6, lsl #2
 800200a:	eef1 fa10 	vmrs	APSR_nzcv, fpscr
 800200e:	edd2 6a00 	vldr	s13, [r2]
 8002012:	ddbf      	ble.n	8001f94 <set_accel_config+0x1c>
 8002014:	eef5 6ac0 	vcmpe.f32	s13, #0.0
 8002018:	eef1 fa10 	vmrs	APSR_nzcv, fpscr
 800201c:	ddba      	ble.n	8001f94 <set_accel_config+0x1c>
 800201e:	ed9f 6a1c 	vldr	s12, [pc, #112]	@ 8002090 <set_accel_config+0x118>
 8002022:	eec6 7a07 	vdiv.f32	s15, s12, s14
 8002026:	ee77 7ae6 	vsub.f32	s15, s15, s13
 800202a:	eef5 7ac0 	vcmpe.f32	s15, #0.0
 800202e:	eef1 fa10 	vmrs	APSR_nzcv, fpscr
 8002032:	ddaf      	ble.n	8001f94 <set_accel_config+0x1c>
 8002034:	7861      	ldrb	r1, [r4, #1]
 8002036:	7922      	ldrb	r2, [r4, #4]
 8002038:	f003 030f 	and.w	r3, r3, #15
 800203c:	ea43 11c1 	orr.w	r1, r3, r1, lsl #7
 8002040:	78e3      	ldrb	r3, [r4, #3]
 8002042:	0212      	lsls	r2, r2, #8
 8002044:	0300      	lsls	r0, r0, #12
 8002046:	f400 40e0 	and.w	r0, r0, #28672	@ 0x7000
 800204a:	f402 62e0 	and.w	r2, r2, #1792	@ 0x700
 800204e:	011b      	lsls	r3, r3, #4
 8002050:	4302      	orrs	r2, r0
 8002052:	f003 0370 	and.w	r3, r3, #112	@ 0x70
 8002056:	430b      	orrs	r3, r1
 8002058:	0a12      	lsrs	r2, r2, #8
 800205a:	f88d 3004 	strb.w	r3, [sp, #4]
 800205e:	f88d 2005 	strb.w	r2, [sp, #5]
 8002062:	462b      	mov	r3, r5
 8002064:	2202      	movs	r2, #2
 8002066:	a901      	add	r1, sp, #4
 8002068:	2020      	movs	r0, #32
 800206a:	f7ff ff65 	bl	8001f38 <bmi3_set_regs>
 800206e:	e793      	b.n	8001f98 <set_accel_config+0x20>
 8002070:	2804      	cmp	r0, #4
 8002072:	d103      	bne.n	800207c <set_accel_config+0x104>
 8002074:	1e5a      	subs	r2, r3, #1
 8002076:	2a03      	cmp	r2, #3
 8002078:	d8dc      	bhi.n	8002034 <set_accel_config+0xbc>
 800207a:	e78b      	b.n	8001f94 <set_accel_config+0x1c>
 800207c:	2807      	cmp	r0, #7
 800207e:	d0f9      	beq.n	8002074 <set_accel_config+0xfc>
 8002080:	e7d8      	b.n	8002034 <set_accel_config+0xbc>
 8002082:	bf00      	nop
 8002084:	0800a58c 	.word	0x0800a58c
 8002088:	00000000 	.word	0x00000000
 800208c:	0800a570 	.word	0x0800a570
 8002090:	45c80000 	.word	0x45c80000

08002094 <set_alternate_accel_config>:
 8002094:	b513      	push	{r0, r1, r4, lr}
 8002096:	7882      	ldrb	r2, [r0, #2]
 8002098:	7844      	ldrb	r4, [r0, #1]
 800209a:	7800      	ldrb	r0, [r0, #0]
 800209c:	0212      	lsls	r2, r2, #8
 800209e:	0324      	lsls	r4, r4, #12
 80020a0:	f404 44e0 	and.w	r4, r4, #28672	@ 0x7000
 80020a4:	f402 62e0 	and.w	r2, r2, #1792	@ 0x700
 80020a8:	4322      	orrs	r2, r4
 80020aa:	f000 000f 	and.w	r0, r0, #15
 80020ae:	0a12      	lsrs	r2, r2, #8
 80020b0:	460b      	mov	r3, r1
 80020b2:	f88d 0004 	strb.w	r0, [sp, #4]
 80020b6:	f88d 2005 	strb.w	r2, [sp, #5]
 80020ba:	a901      	add	r1, sp, #4
 80020bc:	2202      	movs	r2, #2
 80020be:	2028      	movs	r0, #40	@ 0x28
 80020c0:	f7ff ff3a 	bl	8001f38 <bmi3_set_regs>
 80020c4:	b002      	add	sp, #8
 80020c6:	bd10      	pop	{r4, pc}

080020c8 <set_alternate_gyro_config>:
 80020c8:	b513      	push	{r0, r1, r4, lr}
 80020ca:	7882      	ldrb	r2, [r0, #2]
 80020cc:	7844      	ldrb	r4, [r0, #1]
 80020ce:	7800      	ldrb	r0, [r0, #0]
 80020d0:	0212      	lsls	r2, r2, #8
 80020d2:	0324      	lsls	r4, r4, #12
 80020d4:	f404 44e0 	and.w	r4, r4, #28672	@ 0x7000
 80020d8:	f402 62e0 	and.w	r2, r2, #1792	@ 0x700
 80020dc:	4322      	orrs	r2, r4
 80020de:	f000 000f 	and.w	r0, r0, #15
 80020e2:	0a12      	lsrs	r2, r2, #8
 80020e4:	460b      	mov	r3, r1
 80020e6:	f88d 0004 	strb.w	r0, [sp, #4]
 80020ea:	f88d 2005 	strb.w	r2, [sp, #5]
 80020ee:	a901      	add	r1, sp, #4
 80020f0:	2202      	movs	r2, #2
 80020f2:	2029      	movs	r0, #41	@ 0x29
 80020f4:	f7ff ff20 	bl	8001f38 <bmi3_set_regs>
 80020f8:	b002      	add	sp, #8
 80020fa:	bd10      	pop	{r4, pc}

080020fc <bmi3_set_command_register>:
 80020fc:	b507      	push	{r0, r1, r2, lr}
 80020fe:	460b      	mov	r3, r1
 8002100:	f8ad 0004 	strh.w	r0, [sp, #4]
 8002104:	2202      	movs	r2, #2
 8002106:	a901      	add	r1, sp, #4
 8002108:	207e      	movs	r0, #126	@ 0x7e
 800210a:	f7ff ff15 	bl	8001f38 <bmi3_set_regs>
 800210e:	b003      	add	sp, #12
 8002110:	bd00      	pop	{pc}
	...

08002114 <bmi3_soft_reset>:
 8002114:	b5f0      	push	{r4, r5, r6, r7, lr}
 8002116:	b087      	sub	sp, #28
 8002118:	f44f 7396 	mov.w	r3, #300	@ 0x12c
 800211c:	2200      	movs	r2, #0
 800211e:	f8ad 3008 	strh.w	r3, [sp, #8]
 8002122:	2301      	movs	r3, #1
 8002124:	4605      	mov	r5, r0
 8002126:	f8ad 2004 	strh.w	r2, [sp, #4]
 800212a:	f8ad 300c 	strh.w	r3, [sp, #12]
 800212e:	f8ad 2010 	strh.w	r2, [sp, #16]
 8002132:	f8ad 3014 	strh.w	r3, [sp, #20]
 8002136:	f7ff fe4b 	bl	8001dd0 <null_ptr_check>
 800213a:	2800      	cmp	r0, #0
 800213c:	d14f      	bne.n	80021de <bmi3_soft_reset+0xca>
 800213e:	4629      	mov	r1, r5
 8002140:	f64d 60af 	movw	r0, #57007	@ 0xdeaf
 8002144:	f7ff ffda 	bl	80020fc <bmi3_set_command_register>
 8002148:	69ab      	ldr	r3, [r5, #24]
 800214a:	6869      	ldr	r1, [r5, #4]
 800214c:	4604      	mov	r4, r0
 800214e:	f240 50dc 	movw	r0, #1500	@ 0x5dc
 8002152:	4798      	blx	r3
 8002154:	b94c      	cbnz	r4, 800216a <bmi3_soft_reset+0x56>
 8002156:	7a6b      	ldrb	r3, [r5, #9]
 8002158:	b153      	cbz	r3, 8002170 <bmi3_soft_reset+0x5c>
 800215a:	462b      	mov	r3, r5
 800215c:	2202      	movs	r2, #2
 800215e:	a902      	add	r1, sp, #8
 8002160:	2012      	movs	r0, #18
 8002162:	f7ff fee9 	bl	8001f38 <bmi3_set_regs>
 8002166:	4604      	mov	r4, r0
 8002168:	b160      	cbz	r0, 8002184 <bmi3_soft_reset+0x70>
 800216a:	4620      	mov	r0, r4
 800216c:	b007      	add	sp, #28
 800216e:	bdf0      	pop	{r4, r5, r6, r7, pc}
 8002170:	4620      	mov	r0, r4
 8002172:	462b      	mov	r3, r5
 8002174:	2202      	movs	r2, #2
 8002176:	a901      	add	r1, sp, #4
 8002178:	f7ff fe54 	bl	8001e24 <bmi3_get_regs>
 800217c:	4604      	mov	r4, r0
 800217e:	2800      	cmp	r0, #0
 8002180:	d1f3      	bne.n	800216a <bmi3_soft_reset+0x56>
 8002182:	e7ea      	b.n	800215a <bmi3_soft_reset+0x46>
 8002184:	462b      	mov	r3, r5
 8002186:	2202      	movs	r2, #2
 8002188:	a905      	add	r1, sp, #20
 800218a:	2014      	movs	r0, #20
 800218c:	f7ff fed4 	bl	8001f38 <bmi3_set_regs>
 8002190:	4604      	mov	r4, r0
 8002192:	2800      	cmp	r0, #0
 8002194:	d1e9      	bne.n	800216a <bmi3_soft_reset+0x56>
 8002196:	462b      	mov	r3, r5
 8002198:	2202      	movs	r2, #2
 800219a:	a903      	add	r1, sp, #12
 800219c:	2040      	movs	r0, #64	@ 0x40
 800219e:	f7ff fecb 	bl	8001f38 <bmi3_set_regs>
 80021a2:	4604      	mov	r4, r0
 80021a4:	2800      	cmp	r0, #0
 80021a6:	d1e0      	bne.n	800216a <bmi3_soft_reset+0x56>
 80021a8:	260a      	movs	r6, #10
 80021aa:	4607      	mov	r7, r0
 80021ac:	69ab      	ldr	r3, [r5, #24]
 80021ae:	6869      	ldr	r1, [r5, #4]
 80021b0:	480c      	ldr	r0, [pc, #48]	@ (80021e4 <bmi3_soft_reset+0xd0>)
 80021b2:	4798      	blx	r3
 80021b4:	462b      	mov	r3, r5
 80021b6:	2202      	movs	r2, #2
 80021b8:	a904      	add	r1, sp, #16
 80021ba:	2011      	movs	r0, #17
 80021bc:	f88d 7010 	strb.w	r7, [sp, #16]
 80021c0:	f7ff fe30 	bl	8001e24 <bmi3_get_regs>
 80021c4:	f89d 7010 	ldrb.w	r7, [sp, #16]
 80021c8:	4604      	mov	r4, r0
 80021ca:	b918      	cbnz	r0, 80021d4 <bmi3_soft_reset+0xc0>
 80021cc:	07fb      	lsls	r3, r7, #31
 80021ce:	d4cc      	bmi.n	800216a <bmi3_soft_reset+0x56>
 80021d0:	f06f 040d 	mvn.w	r4, #13
 80021d4:	3e01      	subs	r6, #1
 80021d6:	f016 06ff 	ands.w	r6, r6, #255	@ 0xff
 80021da:	d1e7      	bne.n	80021ac <bmi3_soft_reset+0x98>
 80021dc:	e7c5      	b.n	800216a <bmi3_soft_reset+0x56>
 80021de:	f04f 34ff 	mov.w	r4, #4294967295	@ 0xffffffff
 80021e2:	e7c2      	b.n	800216a <bmi3_soft_reset+0x56>
 80021e4:	000186a0 	.word	0x000186a0

080021e8 <bmi3_init>:
 80021e8:	b513      	push	{r0, r1, r4, lr}
 80021ea:	4604      	mov	r4, r0
 80021ec:	f7ff fdf0 	bl	8001dd0 <null_ptr_check>
 80021f0:	bb20      	cbnz	r0, 800223c <bmi3_init+0x54>
 80021f2:	7a63      	ldrb	r3, [r4, #9]
 80021f4:	7020      	strb	r0, [r4, #0]
 80021f6:	2b00      	cmp	r3, #0
 80021f8:	bf14      	ite	ne
 80021fa:	2302      	movne	r3, #2
 80021fc:	2301      	moveq	r3, #1
 80021fe:	72e3      	strb	r3, [r4, #11]
 8002200:	4620      	mov	r0, r4
 8002202:	f7ff ff87 	bl	8002114 <bmi3_soft_reset>
 8002206:	4602      	mov	r2, r0
 8002208:	b9a8      	cbnz	r0, 8002236 <bmi3_init+0x4e>
 800220a:	4623      	mov	r3, r4
 800220c:	2202      	movs	r2, #2
 800220e:	a901      	add	r1, sp, #4
 8002210:	f8ad 0004 	strh.w	r0, [sp, #4]
 8002214:	f7ff fe06 	bl	8001e24 <bmi3_get_regs>
 8002218:	f89d 1004 	ldrb.w	r1, [sp, #4]
 800221c:	f89d 3005 	ldrb.w	r3, [sp, #5]
 8002220:	4602      	mov	r2, r0
 8002222:	b940      	cbnz	r0, 8002236 <bmi3_init+0x4e>
 8002224:	091b      	lsrs	r3, r3, #4
 8002226:	2b01      	cmp	r3, #1
 8002228:	bf0c      	ite	eq
 800222a:	f643 73ff 	movweq	r3, #16383	@ 0x3fff
 800222e:	f641 73ff 	movwne	r3, #8191	@ 0x1fff
 8002232:	7021      	strb	r1, [r4, #0]
 8002234:	83a3      	strh	r3, [r4, #28]
 8002236:	4610      	mov	r0, r2
 8002238:	b002      	add	sp, #8
 800223a:	bd10      	pop	{r4, pc}
 800223c:	f04f 32ff 	mov.w	r2, #4294967295	@ 0xffffffff
 8002240:	e7f9      	b.n	8002236 <bmi3_init+0x4e>
	...

08002244 <bmi3_set_sensor_config>:
 8002244:	e92d 41f0 	stmdb	sp!, {r4, r5, r6, r7, r8, lr}
 8002248:	4604      	mov	r4, r0
 800224a:	b08a      	sub	sp, #40	@ 0x28
 800224c:	4610      	mov	r0, r2
 800224e:	4615      	mov	r5, r2
 8002250:	f7ff fdbe 	bl	8001dd0 <null_ptr_check>
 8002254:	2800      	cmp	r0, #0
 8002256:	f040 8295 	bne.w	8002784 <bmi3_set_sensor_config+0x540>
 800225a:	2c00      	cmp	r4, #0
 800225c:	f000 8292 	beq.w	8002784 <bmi3_set_sensor_config+0x540>
 8002260:	232c      	movs	r3, #44	@ 0x2c
 8002262:	1ca6      	adds	r6, r4, #2
 8002264:	fb03 4701 	mla	r7, r3, r1, r4
 8002268:	42bc      	cmp	r4, r7
 800226a:	d101      	bne.n	8002270 <bmi3_set_sensor_config+0x2c>
 800226c:	2000      	movs	r0, #0
 800226e:	e028      	b.n	80022c2 <bmi3_set_sensor_config+0x7e>
 8002270:	7823      	ldrb	r3, [r4, #0]
 8002272:	2b0c      	cmp	r3, #12
 8002274:	f200 8289 	bhi.w	800278a <bmi3_set_sensor_config+0x546>
 8002278:	e8df f013 	tbh	[pc, r3, lsl #1]
 800227c:	0016000d 	.word	0x0016000d
 8002280:	009000c1 	.word	0x009000c1
 8002284:	017600bf 	.word	0x017600bf
 8002288:	013d0121 	.word	0x013d0121
 800228c:	020900fc 	.word	0x020900fc
 8002290:	0261025c 	.word	0x0261025c
 8002294:	0266      	.short	0x0266
 8002296:	4629      	mov	r1, r5
 8002298:	4630      	mov	r0, r6
 800229a:	f7ff fe6d 	bl	8001f78 <set_accel_config>
 800229e:	362c      	adds	r6, #44	@ 0x2c
 80022a0:	342c      	adds	r4, #44	@ 0x2c
 80022a2:	2800      	cmp	r0, #0
 80022a4:	d0e0      	beq.n	8002268 <bmi3_set_sensor_config+0x24>
 80022a6:	e00c      	b.n	80022c2 <bmi3_set_sensor_config+0x7e>
 80022a8:	2100      	movs	r1, #0
 80022aa:	462b      	mov	r3, r5
 80022ac:	2207      	movs	r2, #7
 80022ae:	1d20      	adds	r0, r4, #4
 80022b0:	f8ad 1010 	strh.w	r1, [sp, #16]
 80022b4:	f104 0803 	add.w	r8, r4, #3
 80022b8:	f7ff fd98 	bl	8001dec <check_boundary_val>
 80022bc:	b120      	cbz	r0, 80022c8 <bmi3_set_sensor_config+0x84>
 80022be:	f06f 0004 	mvn.w	r0, #4
 80022c2:	b00a      	add	sp, #40	@ 0x28
 80022c4:	e8bd 81f0 	ldmia.w	sp!, {r4, r5, r6, r7, r8, pc}
 80022c8:	462b      	mov	r3, r5
 80022ca:	2206      	movs	r2, #6
 80022cc:	4640      	mov	r0, r8
 80022ce:	f7ff fd8d 	bl	8001dec <check_boundary_val>
 80022d2:	2800      	cmp	r0, #0
 80022d4:	d1f3      	bne.n	80022be <bmi3_set_sensor_config+0x7a>
 80022d6:	462b      	mov	r3, r5
 80022d8:	2201      	movs	r2, #1
 80022da:	4640      	mov	r0, r8
 80022dc:	f7ff fd86 	bl	8001dec <check_boundary_val>
 80022e0:	2800      	cmp	r0, #0
 80022e2:	d1ec      	bne.n	80022be <bmi3_set_sensor_config+0x7a>
 80022e4:	2101      	movs	r1, #1
 80022e6:	462b      	mov	r3, r5
 80022e8:	220e      	movs	r2, #14
 80022ea:	4630      	mov	r0, r6
 80022ec:	f7ff fd7e 	bl	8001dec <check_boundary_val>
 80022f0:	f104 0805 	add.w	r8, r4, #5
 80022f4:	4601      	mov	r1, r0
 80022f6:	2800      	cmp	r0, #0
 80022f8:	d1e1      	bne.n	80022be <bmi3_set_sensor_config+0x7a>
 80022fa:	462b      	mov	r3, r5
 80022fc:	2204      	movs	r2, #4
 80022fe:	4640      	mov	r0, r8
 8002300:	f7ff fd74 	bl	8001dec <check_boundary_val>
 8002304:	2800      	cmp	r0, #0
 8002306:	d1da      	bne.n	80022be <bmi3_set_sensor_config+0x7a>
 8002308:	7921      	ldrb	r1, [r4, #4]
 800230a:	78a2      	ldrb	r2, [r4, #2]
 800230c:	79a3      	ldrb	r3, [r4, #6]
 800230e:	2903      	cmp	r1, #3
 8002310:	d127      	bne.n	8002362 <bmi3_set_sensor_config+0x11e>
 8002312:	1e50      	subs	r0, r2, #1
 8002314:	b2c0      	uxtb	r0, r0
 8002316:	2809      	cmp	r0, #9
 8002318:	bf97      	itett	ls
 800231a:	f8df c248 	ldrls.w	ip, [pc, #584]	@ 8002564 <bmi3_set_sensor_config+0x320>
 800231e:	ed9f 7a8e 	vldrhi	s14, [pc, #568]	@ 8002558 <bmi3_set_sensor_config+0x314>
 8002322:	eb0c 0080 	addls.w	r0, ip, r0, lsl #2
 8002326:	ed90 7a00 	vldrls	s14, [r0]
 800232a:	2b06      	cmp	r3, #6
 800232c:	d8c7      	bhi.n	80022be <bmi3_set_sensor_config+0x7a>
 800232e:	488b      	ldr	r0, [pc, #556]	@ (800255c <bmi3_set_sensor_config+0x318>)
 8002330:	eeb5 7ac0 	vcmpe.f32	s14, #0.0
 8002334:	eb00 0083 	add.w	r0, r0, r3, lsl #2
 8002338:	eef1 fa10 	vmrs	APSR_nzcv, fpscr
 800233c:	edd0 6a00 	vldr	s13, [r0]
 8002340:	ddbd      	ble.n	80022be <bmi3_set_sensor_config+0x7a>
 8002342:	eef5 6ac0 	vcmpe.f32	s13, #0.0
 8002346:	eef1 fa10 	vmrs	APSR_nzcv, fpscr
 800234a:	ddb8      	ble.n	80022be <bmi3_set_sensor_config+0x7a>
 800234c:	ed9f 6a84 	vldr	s12, [pc, #528]	@ 8002560 <bmi3_set_sensor_config+0x31c>
 8002350:	eec6 7a07 	vdiv.f32	s15, s12, s14
 8002354:	ee77 7ae6 	vsub.f32	s15, s15, s13
 8002358:	eef5 7ac0 	vcmpe.f32	s15, #0.0
 800235c:	eef1 fa10 	vmrs	APSR_nzcv, fpscr
 8002360:	ddad      	ble.n	80022be <bmi3_set_sensor_config+0x7a>
 8002362:	78e0      	ldrb	r0, [r4, #3]
 8002364:	f002 020f 	and.w	r2, r2, #15
 8002368:	ea42 10c0 	orr.w	r0, r2, r0, lsl #7
 800236c:	7962      	ldrb	r2, [r4, #5]
 800236e:	021b      	lsls	r3, r3, #8
 8002370:	0309      	lsls	r1, r1, #12
 8002372:	f401 41e0 	and.w	r1, r1, #28672	@ 0x7000
 8002376:	0112      	lsls	r2, r2, #4
 8002378:	f403 63e0 	and.w	r3, r3, #1792	@ 0x700
 800237c:	430b      	orrs	r3, r1
 800237e:	f002 0270 	and.w	r2, r2, #112	@ 0x70
 8002382:	4302      	orrs	r2, r0
 8002384:	0a1b      	lsrs	r3, r3, #8
 8002386:	f88d 2010 	strb.w	r2, [sp, #16]
 800238a:	f88d 3011 	strb.w	r3, [sp, #17]
 800238e:	2202      	movs	r2, #2
 8002390:	462b      	mov	r3, r5
 8002392:	a904      	add	r1, sp, #16
 8002394:	2021      	movs	r0, #33	@ 0x21
 8002396:	f7ff fdcf 	bl	8001f38 <bmi3_set_regs>
 800239a:	e780      	b.n	800229e <bmi3_set_sensor_config+0x5a>
 800239c:	2305      	movs	r3, #5
 800239e:	f8ad 3008 	strh.w	r3, [sp, #8]
 80023a2:	2300      	movs	r3, #0
 80023a4:	9304      	str	r3, [sp, #16]
 80023a6:	f8ad 3014 	strh.w	r3, [sp, #20]
 80023aa:	2202      	movs	r2, #2
 80023ac:	462b      	mov	r3, r5
 80023ae:	a902      	add	r1, sp, #8
 80023b0:	2041      	movs	r0, #65	@ 0x41
 80023b2:	f7ff fdc1 	bl	8001f38 <bmi3_set_regs>
 80023b6:	2800      	cmp	r0, #0
 80023b8:	d183      	bne.n	80022c2 <bmi3_set_sensor_config+0x7e>
 80023ba:	79a2      	ldrb	r2, [r4, #6]
 80023bc:	88a3      	ldrh	r3, [r4, #4]
 80023be:	f88d 3010 	strb.w	r3, [sp, #16]
 80023c2:	0112      	lsls	r2, r2, #4
 80023c4:	f002 0210 	and.w	r2, r2, #16
 80023c8:	f3c3 2303 	ubfx	r3, r3, #8, #4
 80023cc:	4313      	orrs	r3, r2
 80023ce:	f88d 3011 	strb.w	r3, [sp, #17]
 80023d2:	8923      	ldrh	r3, [r4, #8]
 80023d4:	f88d 3012 	strb.w	r3, [sp, #18]
 80023d8:	f3c3 2301 	ubfx	r3, r3, #8, #2
 80023dc:	f88d 3013 	strb.w	r3, [sp, #19]
 80023e0:	8863      	ldrh	r3, [r4, #2]
 80023e2:	8962      	ldrh	r2, [r4, #10]
 80023e4:	f88d 3014 	strb.w	r3, [sp, #20]
 80023e8:	f3c3 2304 	ubfx	r3, r3, #8, #5
 80023ec:	ea43 1342 	orr.w	r3, r3, r2, lsl #5
 80023f0:	f88d 3015 	strb.w	r3, [sp, #21]
 80023f4:	2206      	movs	r2, #6
 80023f6:	462b      	mov	r3, r5
 80023f8:	e07a      	b.n	80024f0 <bmi3_set_sensor_config+0x2ac>
 80023fa:	2308      	movs	r3, #8
 80023fc:	e7cf      	b.n	800239e <bmi3_set_sensor_config+0x15a>
 80023fe:	230d      	movs	r3, #13
 8002400:	f8ad 3004 	strh.w	r3, [sp, #4]
 8002404:	4629      	mov	r1, r5
 8002406:	2300      	movs	r3, #0
 8002408:	a802      	add	r0, sp, #8
 800240a:	9304      	str	r3, [sp, #16]
 800240c:	f8ad 3014 	strh.w	r3, [sp, #20]
 8002410:	9302      	str	r3, [sp, #8]
 8002412:	f88d 300c 	strb.w	r3, [sp, #12]
 8002416:	f7ff fd39 	bl	8001e8c <get_accel_config>
 800241a:	2800      	cmp	r0, #0
 800241c:	f47f af51 	bne.w	80022c2 <bmi3_set_sensor_config+0x7e>
 8002420:	f89d 300a 	ldrb.w	r3, [sp, #10]
 8002424:	2b03      	cmp	r3, #3
 8002426:	d106      	bne.n	8002436 <bmi3_set_sensor_config+0x1f2>
 8002428:	f89d 3008 	ldrb.w	r3, [sp, #8]
 800242c:	2b06      	cmp	r3, #6
 800242e:	d802      	bhi.n	8002436 <bmi3_set_sensor_config+0x1f2>
 8002430:	f06f 0003 	mvn.w	r0, #3
 8002434:	e745      	b.n	80022c2 <bmi3_set_sensor_config+0x7e>
 8002436:	462b      	mov	r3, r5
 8002438:	2202      	movs	r2, #2
 800243a:	a901      	add	r1, sp, #4
 800243c:	2041      	movs	r0, #65	@ 0x41
 800243e:	f7ff fd7b 	bl	8001f38 <bmi3_set_regs>
 8002442:	2800      	cmp	r0, #0
 8002444:	f47f af3d 	bne.w	80022c2 <bmi3_set_sensor_config+0x7e>
 8002448:	8863      	ldrh	r3, [r4, #2]
 800244a:	f8ad 3010 	strh.w	r3, [sp, #16]
 800244e:	88a3      	ldrh	r3, [r4, #4]
 8002450:	79a2      	ldrb	r2, [r4, #6]
 8002452:	f88d 3012 	strb.w	r3, [sp, #18]
 8002456:	f3c3 2301 	ubfx	r3, r3, #8, #2
 800245a:	ea43 0382 	orr.w	r3, r3, r2, lsl #2
 800245e:	f88d 3013 	strb.w	r3, [sp, #19]
 8002462:	8923      	ldrh	r3, [r4, #8]
 8002464:	7aa2      	ldrb	r2, [r4, #10]
 8002466:	f88d 3014 	strb.w	r3, [sp, #20]
 800246a:	f3c3 2301 	ubfx	r3, r3, #8, #2
 800246e:	ea43 0382 	orr.w	r3, r3, r2, lsl #2
 8002472:	e7bd      	b.n	80023f0 <bmi3_set_sensor_config+0x1ac>
 8002474:	2300      	movs	r3, #0
 8002476:	9304      	str	r3, [sp, #16]
 8002478:	230b      	movs	r3, #11
 800247a:	f8ad 3008 	strh.w	r3, [sp, #8]
 800247e:	2202      	movs	r2, #2
 8002480:	462b      	mov	r3, r5
 8002482:	a902      	add	r1, sp, #8
 8002484:	2041      	movs	r0, #65	@ 0x41
 8002486:	f7ff fd57 	bl	8001f38 <bmi3_set_regs>
 800248a:	2800      	cmp	r0, #0
 800248c:	f47f af19 	bne.w	80022c2 <bmi3_set_sensor_config+0x7e>
 8002490:	f89d 3010 	ldrb.w	r3, [sp, #16]
 8002494:	88a2      	ldrh	r2, [r4, #4]
 8002496:	f023 033f 	bic.w	r3, r3, #63	@ 0x3f
 800249a:	ea43 1382 	orr.w	r3, r3, r2, lsl #6
 800249e:	8862      	ldrh	r2, [r4, #2]
 80024a0:	f002 023f 	and.w	r2, r2, #63	@ 0x3f
 80024a4:	4313      	orrs	r3, r2
 80024a6:	f88d 3010 	strb.w	r3, [sp, #16]
 80024aa:	8923      	ldrh	r3, [r4, #8]
 80024ac:	f88d 3011 	strb.w	r3, [sp, #17]
 80024b0:	8963      	ldrh	r3, [r4, #10]
 80024b2:	f88d 3012 	strb.w	r3, [sp, #18]
 80024b6:	88e3      	ldrh	r3, [r4, #6]
 80024b8:	f88d 3013 	strb.w	r3, [sp, #19]
 80024bc:	e016      	b.n	80024ec <bmi3_set_sensor_config+0x2a8>
 80024be:	2321      	movs	r3, #33	@ 0x21
 80024c0:	f8ad 3008 	strh.w	r3, [sp, #8]
 80024c4:	2300      	movs	r3, #0
 80024c6:	9304      	str	r3, [sp, #16]
 80024c8:	2202      	movs	r2, #2
 80024ca:	462b      	mov	r3, r5
 80024cc:	a902      	add	r1, sp, #8
 80024ce:	2041      	movs	r0, #65	@ 0x41
 80024d0:	f7ff fd32 	bl	8001f38 <bmi3_set_regs>
 80024d4:	2800      	cmp	r0, #0
 80024d6:	f47f aef4 	bne.w	80022c2 <bmi3_set_sensor_config+0x7e>
 80024da:	8863      	ldrh	r3, [r4, #2]
 80024dc:	f88d 3010 	strb.w	r3, [sp, #16]
 80024e0:	88a3      	ldrh	r3, [r4, #4]
 80024e2:	f88d 3011 	strb.w	r3, [sp, #17]
 80024e6:	88e3      	ldrh	r3, [r4, #6]
 80024e8:	f8ad 3012 	strh.w	r3, [sp, #18]
 80024ec:	462b      	mov	r3, r5
 80024ee:	2204      	movs	r2, #4
 80024f0:	a904      	add	r1, sp, #16
 80024f2:	2042      	movs	r0, #66	@ 0x42
 80024f4:	e74f      	b.n	8002396 <bmi3_set_sensor_config+0x152>
 80024f6:	2300      	movs	r3, #0
 80024f8:	9304      	str	r3, [sp, #16]
 80024fa:	231c      	movs	r3, #28
 80024fc:	f8ad 3008 	strh.w	r3, [sp, #8]
 8002500:	2202      	movs	r2, #2
 8002502:	462b      	mov	r3, r5
 8002504:	a902      	add	r1, sp, #8
 8002506:	2041      	movs	r0, #65	@ 0x41
 8002508:	f7ff fd16 	bl	8001f38 <bmi3_set_regs>
 800250c:	2800      	cmp	r0, #0
 800250e:	f47f aed8 	bne.w	80022c2 <bmi3_set_sensor_config+0x7e>
 8002512:	78a3      	ldrb	r3, [r4, #2]
 8002514:	7962      	ldrb	r2, [r4, #5]
 8002516:	f89d 1010 	ldrb.w	r1, [sp, #16]
 800251a:	f003 0301 	and.w	r3, r3, #1
 800251e:	ea43 1342 	orr.w	r3, r3, r2, lsl #5
 8002522:	f021 0101 	bic.w	r1, r1, #1
 8002526:	430b      	orrs	r3, r1
 8002528:	78e1      	ldrb	r1, [r4, #3]
 800252a:	0049      	lsls	r1, r1, #1
 800252c:	f001 0106 	and.w	r1, r1, #6
 8002530:	430b      	orrs	r3, r1
 8002532:	7921      	ldrb	r1, [r4, #4]
 8002534:	00c9      	lsls	r1, r1, #3
 8002536:	f001 0118 	and.w	r1, r1, #24
 800253a:	430b      	orrs	r3, r1
 800253c:	f88d 3010 	strb.w	r3, [sp, #16]
 8002540:	79a3      	ldrb	r3, [r4, #6]
 8002542:	f3c2 02c2 	ubfx	r2, r2, #3, #3
 8002546:	ea42 02c3 	orr.w	r2, r2, r3, lsl #3
 800254a:	7a23      	ldrb	r3, [r4, #8]
 800254c:	f88d 3012 	strb.w	r3, [sp, #18]
 8002550:	f88d 2011 	strb.w	r2, [sp, #17]
 8002554:	79e3      	ldrb	r3, [r4, #7]
 8002556:	e7af      	b.n	80024b8 <bmi3_set_sensor_config+0x274>
 8002558:	00000000 	.word	0x00000000
 800255c:	0800a570 	.word	0x0800a570
 8002560:	45c80000 	.word	0x45c80000
 8002564:	0800a58c 	.word	0x0800a58c
 8002568:	2310      	movs	r3, #16
 800256a:	2100      	movs	r1, #0
 800256c:	eb0d 0003 	add.w	r0, sp, r3
 8002570:	2218      	movs	r2, #24
 8002572:	f8ad 3004 	strh.w	r3, [sp, #4]
 8002576:	f005 fb49 	bl	8007c0c <memset>
 800257a:	2300      	movs	r3, #0
 800257c:	4629      	mov	r1, r5
 800257e:	a802      	add	r0, sp, #8
 8002580:	9302      	str	r3, [sp, #8]
 8002582:	f88d 300c 	strb.w	r3, [sp, #12]
 8002586:	f7ff fc81 	bl	8001e8c <get_accel_config>
 800258a:	2800      	cmp	r0, #0
 800258c:	f47f ae99 	bne.w	80022c2 <bmi3_set_sensor_config+0x7e>
 8002590:	f89d 300a 	ldrb.w	r3, [sp, #10]
 8002594:	2b03      	cmp	r3, #3
 8002596:	d104      	bne.n	80025a2 <bmi3_set_sensor_config+0x35e>
 8002598:	f89d 3008 	ldrb.w	r3, [sp, #8]
 800259c:	2b06      	cmp	r3, #6
 800259e:	f67f af47 	bls.w	8002430 <bmi3_set_sensor_config+0x1ec>
 80025a2:	462b      	mov	r3, r5
 80025a4:	2202      	movs	r2, #2
 80025a6:	a901      	add	r1, sp, #4
 80025a8:	2041      	movs	r0, #65	@ 0x41
 80025aa:	f7ff fcc5 	bl	8001f38 <bmi3_set_regs>
 80025ae:	2800      	cmp	r0, #0
 80025b0:	f47f ae87 	bne.w	80022c2 <bmi3_set_sensor_config+0x7e>
 80025b4:	88a2      	ldrh	r2, [r4, #4]
 80025b6:	8863      	ldrh	r3, [r4, #2]
 80025b8:	f88d 3010 	strb.w	r3, [sp, #16]
 80025bc:	0092      	lsls	r2, r2, #2
 80025be:	f002 0204 	and.w	r2, r2, #4
 80025c2:	f3c3 2301 	ubfx	r3, r3, #8, #2
 80025c6:	4313      	orrs	r3, r2
 80025c8:	f88d 3011 	strb.w	r3, [sp, #17]
 80025cc:	88e3      	ldrh	r3, [r4, #6]
 80025ce:	f8ad 3012 	strh.w	r3, [sp, #18]
 80025d2:	8923      	ldrh	r3, [r4, #8]
 80025d4:	f8ad 3014 	strh.w	r3, [sp, #20]
 80025d8:	8963      	ldrh	r3, [r4, #10]
 80025da:	f8ad 3016 	strh.w	r3, [sp, #22]
 80025de:	89a3      	ldrh	r3, [r4, #12]
 80025e0:	f8ad 3018 	strh.w	r3, [sp, #24]
 80025e4:	89e3      	ldrh	r3, [r4, #14]
 80025e6:	f8ad 301a 	strh.w	r3, [sp, #26]
 80025ea:	8a23      	ldrh	r3, [r4, #16]
 80025ec:	f8ad 301c 	strh.w	r3, [sp, #28]
 80025f0:	f89d 301e 	ldrb.w	r3, [sp, #30]
 80025f4:	8ae1      	ldrh	r1, [r4, #22]
 80025f6:	8a62      	ldrh	r2, [r4, #18]
 80025f8:	f023 030f 	bic.w	r3, r3, #15
 80025fc:	ea43 1341 	orr.w	r3, r3, r1, lsl #5
 8002600:	f002 020f 	and.w	r2, r2, #15
 8002604:	4313      	orrs	r3, r2
 8002606:	8aa2      	ldrh	r2, [r4, #20]
 8002608:	0112      	lsls	r2, r2, #4
 800260a:	f002 0210 	and.w	r2, r2, #16
 800260e:	4313      	orrs	r3, r2
 8002610:	f88d 301e 	strb.w	r3, [sp, #30]
 8002614:	8b23      	ldrh	r3, [r4, #24]
 8002616:	f88d 3020 	strb.w	r3, [sp, #32]
 800261a:	8b63      	ldrh	r3, [r4, #26]
 800261c:	f88d 3021 	strb.w	r3, [sp, #33]	@ 0x21
 8002620:	08c9      	lsrs	r1, r1, #3
 8002622:	f89d 3022 	ldrb.w	r3, [sp, #34]	@ 0x22
 8002626:	8be2      	ldrh	r2, [r4, #30]
 8002628:	f88d 101f 	strb.w	r1, [sp, #31]
 800262c:	8ba1      	ldrh	r1, [r4, #28]
 800262e:	f023 030f 	bic.w	r3, r3, #15
 8002632:	ea43 1302 	orr.w	r3, r3, r2, lsl #4
 8002636:	f001 010f 	and.w	r1, r1, #15
 800263a:	430b      	orrs	r3, r1
 800263c:	f88d 3022 	strb.w	r3, [sp, #34]	@ 0x22
 8002640:	0912      	lsrs	r2, r2, #4
 8002642:	8c23      	ldrh	r3, [r4, #32]
 8002644:	f88d 2023 	strb.w	r2, [sp, #35]	@ 0x23
 8002648:	f88d 3024 	strb.w	r3, [sp, #36]	@ 0x24
 800264c:	8c63      	ldrh	r3, [r4, #34]	@ 0x22
 800264e:	f88d 3025 	strb.w	r3, [sp, #37]	@ 0x25
 8002652:	f89d 3026 	ldrb.w	r3, [sp, #38]	@ 0x26
 8002656:	8d61      	ldrh	r1, [r4, #42]	@ 0x2a
 8002658:	8ca2      	ldrh	r2, [r4, #36]	@ 0x24
 800265a:	f023 0301 	bic.w	r3, r3, #1
 800265e:	ea43 1341 	orr.w	r3, r3, r1, lsl #5
 8002662:	f002 0201 	and.w	r2, r2, #1
 8002666:	4313      	orrs	r3, r2
 8002668:	8ce2      	ldrh	r2, [r4, #38]	@ 0x26
 800266a:	0052      	lsls	r2, r2, #1
 800266c:	f002 020e 	and.w	r2, r2, #14
 8002670:	4313      	orrs	r3, r2
 8002672:	8d22      	ldrh	r2, [r4, #40]	@ 0x28
 8002674:	0112      	lsls	r2, r2, #4
 8002676:	f002 0210 	and.w	r2, r2, #16
 800267a:	4313      	orrs	r3, r2
 800267c:	f3c1 01c1 	ubfx	r1, r1, #3, #2
 8002680:	f88d 3026 	strb.w	r3, [sp, #38]	@ 0x26
 8002684:	f88d 1027 	strb.w	r1, [sp, #39]	@ 0x27
 8002688:	462b      	mov	r3, r5
 800268a:	2218      	movs	r2, #24
 800268c:	e730      	b.n	80024f0 <bmi3_set_sensor_config+0x2ac>
 800268e:	2300      	movs	r3, #0
 8002690:	221e      	movs	r2, #30
 8002692:	4629      	mov	r1, r5
 8002694:	a802      	add	r0, sp, #8
 8002696:	9304      	str	r3, [sp, #16]
 8002698:	f8ad 3014 	strh.w	r3, [sp, #20]
 800269c:	f8ad 2004 	strh.w	r2, [sp, #4]
 80026a0:	9302      	str	r3, [sp, #8]
 80026a2:	f88d 300c 	strb.w	r3, [sp, #12]
 80026a6:	f7ff fbf1 	bl	8001e8c <get_accel_config>
 80026aa:	2800      	cmp	r0, #0
 80026ac:	f47f ae09 	bne.w	80022c2 <bmi3_set_sensor_config+0x7e>
 80026b0:	f89d 300a 	ldrb.w	r3, [sp, #10]
 80026b4:	2b03      	cmp	r3, #3
 80026b6:	d104      	bne.n	80026c2 <bmi3_set_sensor_config+0x47e>
 80026b8:	f89d 3008 	ldrb.w	r3, [sp, #8]
 80026bc:	2b08      	cmp	r3, #8
 80026be:	f67f aeb7 	bls.w	8002430 <bmi3_set_sensor_config+0x1ec>
 80026c2:	462b      	mov	r3, r5
 80026c4:	2202      	movs	r2, #2
 80026c6:	a901      	add	r1, sp, #4
 80026c8:	2041      	movs	r0, #65	@ 0x41
 80026ca:	f7ff fc35 	bl	8001f38 <bmi3_set_regs>
 80026ce:	2800      	cmp	r0, #0
 80026d0:	f47f adf7 	bne.w	80022c2 <bmi3_set_sensor_config+0x7e>
 80026d4:	78a3      	ldrb	r3, [r4, #2]
 80026d6:	7962      	ldrb	r2, [r4, #5]
 80026d8:	f003 0303 	and.w	r3, r3, #3
 80026dc:	ea43 1382 	orr.w	r3, r3, r2, lsl #6
 80026e0:	f89d 2010 	ldrb.w	r2, [sp, #16]
 80026e4:	f022 0203 	bic.w	r2, r2, #3
 80026e8:	4313      	orrs	r3, r2
 80026ea:	78e2      	ldrb	r2, [r4, #3]
 80026ec:	0092      	lsls	r2, r2, #2
 80026ee:	f002 0204 	and.w	r2, r2, #4
 80026f2:	4313      	orrs	r3, r2
 80026f4:	7922      	ldrb	r2, [r4, #4]
 80026f6:	00d2      	lsls	r2, r2, #3
 80026f8:	f002 0238 	and.w	r2, r2, #56	@ 0x38
 80026fc:	4313      	orrs	r3, r2
 80026fe:	f88d 3010 	strb.w	r3, [sp, #16]
 8002702:	88e3      	ldrh	r3, [r4, #6]
 8002704:	7a22      	ldrb	r2, [r4, #8]
 8002706:	f88d 3012 	strb.w	r3, [sp, #18]
 800270a:	f3c3 2301 	ubfx	r3, r3, #8, #2
 800270e:	ea43 0382 	orr.w	r3, r3, r2, lsl #2
 8002712:	f88d 3013 	strb.w	r3, [sp, #19]
 8002716:	7a63      	ldrb	r3, [r4, #9]
 8002718:	7aa2      	ldrb	r2, [r4, #10]
 800271a:	f003 030f 	and.w	r3, r3, #15
 800271e:	ea43 1302 	orr.w	r3, r3, r2, lsl #4
 8002722:	f88d 3014 	strb.w	r3, [sp, #20]
 8002726:	7ae3      	ldrb	r3, [r4, #11]
 8002728:	7b22      	ldrb	r2, [r4, #12]
 800272a:	f003 030f 	and.w	r3, r3, #15
 800272e:	ea43 1302 	orr.w	r3, r3, r2, lsl #4
 8002732:	e65d      	b.n	80023f0 <bmi3_set_sensor_config+0x1ac>
 8002734:	4629      	mov	r1, r5
 8002736:	4630      	mov	r0, r6
 8002738:	f7ff fcac 	bl	8002094 <set_alternate_accel_config>
 800273c:	e5af      	b.n	800229e <bmi3_set_sensor_config+0x5a>
 800273e:	4629      	mov	r1, r5
 8002740:	4630      	mov	r0, r6
 8002742:	f7ff fcc1 	bl	80020c8 <set_alternate_gyro_config>
 8002746:	e5aa      	b.n	800229e <bmi3_set_sensor_config+0x5a>
 8002748:	2300      	movs	r3, #0
 800274a:	f8ad 3008 	strh.w	r3, [sp, #8]
 800274e:	2323      	movs	r3, #35	@ 0x23
 8002750:	f8ad 3010 	strh.w	r3, [sp, #16]
 8002754:	2202      	movs	r2, #2
 8002756:	462b      	mov	r3, r5
 8002758:	a904      	add	r1, sp, #16
 800275a:	2041      	movs	r0, #65	@ 0x41
 800275c:	f7ff fbec 	bl	8001f38 <bmi3_set_regs>
 8002760:	2800      	cmp	r0, #0
 8002762:	f47f adae 	bne.w	80022c2 <bmi3_set_sensor_config+0x7e>
 8002766:	78a3      	ldrb	r3, [r4, #2]
 8002768:	78e2      	ldrb	r2, [r4, #3]
 800276a:	f003 030f 	and.w	r3, r3, #15
 800276e:	ea43 1302 	orr.w	r3, r3, r2, lsl #4
 8002772:	f89d 2008 	ldrb.w	r2, [sp, #8]
 8002776:	4313      	orrs	r3, r2
 8002778:	f88d 3008 	strb.w	r3, [sp, #8]
 800277c:	2202      	movs	r2, #2
 800277e:	462b      	mov	r3, r5
 8002780:	a902      	add	r1, sp, #8
 8002782:	e6b6      	b.n	80024f2 <bmi3_set_sensor_config+0x2ae>
 8002784:	f04f 30ff 	mov.w	r0, #4294967295	@ 0xffffffff
 8002788:	e59b      	b.n	80022c2 <bmi3_set_sensor_config+0x7e>
 800278a:	f06f 0005 	mvn.w	r0, #5
 800278e:	e598      	b.n	80022c2 <bmi3_set_sensor_config+0x7e>

08002790 <bmi3_get_sensor_config>:
 8002790:	e92d 4ff0 	stmdb	sp!, {r4, r5, r6, r7, r8, r9, sl, fp, lr}
 8002794:	4604      	mov	r4, r0
 8002796:	b099      	sub	sp, #100	@ 0x64
 8002798:	4610      	mov	r0, r2
 800279a:	4615      	mov	r5, r2
 800279c:	f7ff fb18 	bl	8001dd0 <null_ptr_check>
 80027a0:	2800      	cmp	r0, #0
 80027a2:	f040 81fc 	bne.w	8002b9e <bmi3_get_sensor_config+0x40e>
 80027a6:	2c00      	cmp	r4, #0
 80027a8:	f000 81f9 	beq.w	8002b9e <bmi3_get_sensor_config+0x40e>
 80027ac:	232c      	movs	r3, #44	@ 0x2c
 80027ae:	fb03 4301 	mla	r3, r3, r1, r4
 80027b2:	1ca6      	adds	r6, r4, #2
 80027b4:	9301      	str	r3, [sp, #4]
 80027b6:	9b01      	ldr	r3, [sp, #4]
 80027b8:	429c      	cmp	r4, r3
 80027ba:	d101      	bne.n	80027c0 <bmi3_get_sensor_config+0x30>
 80027bc:	2000      	movs	r0, #0
 80027be:	e017      	b.n	80027f0 <bmi3_get_sensor_config+0x60>
 80027c0:	7823      	ldrb	r3, [r4, #0]
 80027c2:	2b0c      	cmp	r3, #12
 80027c4:	f200 81ee 	bhi.w	8002ba4 <bmi3_get_sensor_config+0x414>
 80027c8:	e8df f013 	tbh	[pc, r3, lsl #1]
 80027cc:	0015000d 	.word	0x0015000d
 80027d0:	0035007d 	.word	0x0035007d
 80027d4:	01170060 	.word	0x01170060
 80027d8:	00eb00ca 	.word	0x00eb00ca
 80027dc:	018400a2 	.word	0x018400a2
 80027e0:	01c401bf 	.word	0x01c401bf
 80027e4:	01c9      	.short	0x01c9
 80027e6:	4629      	mov	r1, r5
 80027e8:	4630      	mov	r0, r6
 80027ea:	f7ff fb4f 	bl	8001e8c <get_accel_config>
 80027ee:	b1f8      	cbz	r0, 8002830 <bmi3_get_sensor_config+0xa0>
 80027f0:	b019      	add	sp, #100	@ 0x64
 80027f2:	e8bd 8ff0 	ldmia.w	sp!, {r4, r5, r6, r7, r8, r9, sl, fp, pc}
 80027f6:	2300      	movs	r3, #0
 80027f8:	f8ad 3014 	strh.w	r3, [sp, #20]
 80027fc:	2202      	movs	r2, #2
 80027fe:	462b      	mov	r3, r5
 8002800:	a905      	add	r1, sp, #20
 8002802:	2021      	movs	r0, #33	@ 0x21
 8002804:	f7ff fb0e 	bl	8001e24 <bmi3_get_regs>
 8002808:	2800      	cmp	r0, #0
 800280a:	d1f1      	bne.n	80027f0 <bmi3_get_sensor_config+0x60>
 800280c:	f89d 3014 	ldrb.w	r3, [sp, #20]
 8002810:	f89d 2015 	ldrb.w	r2, [sp, #21]
 8002814:	f003 010f 	and.w	r1, r3, #15
 8002818:	70a1      	strb	r1, [r4, #2]
 800281a:	f3c3 1102 	ubfx	r1, r3, #4, #3
 800281e:	11db      	asrs	r3, r3, #7
 8002820:	70e3      	strb	r3, [r4, #3]
 8002822:	f002 0307 	and.w	r3, r2, #7
 8002826:	f3c2 1202 	ubfx	r2, r2, #4, #3
 800282a:	7161      	strb	r1, [r4, #5]
 800282c:	71a3      	strb	r3, [r4, #6]
 800282e:	7122      	strb	r2, [r4, #4]
 8002830:	342c      	adds	r4, #44	@ 0x2c
 8002832:	362c      	adds	r6, #44	@ 0x2c
 8002834:	e7bf      	b.n	80027b6 <bmi3_get_sensor_config+0x26>
 8002836:	2305      	movs	r3, #5
 8002838:	f8ad 3038 	strh.w	r3, [sp, #56]	@ 0x38
 800283c:	2202      	movs	r2, #2
 800283e:	462b      	mov	r3, r5
 8002840:	a90e      	add	r1, sp, #56	@ 0x38
 8002842:	2041      	movs	r0, #65	@ 0x41
 8002844:	f7ff fb78 	bl	8001f38 <bmi3_set_regs>
 8002848:	2800      	cmp	r0, #0
 800284a:	d1d1      	bne.n	80027f0 <bmi3_get_sensor_config+0x60>
 800284c:	900a      	str	r0, [sp, #40]	@ 0x28
 800284e:	f8ad 002c 	strh.w	r0, [sp, #44]	@ 0x2c
 8002852:	462b      	mov	r3, r5
 8002854:	2206      	movs	r2, #6
 8002856:	a90a      	add	r1, sp, #40	@ 0x28
 8002858:	2042      	movs	r0, #66	@ 0x42
 800285a:	f7ff fae3 	bl	8001e24 <bmi3_get_regs>
 800285e:	2800      	cmp	r0, #0
 8002860:	d1c6      	bne.n	80027f0 <bmi3_get_sensor_config+0x60>
 8002862:	f8bd 2028 	ldrh.w	r2, [sp, #40]	@ 0x28
 8002866:	f8bd 102a 	ldrh.w	r1, [sp, #42]	@ 0x2a
 800286a:	f8bd 302c 	ldrh.w	r3, [sp, #44]	@ 0x2c
 800286e:	f3c2 000b 	ubfx	r0, r2, #0, #12
 8002872:	f3c2 3200 	ubfx	r2, r2, #12, #1
 8002876:	71a2      	strb	r2, [r4, #6]
 8002878:	f3c1 0209 	ubfx	r2, r1, #0, #10
 800287c:	8122      	strh	r2, [r4, #8]
 800287e:	f3c3 020c 	ubfx	r2, r3, #0, #13
 8002882:	0b5b      	lsrs	r3, r3, #13
 8002884:	80a0      	strh	r0, [r4, #4]
 8002886:	8062      	strh	r2, [r4, #2]
 8002888:	8163      	strh	r3, [r4, #10]
 800288a:	e7d1      	b.n	8002830 <bmi3_get_sensor_config+0xa0>
 800288c:	2308      	movs	r3, #8
 800288e:	f8ad 3038 	strh.w	r3, [sp, #56]	@ 0x38
 8002892:	2202      	movs	r2, #2
 8002894:	462b      	mov	r3, r5
 8002896:	a90e      	add	r1, sp, #56	@ 0x38
 8002898:	2041      	movs	r0, #65	@ 0x41
 800289a:	f7ff fb4d 	bl	8001f38 <bmi3_set_regs>
 800289e:	2800      	cmp	r0, #0
 80028a0:	d1a6      	bne.n	80027f0 <bmi3_get_sensor_config+0x60>
 80028a2:	900c      	str	r0, [sp, #48]	@ 0x30
 80028a4:	f8ad 0034 	strh.w	r0, [sp, #52]	@ 0x34
 80028a8:	462b      	mov	r3, r5
 80028aa:	2206      	movs	r2, #6
 80028ac:	a90c      	add	r1, sp, #48	@ 0x30
 80028ae:	2042      	movs	r0, #66	@ 0x42
 80028b0:	f7ff fab8 	bl	8001e24 <bmi3_get_regs>
 80028b4:	2800      	cmp	r0, #0
 80028b6:	d19b      	bne.n	80027f0 <bmi3_get_sensor_config+0x60>
 80028b8:	f8bd 2030 	ldrh.w	r2, [sp, #48]	@ 0x30
 80028bc:	f8bd 1032 	ldrh.w	r1, [sp, #50]	@ 0x32
 80028c0:	f8bd 3034 	ldrh.w	r3, [sp, #52]	@ 0x34
 80028c4:	e7d3      	b.n	800286e <bmi3_get_sensor_config+0xde>
 80028c6:	230d      	movs	r3, #13
 80028c8:	f8ad 3018 	strh.w	r3, [sp, #24]
 80028cc:	2202      	movs	r2, #2
 80028ce:	462b      	mov	r3, r5
 80028d0:	a906      	add	r1, sp, #24
 80028d2:	2041      	movs	r0, #65	@ 0x41
 80028d4:	f7ff fb30 	bl	8001f38 <bmi3_set_regs>
 80028d8:	2800      	cmp	r0, #0
 80028da:	d189      	bne.n	80027f0 <bmi3_get_sensor_config+0x60>
 80028dc:	462b      	mov	r3, r5
 80028de:	2206      	movs	r2, #6
 80028e0:	a90e      	add	r1, sp, #56	@ 0x38
 80028e2:	2042      	movs	r0, #66	@ 0x42
 80028e4:	f7ff fa9e 	bl	8001e24 <bmi3_get_regs>
 80028e8:	2800      	cmp	r0, #0
 80028ea:	d181      	bne.n	80027f0 <bmi3_get_sensor_config+0x60>
 80028ec:	f8bd 3038 	ldrh.w	r3, [sp, #56]	@ 0x38
 80028f0:	8063      	strh	r3, [r4, #2]
 80028f2:	f8bd 303a 	ldrh.w	r3, [sp, #58]	@ 0x3a
 80028f6:	f3c3 0209 	ubfx	r2, r3, #0, #10
 80028fa:	0a9b      	lsrs	r3, r3, #10
 80028fc:	71a3      	strb	r3, [r4, #6]
 80028fe:	f8bd 303c 	ldrh.w	r3, [sp, #60]	@ 0x3c
 8002902:	80a2      	strh	r2, [r4, #4]
 8002904:	f3c3 0209 	ubfx	r2, r3, #0, #10
 8002908:	0a9b      	lsrs	r3, r3, #10
 800290a:	8122      	strh	r2, [r4, #8]
 800290c:	72a3      	strb	r3, [r4, #10]
 800290e:	e78f      	b.n	8002830 <bmi3_get_sensor_config+0xa0>
 8002910:	230b      	movs	r3, #11
 8002912:	f8ad 3038 	strh.w	r3, [sp, #56]	@ 0x38
 8002916:	2202      	movs	r2, #2
 8002918:	462b      	mov	r3, r5
 800291a:	a90e      	add	r1, sp, #56	@ 0x38
 800291c:	2041      	movs	r0, #65	@ 0x41
 800291e:	f7ff fb0b 	bl	8001f38 <bmi3_set_regs>
 8002922:	2800      	cmp	r0, #0
 8002924:	f47f af64 	bne.w	80027f0 <bmi3_get_sensor_config+0x60>
 8002928:	9007      	str	r0, [sp, #28]
 800292a:	462b      	mov	r3, r5
 800292c:	2204      	movs	r2, #4
 800292e:	a907      	add	r1, sp, #28
 8002930:	2042      	movs	r0, #66	@ 0x42
 8002932:	f7ff fa77 	bl	8001e24 <bmi3_get_regs>
 8002936:	2800      	cmp	r0, #0
 8002938:	f47f af5a 	bne.w	80027f0 <bmi3_get_sensor_config+0x60>
 800293c:	f8bd 301c 	ldrh.w	r3, [sp, #28]
 8002940:	f8bd 201e 	ldrh.w	r2, [sp, #30]
 8002944:	f003 013f 	and.w	r1, r3, #63	@ 0x3f
 8002948:	8061      	strh	r1, [r4, #2]
 800294a:	f3c3 1181 	ubfx	r1, r3, #6, #2
 800294e:	0a1b      	lsrs	r3, r3, #8
 8002950:	8123      	strh	r3, [r4, #8]
 8002952:	f89d 301e 	ldrb.w	r3, [sp, #30]
 8002956:	8163      	strh	r3, [r4, #10]
 8002958:	0a13      	lsrs	r3, r2, #8
 800295a:	80a1      	strh	r1, [r4, #4]
 800295c:	80e3      	strh	r3, [r4, #6]
 800295e:	e767      	b.n	8002830 <bmi3_get_sensor_config+0xa0>
 8002960:	2321      	movs	r3, #33	@ 0x21
 8002962:	f8ad 3038 	strh.w	r3, [sp, #56]	@ 0x38
 8002966:	2202      	movs	r2, #2
 8002968:	462b      	mov	r3, r5
 800296a:	a90e      	add	r1, sp, #56	@ 0x38
 800296c:	2041      	movs	r0, #65	@ 0x41
 800296e:	f7ff fae3 	bl	8001f38 <bmi3_set_regs>
 8002972:	2800      	cmp	r0, #0
 8002974:	f47f af3c 	bne.w	80027f0 <bmi3_get_sensor_config+0x60>
 8002978:	9008      	str	r0, [sp, #32]
 800297a:	462b      	mov	r3, r5
 800297c:	2204      	movs	r2, #4
 800297e:	a908      	add	r1, sp, #32
 8002980:	2042      	movs	r0, #66	@ 0x42
 8002982:	f7ff fa4f 	bl	8001e24 <bmi3_get_regs>
 8002986:	2800      	cmp	r0, #0
 8002988:	f47f af32 	bne.w	80027f0 <bmi3_get_sensor_config+0x60>
 800298c:	f8bd 3020 	ldrh.w	r3, [sp, #32]
 8002990:	f8bd 2022 	ldrh.w	r2, [sp, #34]	@ 0x22
 8002994:	f89d 1020 	ldrb.w	r1, [sp, #32]
 8002998:	8061      	strh	r1, [r4, #2]
 800299a:	0a1b      	lsrs	r3, r3, #8
 800299c:	80a3      	strh	r3, [r4, #4]
 800299e:	80e2      	strh	r2, [r4, #6]
 80029a0:	e746      	b.n	8002830 <bmi3_get_sensor_config+0xa0>
 80029a2:	231c      	movs	r3, #28
 80029a4:	f8ad 3038 	strh.w	r3, [sp, #56]	@ 0x38
 80029a8:	2202      	movs	r2, #2
 80029aa:	462b      	mov	r3, r5
 80029ac:	a90e      	add	r1, sp, #56	@ 0x38
 80029ae:	2041      	movs	r0, #65	@ 0x41
 80029b0:	f7ff fac2 	bl	8001f38 <bmi3_set_regs>
 80029b4:	2800      	cmp	r0, #0
 80029b6:	f47f af1b 	bne.w	80027f0 <bmi3_get_sensor_config+0x60>
 80029ba:	9009      	str	r0, [sp, #36]	@ 0x24
 80029bc:	462b      	mov	r3, r5
 80029be:	2204      	movs	r2, #4
 80029c0:	a909      	add	r1, sp, #36	@ 0x24
 80029c2:	2042      	movs	r0, #66	@ 0x42
 80029c4:	f7ff fa2e 	bl	8001e24 <bmi3_get_regs>
 80029c8:	2800      	cmp	r0, #0
 80029ca:	f47f af11 	bne.w	80027f0 <bmi3_get_sensor_config+0x60>
 80029ce:	f8bd 3024 	ldrh.w	r3, [sp, #36]	@ 0x24
 80029d2:	f8bd 2026 	ldrh.w	r2, [sp, #38]	@ 0x26
 80029d6:	7222      	strb	r2, [r4, #8]
 80029d8:	f003 0101 	and.w	r1, r3, #1
 80029dc:	70a1      	strb	r1, [r4, #2]
 80029de:	f3c3 0141 	ubfx	r1, r3, #1, #2
 80029e2:	70e1      	strb	r1, [r4, #3]
 80029e4:	f3c3 01c1 	ubfx	r1, r3, #3, #2
 80029e8:	7121      	strb	r1, [r4, #4]
 80029ea:	0a12      	lsrs	r2, r2, #8
 80029ec:	f3c3 1145 	ubfx	r1, r3, #5, #6
 80029f0:	0adb      	lsrs	r3, r3, #11
 80029f2:	7161      	strb	r1, [r4, #5]
 80029f4:	71a3      	strb	r3, [r4, #6]
 80029f6:	71e2      	strb	r2, [r4, #7]
 80029f8:	e71a      	b.n	8002830 <bmi3_get_sensor_config+0xa0>
 80029fa:	2310      	movs	r3, #16
 80029fc:	f8ad 3038 	strh.w	r3, [sp, #56]	@ 0x38
 8002a00:	2202      	movs	r2, #2
 8002a02:	462b      	mov	r3, r5
 8002a04:	a90e      	add	r1, sp, #56	@ 0x38
 8002a06:	2041      	movs	r0, #65	@ 0x41
 8002a08:	f7ff fa96 	bl	8001f38 <bmi3_set_regs>
 8002a0c:	2800      	cmp	r0, #0
 8002a0e:	f47f aeef 	bne.w	80027f0 <bmi3_get_sensor_config+0x60>
 8002a12:	e9cd 0012 	strd	r0, r0, [sp, #72]	@ 0x48
 8002a16:	e9cd 0014 	strd	r0, r0, [sp, #80]	@ 0x50
 8002a1a:	e9cd 0016 	strd	r0, r0, [sp, #88]	@ 0x58
 8002a1e:	462b      	mov	r3, r5
 8002a20:	2218      	movs	r2, #24
 8002a22:	a912      	add	r1, sp, #72	@ 0x48
 8002a24:	2042      	movs	r0, #66	@ 0x42
 8002a26:	f7ff f9fd 	bl	8001e24 <bmi3_get_regs>
 8002a2a:	2800      	cmp	r0, #0
 8002a2c:	f47f aee0 	bne.w	80027f0 <bmi3_get_sensor_config+0x60>
 8002a30:	f8bd 0048 	ldrh.w	r0, [sp, #72]	@ 0x48
 8002a34:	f8bd 2056 	ldrh.w	r2, [sp, #86]	@ 0x56
 8002a38:	f8bd 3058 	ldrh.w	r3, [sp, #88]	@ 0x58
 8002a3c:	9302      	str	r3, [sp, #8]
 8002a3e:	f3c0 0b09 	ubfx	fp, r0, #0, #10
 8002a42:	f3c0 2080 	ubfx	r0, r0, #10, #1
 8002a46:	80a0      	strh	r0, [r4, #4]
 8002a48:	f002 000f 	and.w	r0, r2, #15
 8002a4c:	8260      	strh	r0, [r4, #18]
 8002a4e:	f3c2 1000 	ubfx	r0, r2, #4, #1
 8002a52:	0952      	lsrs	r2, r2, #5
 8002a54:	82e2      	strh	r2, [r4, #22]
 8002a56:	f89d 2058 	ldrb.w	r2, [sp, #88]	@ 0x58
 8002a5a:	8322      	strh	r2, [r4, #24]
 8002a5c:	9a02      	ldr	r2, [sp, #8]
 8002a5e:	f8bd 105a 	ldrh.w	r1, [sp, #90]	@ 0x5a
 8002a62:	f8bd 305c 	ldrh.w	r3, [sp, #92]	@ 0x5c
 8002a66:	f8bd a04a 	ldrh.w	sl, [sp, #74]	@ 0x4a
 8002a6a:	f8bd 904c 	ldrh.w	r9, [sp, #76]	@ 0x4c
 8002a6e:	f8bd 804e 	ldrh.w	r8, [sp, #78]	@ 0x4e
 8002a72:	f8bd e050 	ldrh.w	lr, [sp, #80]	@ 0x50
 8002a76:	f8bd c052 	ldrh.w	ip, [sp, #82]	@ 0x52
 8002a7a:	f8bd 7054 	ldrh.w	r7, [sp, #84]	@ 0x54
 8002a7e:	9303      	str	r3, [sp, #12]
 8002a80:	0a12      	lsrs	r2, r2, #8
 8002a82:	8362      	strh	r2, [r4, #26]
 8002a84:	f001 020f 	and.w	r2, r1, #15
 8002a88:	83a2      	strh	r2, [r4, #28]
 8002a8a:	0909      	lsrs	r1, r1, #4
 8002a8c:	f89d 205c 	ldrb.w	r2, [sp, #92]	@ 0x5c
 8002a90:	f8bd 305e 	ldrh.w	r3, [sp, #94]	@ 0x5e
 8002a94:	f8a4 b002 	strh.w	fp, [r4, #2]
 8002a98:	f8a4 a006 	strh.w	sl, [r4, #6]
 8002a9c:	f8a4 9008 	strh.w	r9, [r4, #8]
 8002aa0:	f8a4 800a 	strh.w	r8, [r4, #10]
 8002aa4:	f8a4 e00c 	strh.w	lr, [r4, #12]
 8002aa8:	f8a4 c00e 	strh.w	ip, [r4, #14]
 8002aac:	8227      	strh	r7, [r4, #16]
 8002aae:	82a0      	strh	r0, [r4, #20]
 8002ab0:	83e1      	strh	r1, [r4, #30]
 8002ab2:	8422      	strh	r2, [r4, #32]
 8002ab4:	9a03      	ldr	r2, [sp, #12]
 8002ab6:	0a12      	lsrs	r2, r2, #8
 8002ab8:	8462      	strh	r2, [r4, #34]	@ 0x22
 8002aba:	f003 0201 	and.w	r2, r3, #1
 8002abe:	84a2      	strh	r2, [r4, #36]	@ 0x24
 8002ac0:	f3c3 0242 	ubfx	r2, r3, #1, #3
 8002ac4:	84e2      	strh	r2, [r4, #38]	@ 0x26
 8002ac6:	f3c3 1200 	ubfx	r2, r3, #4, #1
 8002aca:	f3c3 1344 	ubfx	r3, r3, #5, #5
 8002ace:	8522      	strh	r2, [r4, #40]	@ 0x28
 8002ad0:	8563      	strh	r3, [r4, #42]	@ 0x2a
 8002ad2:	e6ad      	b.n	8002830 <bmi3_get_sensor_config+0xa0>
 8002ad4:	231e      	movs	r3, #30
 8002ad6:	f8ad 3038 	strh.w	r3, [sp, #56]	@ 0x38
 8002ada:	2202      	movs	r2, #2
 8002adc:	462b      	mov	r3, r5
 8002ade:	a90e      	add	r1, sp, #56	@ 0x38
 8002ae0:	2041      	movs	r0, #65	@ 0x41
 8002ae2:	f7ff fa29 	bl	8001f38 <bmi3_set_regs>
 8002ae6:	2800      	cmp	r0, #0
 8002ae8:	f47f ae82 	bne.w	80027f0 <bmi3_get_sensor_config+0x60>
 8002aec:	9010      	str	r0, [sp, #64]	@ 0x40
 8002aee:	f8ad 0044 	strh.w	r0, [sp, #68]	@ 0x44
 8002af2:	462b      	mov	r3, r5
 8002af4:	2206      	movs	r2, #6
 8002af6:	a910      	add	r1, sp, #64	@ 0x40
 8002af8:	2042      	movs	r0, #66	@ 0x42
 8002afa:	f7ff f993 	bl	8001e24 <bmi3_get_regs>
 8002afe:	2800      	cmp	r0, #0
 8002b00:	f47f ae76 	bne.w	80027f0 <bmi3_get_sensor_config+0x60>
 8002b04:	f8bd 2040 	ldrh.w	r2, [sp, #64]	@ 0x40
 8002b08:	f8bd 1042 	ldrh.w	r1, [sp, #66]	@ 0x42
 8002b0c:	f8bd 3044 	ldrh.w	r3, [sp, #68]	@ 0x44
 8002b10:	f002 0003 	and.w	r0, r2, #3
 8002b14:	70a0      	strb	r0, [r4, #2]
 8002b16:	f3c2 0080 	ubfx	r0, r2, #2, #1
 8002b1a:	70e0      	strb	r0, [r4, #3]
 8002b1c:	f3c2 00c2 	ubfx	r0, r2, #3, #3
 8002b20:	f3c2 1281 	ubfx	r2, r2, #6, #2
 8002b24:	7162      	strb	r2, [r4, #5]
 8002b26:	f3c1 0209 	ubfx	r2, r1, #0, #10
 8002b2a:	80e2      	strh	r2, [r4, #6]
 8002b2c:	f003 020f 	and.w	r2, r3, #15
 8002b30:	7262      	strb	r2, [r4, #9]
 8002b32:	f3c3 1203 	ubfx	r2, r3, #4, #4
 8002b36:	0a89      	lsrs	r1, r1, #10
 8002b38:	72a2      	strb	r2, [r4, #10]
 8002b3a:	f3c3 2203 	ubfx	r2, r3, #8, #4
 8002b3e:	0b1b      	lsrs	r3, r3, #12
 8002b40:	7120      	strb	r0, [r4, #4]
 8002b42:	7221      	strb	r1, [r4, #8]
 8002b44:	72e2      	strb	r2, [r4, #11]
 8002b46:	7323      	strb	r3, [r4, #12]
 8002b48:	e672      	b.n	8002830 <bmi3_get_sensor_config+0xa0>
 8002b4a:	4629      	mov	r1, r5
 8002b4c:	4630      	mov	r0, r6
 8002b4e:	f7ff f9bd 	bl	8001ecc <get_alternate_accel_config>
 8002b52:	e64c      	b.n	80027ee <bmi3_get_sensor_config+0x5e>
 8002b54:	4629      	mov	r1, r5
 8002b56:	4630      	mov	r0, r6
 8002b58:	f7ff f9d3 	bl	8001f02 <get_alternate_gyro_config>
 8002b5c:	e647      	b.n	80027ee <bmi3_get_sensor_config+0x5e>
 8002b5e:	2300      	movs	r3, #0
 8002b60:	f8ad 3018 	strh.w	r3, [sp, #24]
 8002b64:	2323      	movs	r3, #35	@ 0x23
 8002b66:	f8ad 3038 	strh.w	r3, [sp, #56]	@ 0x38
 8002b6a:	2202      	movs	r2, #2
 8002b6c:	462b      	mov	r3, r5
 8002b6e:	a90e      	add	r1, sp, #56	@ 0x38
 8002b70:	2041      	movs	r0, #65	@ 0x41
 8002b72:	f7ff f9e1 	bl	8001f38 <bmi3_set_regs>
 8002b76:	2800      	cmp	r0, #0
 8002b78:	f47f ae3a 	bne.w	80027f0 <bmi3_get_sensor_config+0x60>
 8002b7c:	462b      	mov	r3, r5
 8002b7e:	2202      	movs	r2, #2
 8002b80:	a906      	add	r1, sp, #24
 8002b82:	2042      	movs	r0, #66	@ 0x42
 8002b84:	f7ff f94e 	bl	8001e24 <bmi3_get_regs>
 8002b88:	2800      	cmp	r0, #0
 8002b8a:	f47f ae31 	bne.w	80027f0 <bmi3_get_sensor_config+0x60>
 8002b8e:	f89d 3018 	ldrb.w	r3, [sp, #24]
 8002b92:	f003 020f 	and.w	r2, r3, #15
 8002b96:	091b      	lsrs	r3, r3, #4
 8002b98:	70a2      	strb	r2, [r4, #2]
 8002b9a:	70e3      	strb	r3, [r4, #3]
 8002b9c:	e648      	b.n	8002830 <bmi3_get_sensor_config+0xa0>
 8002b9e:	f04f 30ff 	mov.w	r0, #4294967295	@ 0xffffffff
 8002ba2:	e625      	b.n	80027f0 <bmi3_get_sensor_config+0x60>
 8002ba4:	f06f 0005 	mvn.w	r0, #5
 8002ba8:	e622      	b.n	80027f0 <bmi3_get_sensor_config+0x60>

08002baa <bmi3_read_reg_data>:
 8002baa:	460b      	mov	r3, r1
 8002bac:	221a      	movs	r2, #26
 8002bae:	4601      	mov	r1, r0
 8002bb0:	2003      	movs	r0, #3
 8002bb2:	f7ff b937 	b.w	8001e24 <bmi3_get_regs>

08002bb6 <bmi3_get_sensor_data>:
 8002bb6:	e92d 43f0 	stmdb	sp!, {r4, r5, r6, r7, r8, r9, lr}
 8002bba:	4604      	mov	r4, r0
 8002bbc:	b08f      	sub	sp, #60	@ 0x3c
 8002bbe:	4610      	mov	r0, r2
 8002bc0:	460f      	mov	r7, r1
 8002bc2:	4616      	mov	r6, r2
 8002bc4:	f7ff f904 	bl	8001dd0 <null_ptr_check>
 8002bc8:	2800      	cmp	r0, #0
 8002bca:	f040 80dd 	bne.w	8002d88 <bmi3_get_sensor_data+0x1d2>
 8002bce:	2c00      	cmp	r4, #0
 8002bd0:	f000 80da 	beq.w	8002d88 <bmi3_get_sensor_data+0x1d2>
 8002bd4:	f88d 002a 	strb.w	r0, [sp, #42]	@ 0x2a
 8002bd8:	f88d 002b 	strb.w	r0, [sp, #43]	@ 0x2b
 8002bdc:	f88d 002c 	strb.w	r0, [sp, #44]	@ 0x2c
 8002be0:	f88d 002d 	strb.w	r0, [sp, #45]	@ 0x2d
 8002be4:	f88d 002e 	strb.w	r0, [sp, #46]	@ 0x2e
 8002be8:	4611      	mov	r1, r2
 8002bea:	a807      	add	r0, sp, #28
 8002bec:	f7ff ffdd 	bl	8002baa <bmi3_read_reg_data>
 8002bf0:	4605      	mov	r5, r0
 8002bf2:	b940      	cbnz	r0, 8002c06 <bmi3_get_sensor_data+0x50>
 8002bf4:	2314      	movs	r3, #20
 8002bf6:	f8dd 802a 	ldr.w	r8, [sp, #42]	@ 0x2a
 8002bfa:	f89d 902e 	ldrb.w	r9, [sp, #46]	@ 0x2e
 8002bfe:	fb03 4707 	mla	r7, r3, r7, r4
 8002c02:	42a7      	cmp	r7, r4
 8002c04:	d103      	bne.n	8002c0e <bmi3_get_sensor_data+0x58>
 8002c06:	4628      	mov	r0, r5
 8002c08:	b00f      	add	sp, #60	@ 0x3c
 8002c0a:	e8bd 83f0 	ldmia.w	sp!, {r4, r5, r6, r7, r8, r9, pc}
 8002c0e:	7823      	ldrb	r3, [r4, #0]
 8002c10:	2b10      	cmp	r3, #16
 8002c12:	f200 80bc 	bhi.w	8002d8e <bmi3_get_sensor_data+0x1d8>
 8002c16:	e8df f003 	tbb	[pc, r3]
 8002c1a:	1d09      	.short	0x1d09
 8002c1c:	31bababa 	.word	0x31bababa
 8002c20:	baba3eba 	.word	0xbaba3eba
 8002c24:	2bbababa 	.word	0x2bbababa
 8002c28:	7851      	.short	0x7851
 8002c2a:	9d          	.byte	0x9d
 8002c2b:	00          	.byte	0x00
 8002c2c:	f9bd 3020 	ldrsh.w	r3, [sp, #32]
 8002c30:	f9bd 201e 	ldrsh.w	r2, [sp, #30]
 8002c34:	f8bd 101c 	ldrh.w	r1, [sp, #28]
 8002c38:	8123      	strh	r3, [r4, #8]
 8002c3a:	80a1      	strh	r1, [r4, #4]
 8002c3c:	80e2      	strh	r2, [r4, #6]
 8002c3e:	f8c4 800c 	str.w	r8, [r4, #12]
 8002c42:	f009 0307 	and.w	r3, r9, #7
 8002c46:	7c22      	ldrb	r2, [r4, #16]
 8002c48:	f022 0207 	bic.w	r2, r2, #7
 8002c4c:	4313      	orrs	r3, r2
 8002c4e:	7423      	strb	r3, [r4, #16]
 8002c50:	3414      	adds	r4, #20
 8002c52:	e7d6      	b.n	8002c02 <bmi3_get_sensor_data+0x4c>
 8002c54:	f9bd 3026 	ldrsh.w	r3, [sp, #38]	@ 0x26
 8002c58:	f9bd 2024 	ldrsh.w	r2, [sp, #36]	@ 0x24
 8002c5c:	f8bd 1022 	ldrh.w	r1, [sp, #34]	@ 0x22
 8002c60:	8123      	strh	r3, [r4, #8]
 8002c62:	80a1      	strh	r1, [r4, #4]
 8002c64:	80e2      	strh	r2, [r4, #6]
 8002c66:	f8c4 800c 	str.w	r8, [r4, #12]
 8002c6a:	f3c9 03c2 	ubfx	r3, r9, #3, #3
 8002c6e:	e7ea      	b.n	8002c46 <bmi3_get_sensor_data+0x90>
 8002c70:	f8bd 3028 	ldrh.w	r3, [sp, #40]	@ 0x28
 8002c74:	8263      	strh	r3, [r4, #18]
 8002c76:	f8c4 800c 	str.w	r8, [r4, #12]
 8002c7a:	e7e9      	b.n	8002c50 <bmi3_get_sensor_data+0x9a>
 8002c7c:	2300      	movs	r3, #0
 8002c7e:	2204      	movs	r2, #4
 8002c80:	9301      	str	r3, [sp, #4]
 8002c82:	eb0d 0102 	add.w	r1, sp, r2
 8002c86:	4633      	mov	r3, r6
 8002c88:	2012      	movs	r0, #18
 8002c8a:	f7ff f8cb 	bl	8001e24 <bmi3_get_regs>
 8002c8e:	bb20      	cbnz	r0, 8002cda <bmi3_get_sensor_data+0x124>
 8002c90:	9b01      	ldr	r3, [sp, #4]
 8002c92:	6063      	str	r3, [r4, #4]
 8002c94:	e7dc      	b.n	8002c50 <bmi3_get_sensor_data+0x9a>
 8002c96:	2300      	movs	r3, #0
 8002c98:	f8ad 300c 	strh.w	r3, [sp, #12]
 8002c9c:	2202      	movs	r2, #2
 8002c9e:	4633      	mov	r3, r6
 8002ca0:	a903      	add	r1, sp, #12
 8002ca2:	2047      	movs	r0, #71	@ 0x47
 8002ca4:	f7ff f8be 	bl	8001e24 <bmi3_get_regs>
 8002ca8:	b9b8      	cbnz	r0, 8002cda <bmi3_get_sensor_data+0x124>
 8002caa:	f89d 300c 	ldrb.w	r3, [sp, #12]
 8002cae:	f003 0203 	and.w	r2, r3, #3
 8002cb2:	f3c3 0380 	ubfx	r3, r3, #2, #1
 8002cb6:	7122      	strb	r2, [r4, #4]
 8002cb8:	7163      	strb	r3, [r4, #5]
 8002cba:	e7c9      	b.n	8002c50 <bmi3_get_sensor_data+0x9a>
 8002cbc:	2210      	movs	r2, #16
 8002cbe:	2100      	movs	r1, #0
 8002cc0:	a803      	add	r0, sp, #12
 8002cc2:	f004 ffa3 	bl	8007c0c <memset>
 8002cc6:	2337      	movs	r3, #55	@ 0x37
 8002cc8:	f8ad 3000 	strh.w	r3, [sp]
 8002ccc:	2202      	movs	r2, #2
 8002cce:	4633      	mov	r3, r6
 8002cd0:	4669      	mov	r1, sp
 8002cd2:	2041      	movs	r0, #65	@ 0x41
 8002cd4:	f7ff f930 	bl	8001f38 <bmi3_set_regs>
 8002cd8:	b108      	cbz	r0, 8002cde <bmi3_get_sensor_data+0x128>
 8002cda:	4605      	mov	r5, r0
 8002cdc:	e793      	b.n	8002c06 <bmi3_get_sensor_data+0x50>
 8002cde:	4633      	mov	r3, r6
 8002ce0:	2210      	movs	r2, #16
 8002ce2:	a903      	add	r1, sp, #12
 8002ce4:	2042      	movs	r0, #66	@ 0x42
 8002ce6:	f7ff f89d 	bl	8001e24 <bmi3_get_regs>
 8002cea:	f8bd 100e 	ldrh.w	r1, [sp, #14]
 8002cee:	f8bd 2010 	ldrh.w	r2, [sp, #16]
 8002cf2:	f8bd 301a 	ldrh.w	r3, [sp, #26]
 8002cf6:	f8bd c00c 	ldrh.w	ip, [sp, #12]
 8002cfa:	f8a4 c004 	strh.w	ip, [r4, #4]
 8002cfe:	80e1      	strh	r1, [r4, #6]
 8002d00:	8122      	strh	r2, [r4, #8]
 8002d02:	81a3      	strh	r3, [r4, #12]
 8002d04:	2800      	cmp	r0, #0
 8002d06:	d0a3      	beq.n	8002c50 <bmi3_get_sensor_data+0x9a>
 8002d08:	e7e7      	b.n	8002cda <bmi3_get_sensor_data+0x124>
 8002d0a:	2300      	movs	r3, #0
 8002d0c:	e9cd 3303 	strd	r3, r3, [sp, #12]
 8002d10:	f8ad 3014 	strh.w	r3, [sp, #20]
 8002d14:	233a      	movs	r3, #58	@ 0x3a
 8002d16:	f8ad 3000 	strh.w	r3, [sp]
 8002d1a:	2202      	movs	r2, #2
 8002d1c:	4633      	mov	r3, r6
 8002d1e:	4669      	mov	r1, sp
 8002d20:	2041      	movs	r0, #65	@ 0x41
 8002d22:	f7ff f909 	bl	8001f38 <bmi3_set_regs>
 8002d26:	2800      	cmp	r0, #0
 8002d28:	d1d7      	bne.n	8002cda <bmi3_get_sensor_data+0x124>
 8002d2a:	4633      	mov	r3, r6
 8002d2c:	220a      	movs	r2, #10
 8002d2e:	a903      	add	r1, sp, #12
 8002d30:	2042      	movs	r0, #66	@ 0x42
 8002d32:	f7ff f877 	bl	8001e24 <bmi3_get_regs>
 8002d36:	2800      	cmp	r0, #0
 8002d38:	d1cf      	bne.n	8002cda <bmi3_get_sensor_data+0x124>
 8002d3a:	f8bd 100e 	ldrh.w	r1, [sp, #14]
 8002d3e:	f8bd 2010 	ldrh.w	r2, [sp, #16]
 8002d42:	f8bd 000c 	ldrh.w	r0, [sp, #12]
 8002d46:	f8bd 3014 	ldrh.w	r3, [sp, #20]
 8002d4a:	80a0      	strh	r0, [r4, #4]
 8002d4c:	80e1      	strh	r1, [r4, #6]
 8002d4e:	8122      	strh	r2, [r4, #8]
 8002d50:	81a3      	strh	r3, [r4, #12]
 8002d52:	e77d      	b.n	8002c50 <bmi3_get_sensor_data+0x9a>
 8002d54:	233d      	movs	r3, #61	@ 0x3d
 8002d56:	f8ad 300c 	strh.w	r3, [sp, #12]
 8002d5a:	2202      	movs	r2, #2
 8002d5c:	4633      	mov	r3, r6
 8002d5e:	a903      	add	r1, sp, #12
 8002d60:	2041      	movs	r0, #65	@ 0x41
 8002d62:	f7ff f8e9 	bl	8001f38 <bmi3_set_regs>
 8002d66:	2800      	cmp	r0, #0
 8002d68:	d1b7      	bne.n	8002cda <bmi3_get_sensor_data+0x124>
 8002d6a:	9002      	str	r0, [sp, #8]
 8002d6c:	4633      	mov	r3, r6
 8002d6e:	2204      	movs	r2, #4
 8002d70:	a902      	add	r1, sp, #8
 8002d72:	2042      	movs	r0, #66	@ 0x42
 8002d74:	f7ff f856 	bl	8001e24 <bmi3_get_regs>
 8002d78:	2800      	cmp	r0, #0
 8002d7a:	d1ae      	bne.n	8002cda <bmi3_get_sensor_data+0x124>
 8002d7c:	f8bd 2008 	ldrh.w	r2, [sp, #8]
 8002d80:	f8bd 300a 	ldrh.w	r3, [sp, #10]
 8002d84:	8162      	strh	r2, [r4, #10]
 8002d86:	e7e3      	b.n	8002d50 <bmi3_get_sensor_data+0x19a>
 8002d88:	f04f 35ff 	mov.w	r5, #4294967295	@ 0xffffffff
 8002d8c:	e73b      	b.n	8002c06 <bmi3_get_sensor_data+0x50>
 8002d8e:	f06f 0505 	mvn.w	r5, #5
 8002d92:	e738      	b.n	8002c06 <bmi3_get_sensor_data+0x50>

08002d94 <bmi330_set_sensor_config>:
 8002d94:	f7ff ba56 	b.w	8002244 <bmi3_set_sensor_config>

08002d98 <bmi330_get_sensor_config>:
 8002d98:	f7ff bcfa 	b.w	8002790 <bmi3_get_sensor_config>

08002d9c <bmi330_get_sensor_data>:
 8002d9c:	f7ff bf0b 	b.w	8002bb6 <bmi3_get_sensor_data>

08002da0 <bmi330_context_switch_selection>:
 8002da0:	b510      	push	{r4, lr}
 8002da2:	b0c2      	sub	sp, #264	@ 0x108
 8002da4:	4602      	mov	r2, r0
 8002da6:	2004      	movs	r0, #4
 8002da8:	f88d 002c 	strb.w	r0, [sp, #44]	@ 0x2c
 8002dac:	201e      	movs	r0, #30
 8002dae:	f8ad 0030 	strh.w	r0, [sp, #48]	@ 0x30
 8002db2:	f04f 7099 	mov.w	r0, #20054016	@ 0x1320000
 8002db6:	9022      	str	r0, [sp, #136]	@ 0x88
 8002db8:	2303      	movs	r3, #3
 8002dba:	f5a0 002d 	sub.w	r0, r0, #11337728	@ 0xad0000
 8002dbe:	f88d 3000 	strb.w	r3, [sp]
 8002dc2:	f6a0 6034 	subw	r0, r0, #3636	@ 0xe34
 8002dc6:	2308      	movs	r3, #8
 8002dc8:	f8ad 3004 	strh.w	r3, [sp, #4]
 8002dcc:	9023      	str	r0, [sp, #140]	@ 0x8c
 8002dce:	f04f 1305 	mov.w	r3, #327685	@ 0x50005
 8002dd2:	f8df c0b8 	ldr.w	ip, [pc, #184]	@ 8002e8c <bmi330_context_switch_selection+0xec>
 8002dd6:	4828      	ldr	r0, [pc, #160]	@ (8002e78 <bmi330_context_switch_selection+0xd8>)
 8002dd8:	f8df e0b4 	ldr.w	lr, [pc, #180]	@ 8002e90 <bmi330_context_switch_selection+0xf0>
 8002ddc:	9302      	str	r3, [sp, #8]
 8002dde:	930d      	str	r3, [sp, #52]	@ 0x34
 8002de0:	2309      	movs	r3, #9
 8002de2:	e9cd c024 	strd	ip, r0, [sp, #144]	@ 0x90
 8002de6:	2101      	movs	r1, #1
 8002de8:	f88d 3058 	strb.w	r3, [sp, #88]	@ 0x58
 8002dec:	f04f 100c 	mov.w	r0, #786444	@ 0xc000c
 8002df0:	f44f 7381 	mov.w	r3, #258	@ 0x102
 8002df4:	e9cd e026 	strd	lr, r0, [sp, #152]	@ 0x98
 8002df8:	f8df c098 	ldr.w	ip, [pc, #152]	@ 8002e94 <bmi330_context_switch_selection+0xf4>
 8002dfc:	f88d 1006 	strb.w	r1, [sp, #6]
 8002e00:	f88d 1032 	strb.w	r1, [sp, #50]	@ 0x32
 8002e04:	f8ad 305a 	strh.w	r3, [sp, #90]	@ 0x5a
 8002e08:	491c      	ldr	r1, [pc, #112]	@ (8002e7c <bmi330_context_switch_selection+0xdc>)
 8002e0a:	4b1d      	ldr	r3, [pc, #116]	@ (8002e80 <bmi330_context_switch_selection+0xe0>)
 8002e0c:	481d      	ldr	r0, [pc, #116]	@ (8002e84 <bmi330_context_switch_selection+0xe4>)
 8002e0e:	e9cd 1317 	strd	r1, r3, [sp, #92]	@ 0x5c
 8002e12:	e9cd c028 	strd	ip, r0, [sp, #160]	@ 0xa0
 8002e16:	2305      	movs	r3, #5
 8002e18:	2002      	movs	r0, #2
 8002e1a:	24fa      	movs	r4, #250	@ 0xfa
 8002e1c:	2106      	movs	r1, #6
 8002e1e:	f88d 3084 	strb.w	r3, [sp, #132]	@ 0x84
 8002e22:	f88d 00b0 	strb.w	r0, [sp, #176]	@ 0xb0
 8002e26:	2300      	movs	r3, #0
 8002e28:	203c      	movs	r0, #60	@ 0x3c
 8002e2a:	e9cd 332a 	strd	r3, r3, [sp, #168]	@ 0xa8
 8002e2e:	f88d 1064 	strb.w	r1, [sp, #100]	@ 0x64
 8002e32:	f8ad 3086 	strh.w	r3, [sp, #134]	@ 0x86
 8002e36:	f8ad 4002 	strh.w	r4, [sp, #2]
 8002e3a:	f8ad 402e 	strh.w	r4, [sp, #46]	@ 0x2e
 8002e3e:	f8ad 40b2 	strh.w	r4, [sp, #178]	@ 0xb2
 8002e42:	f8ad 00b4 	strh.w	r0, [sp, #180]	@ 0xb4
 8002e46:	200b      	movs	r0, #11
 8002e48:	f88d 00b6 	strb.w	r0, [sp, #182]	@ 0xb6
 8002e4c:	f240 2053 	movw	r0, #595	@ 0x253
 8002e50:	f8ad 00b8 	strh.w	r0, [sp, #184]	@ 0xb8
 8002e54:	2011      	movs	r0, #17
 8002e56:	f88d 00ba 	strb.w	r0, [sp, #186]	@ 0xba
 8002e5a:	f8ad 30de 	strh.w	r3, [sp, #222]	@ 0xde
 8002e5e:	2007      	movs	r0, #7
 8002e60:	4b09      	ldr	r3, [pc, #36]	@ (8002e88 <bmi330_context_switch_selection+0xe8>)
 8002e62:	f88d 00dc 	strb.w	r0, [sp, #220]	@ 0xdc
 8002e66:	9338      	str	r3, [sp, #224]	@ 0xe0
 8002e68:	4668      	mov	r0, sp
 8002e6a:	2332      	movs	r3, #50	@ 0x32
 8002e6c:	f88d 30e4 	strb.w	r3, [sp, #228]	@ 0xe4
 8002e70:	f7ff f9e8 	bl	8002244 <bmi3_set_sensor_config>
 8002e74:	b042      	add	sp, #264	@ 0x108
 8002e76:	bd10      	pop	{r4, pc}
 8002e78:	0007fd54 	.word	0x0007fd54
 8002e7c:	008f0106 	.word	0x008f0106
 8002e80:	08060419 	.word	0x08060419
 8002e84:	00a0004a 	.word	0x00a0004a
 8002e88:	200a2603 	.word	0x200a2603
 8002e8c:	eac8d938 	.word	0xeac8d938
 8002e90:	01000001 	.word	0x01000001
 8002e94:	0f3c0003 	.word	0x0f3c0003

08002e98 <bmi330_init>:
 8002e98:	b510      	push	{r4, lr}
 8002e9a:	4604      	mov	r4, r0
 8002e9c:	b190      	cbz	r0, 8002ec4 <bmi330_init+0x2c>
 8002e9e:	6903      	ldr	r3, [r0, #16]
 8002ea0:	b183      	cbz	r3, 8002ec4 <bmi330_init+0x2c>
 8002ea2:	6943      	ldr	r3, [r0, #20]
 8002ea4:	b173      	cbz	r3, 8002ec4 <bmi330_init+0x2c>
 8002ea6:	6983      	ldr	r3, [r0, #24]
 8002ea8:	b163      	cbz	r3, 8002ec4 <bmi330_init+0x2c>
 8002eaa:	f7ff f99d 	bl	80021e8 <bmi3_init>
 8002eae:	b958      	cbnz	r0, 8002ec8 <bmi330_init+0x30>
 8002eb0:	7823      	ldrb	r3, [r4, #0]
 8002eb2:	2b48      	cmp	r3, #72	@ 0x48
 8002eb4:	d109      	bne.n	8002eca <bmi330_init+0x32>
 8002eb6:	2310      	movs	r3, #16
 8002eb8:	7323      	strb	r3, [r4, #12]
 8002eba:	4620      	mov	r0, r4
 8002ebc:	e8bd 4010 	ldmia.w	sp!, {r4, lr}
 8002ec0:	f7ff bf6e 	b.w	8002da0 <bmi330_context_switch_selection>
 8002ec4:	f04f 30ff 	mov.w	r0, #4294967295	@ 0xffffffff
 8002ec8:	bd10      	pop	{r4, pc}
 8002eca:	f06f 0002 	mvn.w	r0, #2
 8002ece:	e7fb      	b.n	8002ec8 <bmi330_init+0x30>

08002ed0 <compensate_temperature>:
 8002ed0:	e92d 43f8 	stmdb	sp!, {r3, r4, r5, r6, r7, r8, r9, lr}
 8002ed4:	4614      	mov	r4, r2
 8002ed6:	4605      	mov	r5, r0
 8002ed8:	e9d1 0102 	ldrd	r0, r1, [r1, #8]
 8002edc:	f7fd fb86 	bl	80005ec <__aeabi_l2d>
 8002ee0:	e9d4 2300 	ldrd	r2, r3, [r4]
 8002ee4:	f7fd f9f8 	bl	80002d8 <__aeabi_dsub>
 8002ee8:	4602      	mov	r2, r0
 8002eea:	460b      	mov	r3, r1
 8002eec:	4606      	mov	r6, r0
 8002eee:	460f      	mov	r7, r1
 8002ef0:	f7fd fbaa 	bl	8000648 <__aeabi_dmul>
 8002ef4:	e9d4 2304 	ldrd	r2, r3, [r4, #16]
 8002ef8:	f7fd fba6 	bl	8000648 <__aeabi_dmul>
 8002efc:	e9d4 2302 	ldrd	r2, r3, [r4, #8]
 8002f00:	4680      	mov	r8, r0
 8002f02:	4689      	mov	r9, r1
 8002f04:	4630      	mov	r0, r6
 8002f06:	4639      	mov	r1, r7
 8002f08:	f7fd fb9e 	bl	8000648 <__aeabi_dmul>
 8002f0c:	4602      	mov	r2, r0
 8002f0e:	460b      	mov	r3, r1
 8002f10:	4640      	mov	r0, r8
 8002f12:	4649      	mov	r1, r9
 8002f14:	f7fd f9e2 	bl	80002dc <__adddf3>
 8002f18:	4b0d      	ldr	r3, [pc, #52]	@ (8002f50 <compensate_temperature+0x80>)
 8002f1a:	2200      	movs	r2, #0
 8002f1c:	4606      	mov	r6, r0
 8002f1e:	460f      	mov	r7, r1
 8002f20:	f7fd fe04 	bl	8000b2c <__aeabi_dcmplt>
 8002f24:	b978      	cbnz	r0, 8002f46 <compensate_temperature+0x76>
 8002f26:	4b0b      	ldr	r3, [pc, #44]	@ (8002f54 <compensate_temperature+0x84>)
 8002f28:	2200      	movs	r2, #0
 8002f2a:	4630      	mov	r0, r6
 8002f2c:	4639      	mov	r1, r7
 8002f2e:	f7fd fe1b 	bl	8000b68 <__aeabi_dcmpgt>
 8002f32:	b110      	cbz	r0, 8002f3a <compensate_temperature+0x6a>
 8002f34:	4f07      	ldr	r7, [pc, #28]	@ (8002f54 <compensate_temperature+0x84>)
 8002f36:	2600      	movs	r6, #0
 8002f38:	2004      	movs	r0, #4
 8002f3a:	e9c4 671c 	strd	r6, r7, [r4, #112]	@ 0x70
 8002f3e:	e9c5 6700 	strd	r6, r7, [r5]
 8002f42:	e8bd 83f8 	ldmia.w	sp!, {r3, r4, r5, r6, r7, r8, r9, pc}
 8002f46:	4f02      	ldr	r7, [pc, #8]	@ (8002f50 <compensate_temperature+0x80>)
 8002f48:	2600      	movs	r6, #0
 8002f4a:	2003      	movs	r0, #3
 8002f4c:	e7f5      	b.n	8002f3a <compensate_temperature+0x6a>
 8002f4e:	bf00      	nop
 8002f50:	c0440000 	.word	0xc0440000
 8002f54:	40554000 	.word	0x40554000

08002f58 <compensate_pressure>:
 8002f58:	e92d 4ff0 	stmdb	sp!, {r4, r5, r6, r7, r8, r9, sl, fp, lr}
 8002f5c:	e9d2 ab1c 	ldrd	sl, fp, [r2, #112]	@ 0x70
 8002f60:	ed2d 8b02 	vpush	{d8}
 8002f64:	460e      	mov	r6, r1
 8002f66:	b085      	sub	sp, #20
 8002f68:	4659      	mov	r1, fp
 8002f6a:	4605      	mov	r5, r0
 8002f6c:	4650      	mov	r0, sl
 8002f6e:	4614      	mov	r4, r2
 8002f70:	f7fd fe4c 	bl	8000c0c <__aeabi_d2f>
 8002f74:	ee08 0a10 	vmov	s16, r0
 8002f78:	ee68 8a08 	vmul.f32	s17, s16, s16
 8002f7c:	ee18 0a90 	vmov	r0, s17
 8002f80:	f7fd fb0a 	bl	8000598 <__aeabi_f2d>
 8002f84:	ee68 7a28 	vmul.f32	s15, s16, s17
 8002f88:	e9cd 0100 	strd	r0, r1, [sp]
 8002f8c:	ee17 0a90 	vmov	r0, s15
 8002f90:	f7fd fb02 	bl	8000598 <__aeabi_f2d>
 8002f94:	e9cd 0102 	strd	r0, r1, [sp, #8]
 8002f98:	e9d6 0100 	ldrd	r0, r1, [r6]
 8002f9c:	f7fd fb1e 	bl	80005dc <__aeabi_ul2d>
 8002fa0:	4689      	mov	r9, r1
 8002fa2:	4680      	mov	r8, r0
 8002fa4:	f7fd fe32 	bl	8000c0c <__aeabi_d2f>
 8002fa8:	e9d4 2308 	ldrd	r2, r3, [r4, #32]
 8002fac:	ee08 0a10 	vmov	s16, r0
 8002fb0:	4659      	mov	r1, fp
 8002fb2:	4650      	mov	r0, sl
 8002fb4:	f7fd fb48 	bl	8000648 <__aeabi_dmul>
 8002fb8:	e9d4 2306 	ldrd	r2, r3, [r4, #24]
 8002fbc:	f7fd f98e 	bl	80002dc <__adddf3>
 8002fc0:	e9d4 230a 	ldrd	r2, r3, [r4, #40]	@ 0x28
 8002fc4:	4606      	mov	r6, r0
 8002fc6:	460f      	mov	r7, r1
 8002fc8:	e9dd 0100 	ldrd	r0, r1, [sp]
 8002fcc:	f7fd fb3c 	bl	8000648 <__aeabi_dmul>
 8002fd0:	4602      	mov	r2, r0
 8002fd2:	460b      	mov	r3, r1
 8002fd4:	4630      	mov	r0, r6
 8002fd6:	4639      	mov	r1, r7
 8002fd8:	f7fd f980 	bl	80002dc <__adddf3>
 8002fdc:	e9d4 230c 	ldrd	r2, r3, [r4, #48]	@ 0x30
 8002fe0:	4606      	mov	r6, r0
 8002fe2:	460f      	mov	r7, r1
 8002fe4:	e9dd 0102 	ldrd	r0, r1, [sp, #8]
 8002fe8:	f7fd fb2e 	bl	8000648 <__aeabi_dmul>
 8002fec:	4602      	mov	r2, r0
 8002fee:	460b      	mov	r3, r1
 8002ff0:	4630      	mov	r0, r6
 8002ff2:	4639      	mov	r1, r7
 8002ff4:	f7fd f972 	bl	80002dc <__adddf3>
 8002ff8:	4642      	mov	r2, r8
 8002ffa:	464b      	mov	r3, r9
 8002ffc:	f7fd fb24 	bl	8000648 <__aeabi_dmul>
 8003000:	e9d4 2310 	ldrd	r2, r3, [r4, #64]	@ 0x40
 8003004:	4606      	mov	r6, r0
 8003006:	460f      	mov	r7, r1
 8003008:	4650      	mov	r0, sl
 800300a:	4659      	mov	r1, fp
 800300c:	f7fd fb1c 	bl	8000648 <__aeabi_dmul>
 8003010:	e9d4 230e 	ldrd	r2, r3, [r4, #56]	@ 0x38
 8003014:	f7fd f962 	bl	80002dc <__adddf3>
 8003018:	e9d4 2312 	ldrd	r2, r3, [r4, #72]	@ 0x48
 800301c:	4680      	mov	r8, r0
 800301e:	4689      	mov	r9, r1
 8003020:	e9dd 0100 	ldrd	r0, r1, [sp]
 8003024:	f7fd fb10 	bl	8000648 <__aeabi_dmul>
 8003028:	4602      	mov	r2, r0
 800302a:	460b      	mov	r3, r1
 800302c:	4640      	mov	r0, r8
 800302e:	4649      	mov	r1, r9
 8003030:	f7fd f954 	bl	80002dc <__adddf3>
 8003034:	e9d4 2314 	ldrd	r2, r3, [r4, #80]	@ 0x50
 8003038:	4680      	mov	r8, r0
 800303a:	4689      	mov	r9, r1
 800303c:	e9dd 0102 	ldrd	r0, r1, [sp, #8]
 8003040:	f7fd fb02 	bl	8000648 <__aeabi_dmul>
 8003044:	4602      	mov	r2, r0
 8003046:	460b      	mov	r3, r1
 8003048:	4640      	mov	r0, r8
 800304a:	4649      	mov	r1, r9
 800304c:	f7fd f946 	bl	80002dc <__adddf3>
 8003050:	4602      	mov	r2, r0
 8003052:	460b      	mov	r3, r1
 8003054:	4630      	mov	r0, r6
 8003056:	4639      	mov	r1, r7
 8003058:	f7fd f940 	bl	80002dc <__adddf3>
 800305c:	e9d4 2318 	ldrd	r2, r3, [r4, #96]	@ 0x60
 8003060:	4606      	mov	r6, r0
 8003062:	460f      	mov	r7, r1
 8003064:	4650      	mov	r0, sl
 8003066:	4659      	mov	r1, fp
 8003068:	f7fd faee 	bl	8000648 <__aeabi_dmul>
 800306c:	e9d4 2316 	ldrd	r2, r3, [r4, #88]	@ 0x58
 8003070:	f7fd f934 	bl	80002dc <__adddf3>
 8003074:	ee68 8a08 	vmul.f32	s17, s16, s16
 8003078:	4680      	mov	r8, r0
 800307a:	ee18 0a90 	vmov	r0, s17
 800307e:	4689      	mov	r9, r1
 8003080:	f7fd fa8a 	bl	8000598 <__aeabi_f2d>
 8003084:	4602      	mov	r2, r0
 8003086:	460b      	mov	r3, r1
 8003088:	4640      	mov	r0, r8
 800308a:	4649      	mov	r1, r9
 800308c:	f7fd fadc 	bl	8000648 <__aeabi_dmul>
 8003090:	ee68 7a28 	vmul.f32	s15, s16, s17
 8003094:	4680      	mov	r8, r0
 8003096:	ee17 0a90 	vmov	r0, s15
 800309a:	4689      	mov	r9, r1
 800309c:	f7fd fa7c 	bl	8000598 <__aeabi_f2d>
 80030a0:	e9d4 231a 	ldrd	r2, r3, [r4, #104]	@ 0x68
 80030a4:	f7fd fad0 	bl	8000648 <__aeabi_dmul>
 80030a8:	4602      	mov	r2, r0
 80030aa:	460b      	mov	r3, r1
 80030ac:	4640      	mov	r0, r8
 80030ae:	4649      	mov	r1, r9
 80030b0:	f7fd f914 	bl	80002dc <__adddf3>
 80030b4:	4602      	mov	r2, r0
 80030b6:	460b      	mov	r3, r1
 80030b8:	4630      	mov	r0, r6
 80030ba:	4639      	mov	r1, r7
 80030bc:	f7fd f90e 	bl	80002dc <__adddf3>
 80030c0:	a311      	add	r3, pc, #68	@ (adr r3, 8003108 <compensate_pressure+0x1b0>)
 80030c2:	e9d3 2300 	ldrd	r2, r3, [r3]
 80030c6:	4606      	mov	r6, r0
 80030c8:	460f      	mov	r7, r1
 80030ca:	f7fd fd2f 	bl	8000b2c <__aeabi_dcmplt>
 80030ce:	b970      	cbnz	r0, 80030ee <compensate_pressure+0x196>
 80030d0:	a30f      	add	r3, pc, #60	@ (adr r3, 8003110 <compensate_pressure+0x1b8>)
 80030d2:	e9d3 2300 	ldrd	r2, r3, [r3]
 80030d6:	4630      	mov	r0, r6
 80030d8:	4639      	mov	r1, r7
 80030da:	f7fd fd45 	bl	8000b68 <__aeabi_dcmpgt>
 80030de:	b958      	cbnz	r0, 80030f8 <compensate_pressure+0x1a0>
 80030e0:	e9c5 6700 	strd	r6, r7, [r5]
 80030e4:	b005      	add	sp, #20
 80030e6:	ecbd 8b02 	vpop	{d8}
 80030ea:	e8bd 8ff0 	ldmia.w	sp!, {r4, r5, r6, r7, r8, r9, sl, fp, pc}
 80030ee:	a706      	add	r7, pc, #24	@ (adr r7, 8003108 <compensate_pressure+0x1b0>)
 80030f0:	e9d7 6700 	ldrd	r6, r7, [r7]
 80030f4:	2005      	movs	r0, #5
 80030f6:	e7f3      	b.n	80030e0 <compensate_pressure+0x188>
 80030f8:	a705      	add	r7, pc, #20	@ (adr r7, 8003110 <compensate_pressure+0x1b8>)
 80030fa:	e9d7 6700 	ldrd	r6, r7, [r7]
 80030fe:	2006      	movs	r0, #6
 8003100:	e7ee      	b.n	80030e0 <compensate_pressure+0x188>
 8003102:	bf00      	nop
 8003104:	f3af 8000 	nop.w
 8003108:	00000000 	.word	0x00000000
 800310c:	40dd4c00 	.word	0x40dd4c00
 8003110:	00000000 	.word	0x00000000
 8003114:	40fe8480 	.word	0x40fe8480

08003118 <compensate_data>:
 8003118:	e92d 4370 	stmdb	sp!, {r4, r5, r6, r8, r9, lr}
 800311c:	4614      	mov	r4, r2
 800311e:	461d      	mov	r5, r3
 8003120:	460e      	mov	r6, r1
 8003122:	b379      	cbz	r1, 8003184 <compensate_data+0x6c>
 8003124:	b372      	cbz	r2, 8003184 <compensate_data+0x6c>
 8003126:	2803      	cmp	r0, #3
 8003128:	d10c      	bne.n	8003144 <compensate_data+0x2c>
 800312a:	461a      	mov	r2, r3
 800312c:	4620      	mov	r0, r4
 800312e:	f7ff fecf 	bl	8002ed0 <compensate_temperature>
 8003132:	b9f8      	cbnz	r0, 8003174 <compensate_data+0x5c>
 8003134:	462a      	mov	r2, r5
 8003136:	4631      	mov	r1, r6
 8003138:	f104 0008 	add.w	r0, r4, #8
 800313c:	e8bd 4370 	ldmia.w	sp!, {r4, r5, r6, r8, r9, lr}
 8003140:	f7ff bf0a 	b.w	8002f58 <compensate_pressure>
 8003144:	2801      	cmp	r0, #1
 8003146:	f04f 0800 	mov.w	r8, #0
 800314a:	f04f 0900 	mov.w	r9, #0
 800314e:	d109      	bne.n	8003164 <compensate_data+0x4c>
 8003150:	461a      	mov	r2, r3
 8003152:	4620      	mov	r0, r4
 8003154:	f7ff febc 	bl	8002ed0 <compensate_temperature>
 8003158:	4620      	mov	r0, r4
 800315a:	e8e0 8902 	strd	r8, r9, [r0], #8
 800315e:	462a      	mov	r2, r5
 8003160:	4631      	mov	r1, r6
 8003162:	e7eb      	b.n	800313c <compensate_data+0x24>
 8003164:	2802      	cmp	r0, #2
 8003166:	d107      	bne.n	8003178 <compensate_data+0x60>
 8003168:	461a      	mov	r2, r3
 800316a:	4620      	mov	r0, r4
 800316c:	f7ff feb0 	bl	8002ed0 <compensate_temperature>
 8003170:	e9c4 8902 	strd	r8, r9, [r4, #8]
 8003174:	e8bd 8370 	ldmia.w	sp!, {r4, r5, r6, r8, r9, pc}
 8003178:	e9c2 8902 	strd	r8, r9, [r2, #8]
 800317c:	e9c2 8900 	strd	r8, r9, [r2]
 8003180:	2000      	movs	r0, #0
 8003182:	e7f7      	b.n	8003174 <compensate_data+0x5c>
 8003184:	f04f 30ff 	mov.w	r0, #4294967295	@ 0xffffffff
 8003188:	e7f4      	b.n	8003174 <compensate_data+0x5c>

0800318a <null_ptr_check>:
 800318a:	b158      	cbz	r0, 80031a4 <null_ptr_check+0x1a>
 800318c:	68c3      	ldr	r3, [r0, #12]
 800318e:	b14b      	cbz	r3, 80031a4 <null_ptr_check+0x1a>
 8003190:	6903      	ldr	r3, [r0, #16]
 8003192:	b13b      	cbz	r3, 80031a4 <null_ptr_check+0x1a>
 8003194:	6943      	ldr	r3, [r0, #20]
 8003196:	b12b      	cbz	r3, 80031a4 <null_ptr_check+0x1a>
 8003198:	6840      	ldr	r0, [r0, #4]
 800319a:	fab0 f080 	clz	r0, r0
 800319e:	0940      	lsrs	r0, r0, #5
 80031a0:	4240      	negs	r0, r0
 80031a2:	4770      	bx	lr
 80031a4:	f04f 30ff 	mov.w	r0, #4294967295	@ 0xffffffff
 80031a8:	4770      	bx	lr
	...

080031ac <validate_osr_and_odr_settings>:
 80031ac:	b510      	push	{r4, lr}
 80031ae:	4604      	mov	r4, r0
 80031b0:	b092      	sub	sp, #72	@ 0x48
 80031b2:	491f      	ldr	r1, [pc, #124]	@ (8003230 <validate_osr_and_odr_settings+0x84>)
 80031b4:	2248      	movs	r2, #72	@ 0x48
 80031b6:	4668      	mov	r0, sp
 80031b8:	f004 fd8f 	bl	8007cda <memcpy>
 80031bc:	7863      	ldrb	r3, [r4, #1]
 80031be:	b16b      	cbz	r3, 80031dc <validate_osr_and_odr_settings+0x30>
 80031c0:	78e3      	ldrb	r3, [r4, #3]
 80031c2:	eeb7 7a00 	vmov.f32	s14, #112	@ 0x3f800000  1.0
 80031c6:	bb43      	cbnz	r3, 800321a <validate_osr_and_odr_settings+0x6e>
 80031c8:	eddf 6a1a 	vldr	s13, [pc, #104]	@ 8003234 <validate_osr_and_odr_settings+0x88>
 80031cc:	eddf 7a1a 	vldr	s15, [pc, #104]	@ 8003238 <validate_osr_and_odr_settings+0x8c>
 80031d0:	eee7 7a26 	vfma.f32	s15, s14, s13
 80031d4:	eefc 7ae7 	vcvt.u32.f32	s15, s15
 80031d8:	ee17 3a90 	vmov	r3, s15
 80031dc:	78a2      	ldrb	r2, [r4, #2]
 80031de:	b172      	cbz	r2, 80031fe <validate_osr_and_odr_settings+0x52>
 80031e0:	7922      	ldrb	r2, [r4, #4]
 80031e2:	eeb7 7a00 	vmov.f32	s14, #112	@ 0x3f800000  1.0
 80031e6:	b9ea      	cbnz	r2, 8003224 <validate_osr_and_odr_settings+0x78>
 80031e8:	eddf 6a12 	vldr	s13, [pc, #72]	@ 8003234 <validate_osr_and_odr_settings+0x88>
 80031ec:	eddf 7a13 	vldr	s15, [pc, #76]	@ 800323c <validate_osr_and_odr_settings+0x90>
 80031f0:	eee7 7a26 	vfma.f32	s15, s14, s13
 80031f4:	eefc 7ae7 	vcvt.u32.f32	s15, s15
 80031f8:	ee17 2a90 	vmov	r2, s15
 80031fc:	4413      	add	r3, r2
 80031fe:	79a2      	ldrb	r2, [r4, #6]
 8003200:	a912      	add	r1, sp, #72	@ 0x48
 8003202:	eb01 0282 	add.w	r2, r1, r2, lsl #2
 8003206:	33ea      	adds	r3, #234	@ 0xea
 8003208:	f852 2c48 	ldr.w	r2, [r2, #-72]
 800320c:	429a      	cmp	r2, r3
 800320e:	bf94      	ite	ls
 8003210:	f06f 0002 	mvnls.w	r0, #2
 8003214:	2000      	movhi	r0, #0
 8003216:	b012      	add	sp, #72	@ 0x48
 8003218:	bd10      	pop	{r4, pc}
 800321a:	3b01      	subs	r3, #1
 800321c:	ee37 7a07 	vadd.f32	s14, s14, s14
 8003220:	b2db      	uxtb	r3, r3
 8003222:	e7d0      	b.n	80031c6 <validate_osr_and_odr_settings+0x1a>
 8003224:	3a01      	subs	r2, #1
 8003226:	ee37 7a07 	vadd.f32	s14, s14, s14
 800322a:	b2d2      	uxtb	r2, r2
 800322c:	e7db      	b.n	80031e6 <validate_osr_and_odr_settings+0x3a>
 800322e:	bf00      	nop
 8003230:	0800a388 	.word	0x0800a388
 8003234:	44fa0000 	.word	0x44fa0000
 8003238:	43c40000 	.word	0x43c40000
 800323c:	439c8000 	.word	0x439c8000

08003240 <bmp3_get_regs>:
 8003240:	e92d 4ff0 	stmdb	sp!, {r4, r5, r6, r7, r8, r9, sl, fp, lr}
 8003244:	b083      	sub	sp, #12
 8003246:	4606      	mov	r6, r0
 8003248:	af00      	add	r7, sp, #0
 800324a:	4618      	mov	r0, r3
 800324c:	461c      	mov	r4, r3
 800324e:	f7ff ff9c 	bl	800318a <null_ptr_check>
 8003252:	4689      	mov	r9, r1
 8003254:	4690      	mov	r8, r2
 8003256:	4605      	mov	r5, r0
 8003258:	bb90      	cbnz	r0, 80032c0 <bmp3_get_regs+0x80>
 800325a:	b389      	cbz	r1, 80032c0 <bmp3_get_regs+0x80>
 800325c:	7aa0      	ldrb	r0, [r4, #10]
 800325e:	f894 c008 	ldrb.w	ip, [r4, #8]
 8003262:	f8c7 d004 	str.w	sp, [r7, #4]
 8003266:	4410      	add	r0, r2
 8003268:	1dc3      	adds	r3, r0, #7
 800326a:	f023 0307 	bic.w	r3, r3, #7
 800326e:	ebad 0d03 	sub.w	sp, sp, r3
 8003272:	f1bc 0f01 	cmp.w	ip, #1
 8003276:	f8d4 a00c 	ldr.w	sl, [r4, #12]
 800327a:	6863      	ldr	r3, [r4, #4]
 800327c:	46eb      	mov	fp, sp
 800327e:	d01b      	beq.n	80032b8 <bmp3_get_regs+0x78>
 8003280:	4602      	mov	r2, r0
 8003282:	4669      	mov	r1, sp
 8003284:	f046 0080 	orr.w	r0, r6, #128	@ 0x80
 8003288:	47d0      	blx	sl
 800328a:	7260      	strb	r0, [r4, #9]
 800328c:	4545      	cmp	r5, r8
 800328e:	d10b      	bne.n	80032a8 <bmp3_get_regs+0x68>
 8003290:	f994 0009 	ldrsb.w	r0, [r4, #9]
 8003294:	f8d7 d004 	ldr.w	sp, [r7, #4]
 8003298:	2800      	cmp	r0, #0
 800329a:	bf18      	it	ne
 800329c:	f06f 0001 	mvnne.w	r0, #1
 80032a0:	370c      	adds	r7, #12
 80032a2:	46bd      	mov	sp, r7
 80032a4:	e8bd 8ff0 	ldmia.w	sp!, {r4, r5, r6, r7, r8, r9, sl, fp, pc}
 80032a8:	7aa3      	ldrb	r3, [r4, #10]
 80032aa:	eb0b 0205 	add.w	r2, fp, r5
 80032ae:	5cd3      	ldrb	r3, [r2, r3]
 80032b0:	f809 3005 	strb.w	r3, [r9, r5]
 80032b4:	3501      	adds	r5, #1
 80032b6:	e7e9      	b.n	800328c <bmp3_get_regs+0x4c>
 80032b8:	4630      	mov	r0, r6
 80032ba:	47d0      	blx	sl
 80032bc:	7260      	strb	r0, [r4, #9]
 80032be:	e7e7      	b.n	8003290 <bmp3_get_regs+0x50>
 80032c0:	f04f 30ff 	mov.w	r0, #4294967295	@ 0xffffffff
 80032c4:	e7ec      	b.n	80032a0 <bmp3_get_regs+0x60>

080032c6 <bmp3_set_regs>:
 80032c6:	e92d 43f8 	stmdb	sp!, {r3, r4, r5, r6, r7, r8, r9, lr}
 80032ca:	4614      	mov	r4, r2
 80032cc:	0052      	lsls	r2, r2, #1
 80032ce:	461e      	mov	r6, r3
 80032d0:	1dd3      	adds	r3, r2, #7
 80032d2:	f023 0307 	bic.w	r3, r3, #7
 80032d6:	af00      	add	r7, sp, #0
 80032d8:	4680      	mov	r8, r0
 80032da:	ebad 0d03 	sub.w	sp, sp, r3
 80032de:	4630      	mov	r0, r6
 80032e0:	4689      	mov	r9, r1
 80032e2:	4669      	mov	r1, sp
 80032e4:	f7ff ff51 	bl	800318a <null_ptr_check>
 80032e8:	bba0      	cbnz	r0, 8003354 <bmp3_set_regs+0x8e>
 80032ea:	f1b8 0f00 	cmp.w	r8, #0
 80032ee:	d031      	beq.n	8003354 <bmp3_set_regs+0x8e>
 80032f0:	f1b9 0f00 	cmp.w	r9, #0
 80032f4:	d02e      	beq.n	8003354 <bmp3_set_regs+0x8e>
 80032f6:	b384      	cbz	r4, 800335a <bmp3_set_regs+0x94>
 80032f8:	7a35      	ldrb	r5, [r6, #8]
 80032fa:	f899 3000 	ldrb.w	r3, [r9]
 80032fe:	f88d 3000 	strb.w	r3, [sp]
 8003302:	b94d      	cbnz	r5, 8003318 <bmp3_set_regs+0x52>
 8003304:	f818 3005 	ldrb.w	r3, [r8, r5]
 8003308:	f003 037f 	and.w	r3, r3, #127	@ 0x7f
 800330c:	f808 3005 	strb.w	r3, [r8, r5]
 8003310:	3501      	adds	r5, #1
 8003312:	b2ed      	uxtb	r5, r5
 8003314:	42a5      	cmp	r5, r4
 8003316:	d3f5      	bcc.n	8003304 <bmp3_set_regs+0x3e>
 8003318:	2c01      	cmp	r4, #1
 800331a:	d019      	beq.n	8003350 <bmp3_set_regs+0x8a>
 800331c:	2301      	movs	r3, #1
 800331e:	1e4d      	subs	r5, r1, #1
 8003320:	f818 0003 	ldrb.w	r0, [r8, r3]
 8003324:	f805 0013 	strb.w	r0, [r5, r3, lsl #1]
 8003328:	f819 0003 	ldrb.w	r0, [r9, r3]
 800332c:	f801 0013 	strb.w	r0, [r1, r3, lsl #1]
 8003330:	3301      	adds	r3, #1
 8003332:	429c      	cmp	r4, r3
 8003334:	d8f4      	bhi.n	8003320 <bmp3_set_regs+0x5a>
 8003336:	6934      	ldr	r4, [r6, #16]
 8003338:	6873      	ldr	r3, [r6, #4]
 800333a:	f898 0000 	ldrb.w	r0, [r8]
 800333e:	47a0      	blx	r4
 8003340:	2800      	cmp	r0, #0
 8003342:	7270      	strb	r0, [r6, #9]
 8003344:	bf18      	it	ne
 8003346:	f06f 0001 	mvnne.w	r0, #1
 800334a:	46bd      	mov	sp, r7
 800334c:	e8bd 83f8 	ldmia.w	sp!, {r3, r4, r5, r6, r7, r8, r9, pc}
 8003350:	4622      	mov	r2, r4
 8003352:	e7f0      	b.n	8003336 <bmp3_set_regs+0x70>
 8003354:	f04f 30ff 	mov.w	r0, #4294967295	@ 0xffffffff
 8003358:	e7f7      	b.n	800334a <bmp3_set_regs+0x84>
 800335a:	f06f 0005 	mvn.w	r0, #5
 800335e:	e7f4      	b.n	800334a <bmp3_set_regs+0x84>

08003360 <write_power_mode.isra.0>:
 8003360:	b537      	push	{r0, r1, r2, r4, r5, lr}
 8003362:	460b      	mov	r3, r1
 8003364:	4604      	mov	r4, r0
 8003366:	460d      	mov	r5, r1
 8003368:	201b      	movs	r0, #27
 800336a:	2201      	movs	r2, #1
 800336c:	f10d 0107 	add.w	r1, sp, #7
 8003370:	f88d 0006 	strb.w	r0, [sp, #6]
 8003374:	f7ff ff64 	bl	8003240 <bmp3_get_regs>
 8003378:	b988      	cbnz	r0, 800339e <write_power_mode.isra.0+0x3e>
 800337a:	f89d 2007 	ldrb.w	r2, [sp, #7]
 800337e:	0124      	lsls	r4, r4, #4
 8003380:	f022 0230 	bic.w	r2, r2, #48	@ 0x30
 8003384:	f004 0430 	and.w	r4, r4, #48	@ 0x30
 8003388:	4322      	orrs	r2, r4
 800338a:	f88d 2007 	strb.w	r2, [sp, #7]
 800338e:	462b      	mov	r3, r5
 8003390:	2201      	movs	r2, #1
 8003392:	f10d 0107 	add.w	r1, sp, #7
 8003396:	f10d 0006 	add.w	r0, sp, #6
 800339a:	f7ff ff94 	bl	80032c6 <bmp3_set_regs>
 800339e:	b003      	add	sp, #12
 80033a0:	bd30      	pop	{r4, r5, pc}

080033a2 <bmp3_set_sensor_settings>:
 80033a2:	e92d 41f3 	stmdb	sp!, {r0, r1, r4, r5, r6, r7, r8, lr}
 80033a6:	4605      	mov	r5, r0
 80033a8:	4616      	mov	r6, r2
 80033aa:	460f      	mov	r7, r1
 80033ac:	2900      	cmp	r1, #0
 80033ae:	f000 8116 	beq.w	80035de <bmp3_set_sensor_settings+0x23c>
 80033b2:	f010 0006 	ands.w	r0, r0, #6
 80033b6:	d027      	beq.n	8003408 <bmp3_set_sensor_settings+0x66>
 80033b8:	201b      	movs	r0, #27
 80033ba:	4613      	mov	r3, r2
 80033bc:	a901      	add	r1, sp, #4
 80033be:	2201      	movs	r2, #1
 80033c0:	f88d 0000 	strb.w	r0, [sp]
 80033c4:	f7ff ff3c 	bl	8003240 <bmp3_get_regs>
 80033c8:	b9f0      	cbnz	r0, 8003408 <bmp3_set_sensor_settings+0x66>
 80033ca:	07aa      	lsls	r2, r5, #30
 80033cc:	d509      	bpl.n	80033e2 <bmp3_set_sensor_settings+0x40>
 80033ce:	f89d 3004 	ldrb.w	r3, [sp, #4]
 80033d2:	787a      	ldrb	r2, [r7, #1]
 80033d4:	f023 0301 	bic.w	r3, r3, #1
 80033d8:	f002 0201 	and.w	r2, r2, #1
 80033dc:	4313      	orrs	r3, r2
 80033de:	f88d 3004 	strb.w	r3, [sp, #4]
 80033e2:	076b      	lsls	r3, r5, #29
 80033e4:	d50a      	bpl.n	80033fc <bmp3_set_sensor_settings+0x5a>
 80033e6:	78bb      	ldrb	r3, [r7, #2]
 80033e8:	f89d 2004 	ldrb.w	r2, [sp, #4]
 80033ec:	005b      	lsls	r3, r3, #1
 80033ee:	f003 0302 	and.w	r3, r3, #2
 80033f2:	f022 0202 	bic.w	r2, r2, #2
 80033f6:	4313      	orrs	r3, r2
 80033f8:	f88d 3004 	strb.w	r3, [sp, #4]
 80033fc:	4633      	mov	r3, r6
 80033fe:	2201      	movs	r2, #1
 8003400:	a901      	add	r1, sp, #4
 8003402:	4668      	mov	r0, sp
 8003404:	f7ff ff5f 	bl	80032c6 <bmp3_set_regs>
 8003408:	f015 0ff0 	tst.w	r5, #240	@ 0xf0
 800340c:	d06a      	beq.n	80034e4 <bmp3_set_sensor_settings+0x142>
 800340e:	2300      	movs	r3, #0
 8003410:	2204      	movs	r2, #4
 8003412:	f8ad 3000 	strh.w	r3, [sp]
 8003416:	f88d 3002 	strb.w	r3, [sp, #2]
 800341a:	eb0d 0102 	add.w	r1, sp, r2
 800341e:	4633      	mov	r3, r6
 8003420:	201c      	movs	r0, #28
 8003422:	f7ff ff0d 	bl	8003240 <bmp3_get_regs>
 8003426:	2800      	cmp	r0, #0
 8003428:	d15c      	bne.n	80034e4 <bmp3_set_sensor_settings+0x142>
 800342a:	f015 0f30 	tst.w	r5, #48	@ 0x30
 800342e:	f000 80d1 	beq.w	80035d4 <bmp3_set_sensor_settings+0x232>
 8003432:	06ec      	lsls	r4, r5, #27
 8003434:	793a      	ldrb	r2, [r7, #4]
 8003436:	d509      	bpl.n	800344c <bmp3_set_sensor_settings+0xaa>
 8003438:	f89d 3004 	ldrb.w	r3, [sp, #4]
 800343c:	78f9      	ldrb	r1, [r7, #3]
 800343e:	f023 0307 	bic.w	r3, r3, #7
 8003442:	f001 0107 	and.w	r1, r1, #7
 8003446:	430b      	orrs	r3, r1
 8003448:	f88d 3004 	strb.w	r3, [sp, #4]
 800344c:	06a8      	lsls	r0, r5, #26
 800344e:	d509      	bpl.n	8003464 <bmp3_set_sensor_settings+0xc2>
 8003450:	f89d 3004 	ldrb.w	r3, [sp, #4]
 8003454:	00d2      	lsls	r2, r2, #3
 8003456:	f023 0338 	bic.w	r3, r3, #56	@ 0x38
 800345a:	f002 0238 	and.w	r2, r2, #56	@ 0x38
 800345e:	4313      	orrs	r3, r2
 8003460:	f88d 3004 	strb.w	r3, [sp, #4]
 8003464:	231c      	movs	r3, #28
 8003466:	f88d 3000 	strb.w	r3, [sp]
 800346a:	2401      	movs	r4, #1
 800346c:	0629      	lsls	r1, r5, #24
 800346e:	d515      	bpl.n	800349c <bmp3_set_sensor_settings+0xfa>
 8003470:	79bb      	ldrb	r3, [r7, #6]
 8003472:	f104 0208 	add.w	r2, r4, #8
 8003476:	eb0d 0102 	add.w	r1, sp, r2
 800347a:	f89d 2005 	ldrb.w	r2, [sp, #5]
 800347e:	2b11      	cmp	r3, #17
 8003480:	bf88      	it	hi
 8003482:	2311      	movhi	r3, #17
 8003484:	f022 021f 	bic.w	r2, r2, #31
 8003488:	bf88      	it	hi
 800348a:	71bb      	strbhi	r3, [r7, #6]
 800348c:	4313      	orrs	r3, r2
 800348e:	f801 3c04 	strb.w	r3, [r1, #-4]
 8003492:	1c60      	adds	r0, r4, #1
 8003494:	231d      	movs	r3, #29
 8003496:	f801 3c08 	strb.w	r3, [r1, #-8]
 800349a:	b2c4      	uxtb	r4, r0
 800349c:	066a      	lsls	r2, r5, #25
 800349e:	d513      	bpl.n	80034c8 <bmp3_set_sensor_settings+0x126>
 80034a0:	f104 0308 	add.w	r3, r4, #8
 80034a4:	eb0d 0103 	add.w	r1, sp, r3
 80034a8:	797b      	ldrb	r3, [r7, #5]
 80034aa:	f89d 2007 	ldrb.w	r2, [sp, #7]
 80034ae:	005b      	lsls	r3, r3, #1
 80034b0:	f003 030e 	and.w	r3, r3, #14
 80034b4:	f022 020e 	bic.w	r2, r2, #14
 80034b8:	4313      	orrs	r3, r2
 80034ba:	f801 3c04 	strb.w	r3, [r1, #-4]
 80034be:	1c60      	adds	r0, r4, #1
 80034c0:	231f      	movs	r3, #31
 80034c2:	f801 3c08 	strb.w	r3, [r1, #-8]
 80034c6:	b2c4      	uxtb	r4, r0
 80034c8:	783b      	ldrb	r3, [r7, #0]
 80034ca:	2b03      	cmp	r3, #3
 80034cc:	d104      	bne.n	80034d8 <bmp3_set_sensor_settings+0x136>
 80034ce:	4638      	mov	r0, r7
 80034d0:	f7ff fe6c 	bl	80031ac <validate_osr_and_odr_settings>
 80034d4:	2800      	cmp	r0, #0
 80034d6:	d17f      	bne.n	80035d8 <bmp3_set_sensor_settings+0x236>
 80034d8:	4633      	mov	r3, r6
 80034da:	4622      	mov	r2, r4
 80034dc:	a901      	add	r1, sp, #4
 80034de:	4668      	mov	r0, sp
 80034e0:	f7ff fef1 	bl	80032c6 <bmp3_set_regs>
 80034e4:	f415 6fe1 	tst.w	r5, #1800	@ 0x708
 80034e8:	d042      	beq.n	8003570 <bmp3_set_sensor_settings+0x1ce>
 80034ea:	2019      	movs	r0, #25
 80034ec:	4633      	mov	r3, r6
 80034ee:	2201      	movs	r2, #1
 80034f0:	4669      	mov	r1, sp
 80034f2:	f88d 0004 	strb.w	r0, [sp, #4]
 80034f6:	f7ff fea3 	bl	8003240 <bmp3_get_regs>
 80034fa:	2800      	cmp	r0, #0
 80034fc:	d138      	bne.n	8003570 <bmp3_set_sensor_settings+0x1ce>
 80034fe:	05eb      	lsls	r3, r5, #23
 8003500:	7a38      	ldrb	r0, [r7, #8]
 8003502:	7a79      	ldrb	r1, [r7, #9]
 8003504:	7aba      	ldrb	r2, [r7, #10]
 8003506:	d509      	bpl.n	800351c <bmp3_set_sensor_settings+0x17a>
 8003508:	f89d 3000 	ldrb.w	r3, [sp]
 800350c:	79fc      	ldrb	r4, [r7, #7]
 800350e:	f023 0301 	bic.w	r3, r3, #1
 8003512:	f004 0401 	and.w	r4, r4, #1
 8003516:	4323      	orrs	r3, r4
 8003518:	f88d 3000 	strb.w	r3, [sp]
 800351c:	05ac      	lsls	r4, r5, #22
 800351e:	d509      	bpl.n	8003534 <bmp3_set_sensor_settings+0x192>
 8003520:	f89d 3000 	ldrb.w	r3, [sp]
 8003524:	0040      	lsls	r0, r0, #1
 8003526:	f023 0302 	bic.w	r3, r3, #2
 800352a:	f000 0002 	and.w	r0, r0, #2
 800352e:	4303      	orrs	r3, r0
 8003530:	f88d 3000 	strb.w	r3, [sp]
 8003534:	0568      	lsls	r0, r5, #21
 8003536:	d509      	bpl.n	800354c <bmp3_set_sensor_settings+0x1aa>
 8003538:	f89d 3000 	ldrb.w	r3, [sp]
 800353c:	0089      	lsls	r1, r1, #2
 800353e:	f023 0304 	bic.w	r3, r3, #4
 8003542:	f001 0104 	and.w	r1, r1, #4
 8003546:	430b      	orrs	r3, r1
 8003548:	f88d 3000 	strb.w	r3, [sp]
 800354c:	0729      	lsls	r1, r5, #28
 800354e:	d509      	bpl.n	8003564 <bmp3_set_sensor_settings+0x1c2>
 8003550:	f89d 3000 	ldrb.w	r3, [sp]
 8003554:	0192      	lsls	r2, r2, #6
 8003556:	f023 0340 	bic.w	r3, r3, #64	@ 0x40
 800355a:	f002 0240 	and.w	r2, r2, #64	@ 0x40
 800355e:	4313      	orrs	r3, r2
 8003560:	f88d 3000 	strb.w	r3, [sp]
 8003564:	4633      	mov	r3, r6
 8003566:	2201      	movs	r2, #1
 8003568:	4669      	mov	r1, sp
 800356a:	a801      	add	r0, sp, #4
 800356c:	f7ff feab 	bl	80032c6 <bmp3_set_regs>
 8003570:	f415 5fc0 	tst.w	r5, #6144	@ 0x1800
 8003574:	d02b      	beq.n	80035ce <bmp3_set_sensor_settings+0x22c>
 8003576:	201a      	movs	r0, #26
 8003578:	4633      	mov	r3, r6
 800357a:	2201      	movs	r2, #1
 800357c:	a901      	add	r1, sp, #4
 800357e:	f897 800b 	ldrb.w	r8, [r7, #11]
 8003582:	7b3c      	ldrb	r4, [r7, #12]
 8003584:	f88d 0000 	strb.w	r0, [sp]
 8003588:	f7ff fe5a 	bl	8003240 <bmp3_get_regs>
 800358c:	b9f8      	cbnz	r0, 80035ce <bmp3_set_sensor_settings+0x22c>
 800358e:	052a      	lsls	r2, r5, #20
 8003590:	d50b      	bpl.n	80035aa <bmp3_set_sensor_settings+0x208>
 8003592:	f89d 3004 	ldrb.w	r3, [sp, #4]
 8003596:	ea4f 0848 	mov.w	r8, r8, lsl #1
 800359a:	f023 0302 	bic.w	r3, r3, #2
 800359e:	f008 0802 	and.w	r8, r8, #2
 80035a2:	ea43 0308 	orr.w	r3, r3, r8
 80035a6:	f88d 3004 	strb.w	r3, [sp, #4]
 80035aa:	04eb      	lsls	r3, r5, #19
 80035ac:	d509      	bpl.n	80035c2 <bmp3_set_sensor_settings+0x220>
 80035ae:	f89d 3004 	ldrb.w	r3, [sp, #4]
 80035b2:	00a4      	lsls	r4, r4, #2
 80035b4:	f023 0304 	bic.w	r3, r3, #4
 80035b8:	f004 0404 	and.w	r4, r4, #4
 80035bc:	4323      	orrs	r3, r4
 80035be:	f88d 3004 	strb.w	r3, [sp, #4]
 80035c2:	4633      	mov	r3, r6
 80035c4:	2201      	movs	r2, #1
 80035c6:	a901      	add	r1, sp, #4
 80035c8:	4668      	mov	r0, sp
 80035ca:	f7ff fe7c 	bl	80032c6 <bmp3_set_regs>
 80035ce:	b002      	add	sp, #8
 80035d0:	e8bd 81f0 	ldmia.w	sp!, {r4, r5, r6, r7, r8, pc}
 80035d4:	4604      	mov	r4, r0
 80035d6:	e749      	b.n	800346c <bmp3_set_sensor_settings+0xca>
 80035d8:	f06f 0002 	mvn.w	r0, #2
 80035dc:	e782      	b.n	80034e4 <bmp3_set_sensor_settings+0x142>
 80035de:	f04f 30ff 	mov.w	r0, #4294967295	@ 0xffffffff
 80035e2:	e7f4      	b.n	80035ce <bmp3_set_sensor_settings+0x22c>

080035e4 <bmp3_soft_reset>:
 80035e4:	b537      	push	{r0, r1, r2, r4, r5, lr}
 80035e6:	237e      	movs	r3, #126	@ 0x7e
 80035e8:	f88d 3004 	strb.w	r3, [sp, #4]
 80035ec:	23b6      	movs	r3, #182	@ 0xb6
 80035ee:	f88d 3005 	strb.w	r3, [sp, #5]
 80035f2:	4605      	mov	r5, r0
 80035f4:	4603      	mov	r3, r0
 80035f6:	2201      	movs	r2, #1
 80035f8:	f10d 0106 	add.w	r1, sp, #6
 80035fc:	2003      	movs	r0, #3
 80035fe:	f7ff fe1f 	bl	8003240 <bmp3_get_regs>
 8003602:	f89d 3006 	ldrb.w	r3, [sp, #6]
 8003606:	06db      	lsls	r3, r3, #27
 8003608:	4604      	mov	r4, r0
 800360a:	d51f      	bpl.n	800364c <bmp3_soft_reset+0x68>
 800360c:	b9f0      	cbnz	r0, 800364c <bmp3_soft_reset+0x68>
 800360e:	462b      	mov	r3, r5
 8003610:	2201      	movs	r2, #1
 8003612:	f10d 0105 	add.w	r1, sp, #5
 8003616:	a801      	add	r0, sp, #4
 8003618:	f7ff fe55 	bl	80032c6 <bmp3_set_regs>
 800361c:	4604      	mov	r4, r0
 800361e:	b9a8      	cbnz	r0, 800364c <bmp3_soft_reset+0x68>
 8003620:	696b      	ldr	r3, [r5, #20]
 8003622:	6869      	ldr	r1, [r5, #4]
 8003624:	f44f 60fa 	mov.w	r0, #2000	@ 0x7d0
 8003628:	4798      	blx	r3
 800362a:	462b      	mov	r3, r5
 800362c:	2201      	movs	r2, #1
 800362e:	f10d 0107 	add.w	r1, sp, #7
 8003632:	2002      	movs	r0, #2
 8003634:	f7ff fe04 	bl	8003240 <bmp3_get_regs>
 8003638:	f89d 3007 	ldrb.w	r3, [sp, #7]
 800363c:	f003 037e 	and.w	r3, r3, #126	@ 0x7e
 8003640:	4303      	orrs	r3, r0
 8003642:	b2db      	uxtb	r3, r3
 8003644:	2b00      	cmp	r3, #0
 8003646:	bf18      	it	ne
 8003648:	f06f 0403 	mvnne.w	r4, #3
 800364c:	4620      	mov	r0, r4
 800364e:	b003      	add	sp, #12
 8003650:	bd30      	pop	{r4, r5, pc}
	...

08003654 <bmp3_init>:
 8003654:	b530      	push	{r4, r5, lr}
 8003656:	b089      	sub	sp, #36	@ 0x24
 8003658:	2300      	movs	r3, #0
 800365a:	4604      	mov	r4, r0
 800365c:	f88d 3007 	strb.w	r3, [sp, #7]
 8003660:	f7ff fd93 	bl	800318a <null_ptr_check>
 8003664:	2800      	cmp	r0, #0
 8003666:	f040 80da 	bne.w	800381e <bmp3_init+0x1ca>
 800366a:	7a23      	ldrb	r3, [r4, #8]
 800366c:	3b01      	subs	r3, #1
 800366e:	bf18      	it	ne
 8003670:	2301      	movne	r3, #1
 8003672:	72a3      	strb	r3, [r4, #10]
 8003674:	2201      	movs	r2, #1
 8003676:	4623      	mov	r3, r4
 8003678:	f10d 0107 	add.w	r1, sp, #7
 800367c:	f7ff fde0 	bl	8003240 <bmp3_get_regs>
 8003680:	4605      	mov	r5, r0
 8003682:	2800      	cmp	r0, #0
 8003684:	f040 80c8 	bne.w	8003818 <bmp3_init+0x1c4>
 8003688:	f89d 3007 	ldrb.w	r3, [sp, #7]
 800368c:	2b50      	cmp	r3, #80	@ 0x50
 800368e:	d002      	beq.n	8003696 <bmp3_init+0x42>
 8003690:	2b60      	cmp	r3, #96	@ 0x60
 8003692:	f040 80c7 	bne.w	8003824 <bmp3_init+0x1d0>
 8003696:	7023      	strb	r3, [r4, #0]
 8003698:	4620      	mov	r0, r4
 800369a:	f7ff ffa3 	bl	80035e4 <bmp3_soft_reset>
 800369e:	4605      	mov	r5, r0
 80036a0:	2800      	cmp	r0, #0
 80036a2:	f040 80b9 	bne.w	8003818 <bmp3_init+0x1c4>
 80036a6:	4601      	mov	r1, r0
 80036a8:	2215      	movs	r2, #21
 80036aa:	a802      	add	r0, sp, #8
 80036ac:	f004 faae 	bl	8007c0c <memset>
 80036b0:	4623      	mov	r3, r4
 80036b2:	2215      	movs	r2, #21
 80036b4:	a902      	add	r1, sp, #8
 80036b6:	2031      	movs	r0, #49	@ 0x31
 80036b8:	f7ff fdc2 	bl	8003240 <bmp3_get_regs>
 80036bc:	4605      	mov	r5, r0
 80036be:	f8bd 0008 	ldrh.w	r0, [sp, #8]
 80036c2:	f8a4 0090 	strh.w	r0, [r4, #144]	@ 0x90
 80036c6:	f7fc ff45 	bl	8000554 <__aeabi_ui2d>
 80036ca:	4b58      	ldr	r3, [pc, #352]	@ (800382c <bmp3_init+0x1d8>)
 80036cc:	2200      	movs	r2, #0
 80036ce:	f7fc ffbb 	bl	8000648 <__aeabi_dmul>
 80036d2:	e9c4 0106 	strd	r0, r1, [r4, #24]
 80036d6:	f8bd 000a 	ldrh.w	r0, [sp, #10]
 80036da:	f8a4 0092 	strh.w	r0, [r4, #146]	@ 0x92
 80036de:	f7fc ff39 	bl	8000554 <__aeabi_ui2d>
 80036e2:	4b53      	ldr	r3, [pc, #332]	@ (8003830 <bmp3_init+0x1dc>)
 80036e4:	2200      	movs	r2, #0
 80036e6:	f7fc ffaf 	bl	8000648 <__aeabi_dmul>
 80036ea:	e9c4 0108 	strd	r0, r1, [r4, #32]
 80036ee:	f99d 000c 	ldrsb.w	r0, [sp, #12]
 80036f2:	f884 0094 	strb.w	r0, [r4, #148]	@ 0x94
 80036f6:	f7fc ff3d 	bl	8000574 <__aeabi_i2d>
 80036fa:	4b4e      	ldr	r3, [pc, #312]	@ (8003834 <bmp3_init+0x1e0>)
 80036fc:	2200      	movs	r2, #0
 80036fe:	f7fc ffa3 	bl	8000648 <__aeabi_dmul>
 8003702:	e9c4 010a 	strd	r0, r1, [r4, #40]	@ 0x28
 8003706:	f9bd 000d 	ldrsh.w	r0, [sp, #13]
 800370a:	f8a4 0096 	strh.w	r0, [r4, #150]	@ 0x96
 800370e:	f5a0 4080 	sub.w	r0, r0, #16384	@ 0x4000
 8003712:	f7fc ff2f 	bl	8000574 <__aeabi_i2d>
 8003716:	4b48      	ldr	r3, [pc, #288]	@ (8003838 <bmp3_init+0x1e4>)
 8003718:	2200      	movs	r2, #0
 800371a:	f7fc ff95 	bl	8000648 <__aeabi_dmul>
 800371e:	e9c4 010c 	strd	r0, r1, [r4, #48]	@ 0x30
 8003722:	f9bd 000f 	ldrsh.w	r0, [sp, #15]
 8003726:	f8a4 0098 	strh.w	r0, [r4, #152]	@ 0x98
 800372a:	f5a0 4080 	sub.w	r0, r0, #16384	@ 0x4000
 800372e:	f7fc ff21 	bl	8000574 <__aeabi_i2d>
 8003732:	4b42      	ldr	r3, [pc, #264]	@ (800383c <bmp3_init+0x1e8>)
 8003734:	2200      	movs	r2, #0
 8003736:	f7fc ff87 	bl	8000648 <__aeabi_dmul>
 800373a:	e9c4 010e 	strd	r0, r1, [r4, #56]	@ 0x38
 800373e:	f99d 0011 	ldrsb.w	r0, [sp, #17]
 8003742:	f884 009a 	strb.w	r0, [r4, #154]	@ 0x9a
 8003746:	f7fc ff15 	bl	8000574 <__aeabi_i2d>
 800374a:	4b3d      	ldr	r3, [pc, #244]	@ (8003840 <bmp3_init+0x1ec>)
 800374c:	2200      	movs	r2, #0
 800374e:	f7fc ff7b 	bl	8000648 <__aeabi_dmul>
 8003752:	e9c4 0110 	strd	r0, r1, [r4, #64]	@ 0x40
 8003756:	f99d 0012 	ldrsb.w	r0, [sp, #18]
 800375a:	f884 009b 	strb.w	r0, [r4, #155]	@ 0x9b
 800375e:	f7fc ff09 	bl	8000574 <__aeabi_i2d>
 8003762:	4b38      	ldr	r3, [pc, #224]	@ (8003844 <bmp3_init+0x1f0>)
 8003764:	2200      	movs	r2, #0
 8003766:	f7fc ff6f 	bl	8000648 <__aeabi_dmul>
 800376a:	e9c4 0112 	strd	r0, r1, [r4, #72]	@ 0x48
 800376e:	f8bd 0013 	ldrh.w	r0, [sp, #19]
 8003772:	f8a4 009c 	strh.w	r0, [r4, #156]	@ 0x9c
 8003776:	f7fc feed 	bl	8000554 <__aeabi_ui2d>
 800377a:	4b33      	ldr	r3, [pc, #204]	@ (8003848 <bmp3_init+0x1f4>)
 800377c:	2200      	movs	r2, #0
 800377e:	f7fc ff63 	bl	8000648 <__aeabi_dmul>
 8003782:	e9c4 0114 	strd	r0, r1, [r4, #80]	@ 0x50
 8003786:	f8bd 0015 	ldrh.w	r0, [sp, #21]
 800378a:	f8a4 009e 	strh.w	r0, [r4, #158]	@ 0x9e
 800378e:	f7fc fee1 	bl	8000554 <__aeabi_ui2d>
 8003792:	4b2e      	ldr	r3, [pc, #184]	@ (800384c <bmp3_init+0x1f8>)
 8003794:	2200      	movs	r2, #0
 8003796:	f7fc ff57 	bl	8000648 <__aeabi_dmul>
 800379a:	e9c4 0116 	strd	r0, r1, [r4, #88]	@ 0x58
 800379e:	f99d 0017 	ldrsb.w	r0, [sp, #23]
 80037a2:	f884 00a0 	strb.w	r0, [r4, #160]	@ 0xa0
 80037a6:	f7fc fee5 	bl	8000574 <__aeabi_i2d>
 80037aa:	4b29      	ldr	r3, [pc, #164]	@ (8003850 <bmp3_init+0x1fc>)
 80037ac:	2200      	movs	r2, #0
 80037ae:	f7fc ff4b 	bl	8000648 <__aeabi_dmul>
 80037b2:	e9c4 0118 	strd	r0, r1, [r4, #96]	@ 0x60
 80037b6:	f99d 0018 	ldrsb.w	r0, [sp, #24]
 80037ba:	f884 00a1 	strb.w	r0, [r4, #161]	@ 0xa1
 80037be:	f7fc fed9 	bl	8000574 <__aeabi_i2d>
 80037c2:	2200      	movs	r2, #0
 80037c4:	f04f 537c 	mov.w	r3, #1056964608	@ 0x3f000000
 80037c8:	f7fc ff3e 	bl	8000648 <__aeabi_dmul>
 80037cc:	e9c4 011a 	strd	r0, r1, [r4, #104]	@ 0x68
 80037d0:	f9bd 0019 	ldrsh.w	r0, [sp, #25]
 80037d4:	f8a4 00a2 	strh.w	r0, [r4, #162]	@ 0xa2
 80037d8:	f7fc fecc 	bl	8000574 <__aeabi_i2d>
 80037dc:	4b15      	ldr	r3, [pc, #84]	@ (8003834 <bmp3_init+0x1e0>)
 80037de:	2200      	movs	r2, #0
 80037e0:	f7fc ff32 	bl	8000648 <__aeabi_dmul>
 80037e4:	e9c4 011c 	strd	r0, r1, [r4, #112]	@ 0x70
 80037e8:	f99d 001b 	ldrsb.w	r0, [sp, #27]
 80037ec:	f884 00a4 	strb.w	r0, [r4, #164]	@ 0xa4
 80037f0:	f7fc fec0 	bl	8000574 <__aeabi_i2d>
 80037f4:	4b0f      	ldr	r3, [pc, #60]	@ (8003834 <bmp3_init+0x1e0>)
 80037f6:	2200      	movs	r2, #0
 80037f8:	f7fc ff26 	bl	8000648 <__aeabi_dmul>
 80037fc:	e9c4 011e 	strd	r0, r1, [r4, #120]	@ 0x78
 8003800:	f99d 001c 	ldrsb.w	r0, [sp, #28]
 8003804:	f884 00a5 	strb.w	r0, [r4, #165]	@ 0xa5
 8003808:	f7fc feb4 	bl	8000574 <__aeabi_i2d>
 800380c:	4b11      	ldr	r3, [pc, #68]	@ (8003854 <bmp3_init+0x200>)
 800380e:	2200      	movs	r2, #0
 8003810:	f7fc ff1a 	bl	8000648 <__aeabi_dmul>
 8003814:	e9c4 0120 	strd	r0, r1, [r4, #128]	@ 0x80
 8003818:	4628      	mov	r0, r5
 800381a:	b009      	add	sp, #36	@ 0x24
 800381c:	bd30      	pop	{r4, r5, pc}
 800381e:	f04f 35ff 	mov.w	r5, #4294967295	@ 0xffffffff
 8003822:	e7f9      	b.n	8003818 <bmp3_init+0x1c4>
 8003824:	f06f 0506 	mvn.w	r5, #6
 8003828:	e7f6      	b.n	8003818 <bmp3_init+0x1c4>
 800382a:	bf00      	nop
 800382c:	40700000 	.word	0x40700000
 8003830:	3e100000 	.word	0x3e100000
 8003834:	3cf00000 	.word	0x3cf00000
 8003838:	3eb00000 	.word	0x3eb00000
 800383c:	3e200000 	.word	0x3e200000
 8003840:	3df00000 	.word	0x3df00000
 8003844:	3da00000 	.word	0x3da00000
 8003848:	40200000 	.word	0x40200000
 800384c:	3f900000 	.word	0x3f900000
 8003850:	3f700000 	.word	0x3f700000
 8003854:	3be00000 	.word	0x3be00000

08003858 <bmp3_get_op_mode>:
 8003858:	b510      	push	{r4, lr}
 800385a:	460b      	mov	r3, r1
 800385c:	4604      	mov	r4, r0
 800385e:	b148      	cbz	r0, 8003874 <bmp3_get_op_mode+0x1c>
 8003860:	4601      	mov	r1, r0
 8003862:	2201      	movs	r2, #1
 8003864:	201b      	movs	r0, #27
 8003866:	f7ff fceb 	bl	8003240 <bmp3_get_regs>
 800386a:	7823      	ldrb	r3, [r4, #0]
 800386c:	f3c3 1301 	ubfx	r3, r3, #4, #2
 8003870:	7023      	strb	r3, [r4, #0]
 8003872:	bd10      	pop	{r4, pc}
 8003874:	f04f 30ff 	mov.w	r0, #4294967295	@ 0xffffffff
 8003878:	e7fb      	b.n	8003872 <bmp3_get_op_mode+0x1a>

0800387a <bmp3_set_op_mode>:
 800387a:	b5f7      	push	{r0, r1, r2, r4, r5, r6, r7, lr}
 800387c:	4605      	mov	r5, r0
 800387e:	4608      	mov	r0, r1
 8003880:	460e      	mov	r6, r1
 8003882:	f7ff fc82 	bl	800318a <null_ptr_check>
 8003886:	2800      	cmp	r0, #0
 8003888:	d16e      	bne.n	8003968 <bmp3_set_op_mode+0xee>
 800388a:	2d00      	cmp	r5, #0
 800388c:	d06c      	beq.n	8003968 <bmp3_set_op_mode+0xee>
 800388e:	f10d 0002 	add.w	r0, sp, #2
 8003892:	782f      	ldrb	r7, [r5, #0]
 8003894:	f7ff ffe0 	bl	8003858 <bmp3_get_op_mode>
 8003898:	f89d 3002 	ldrb.w	r3, [sp, #2]
 800389c:	4604      	mov	r4, r0
 800389e:	b1f3      	cbz	r3, 80038de <bmp3_set_op_mode+0x64>
 80038a0:	2800      	cmp	r0, #0
 80038a2:	d153      	bne.n	800394c <bmp3_set_op_mode+0xd2>
 80038a4:	201b      	movs	r0, #27
 80038a6:	4633      	mov	r3, r6
 80038a8:	2201      	movs	r2, #1
 80038aa:	a901      	add	r1, sp, #4
 80038ac:	f88d 0003 	strb.w	r0, [sp, #3]
 80038b0:	f7ff fcc6 	bl	8003240 <bmp3_get_regs>
 80038b4:	4604      	mov	r4, r0
 80038b6:	b968      	cbnz	r0, 80038d4 <bmp3_set_op_mode+0x5a>
 80038b8:	f89d 3004 	ldrb.w	r3, [sp, #4]
 80038bc:	f023 0330 	bic.w	r3, r3, #48	@ 0x30
 80038c0:	f88d 3004 	strb.w	r3, [sp, #4]
 80038c4:	2201      	movs	r2, #1
 80038c6:	4633      	mov	r3, r6
 80038c8:	a901      	add	r1, sp, #4
 80038ca:	f10d 0003 	add.w	r0, sp, #3
 80038ce:	f7ff fcfa 	bl	80032c6 <bmp3_set_regs>
 80038d2:	4604      	mov	r4, r0
 80038d4:	6973      	ldr	r3, [r6, #20]
 80038d6:	6871      	ldr	r1, [r6, #4]
 80038d8:	f241 3088 	movw	r0, #5000	@ 0x1388
 80038dc:	4798      	blx	r3
 80038de:	bbac      	cbnz	r4, 800394c <bmp3_set_op_mode+0xd2>
 80038e0:	2f03      	cmp	r7, #3
 80038e2:	d139      	bne.n	8003958 <bmp3_set_op_mode+0xde>
 80038e4:	2204      	movs	r2, #4
 80038e6:	4633      	mov	r3, r6
 80038e8:	eb0d 0102 	add.w	r1, sp, r2
 80038ec:	201c      	movs	r0, #28
 80038ee:	f7ff fca7 	bl	8003240 <bmp3_get_regs>
 80038f2:	f89d 3004 	ldrb.w	r3, [sp, #4]
 80038f6:	f003 0207 	and.w	r2, r3, #7
 80038fa:	f3c3 03c2 	ubfx	r3, r3, #3, #3
 80038fe:	712b      	strb	r3, [r5, #4]
 8003900:	f89d 3005 	ldrb.w	r3, [sp, #5]
 8003904:	70ea      	strb	r2, [r5, #3]
 8003906:	f003 031f 	and.w	r3, r3, #31
 800390a:	71ab      	strb	r3, [r5, #6]
 800390c:	f89d 3007 	ldrb.w	r3, [sp, #7]
 8003910:	f3c3 0342 	ubfx	r3, r3, #1, #3
 8003914:	716b      	strb	r3, [r5, #5]
 8003916:	4604      	mov	r4, r0
 8003918:	b9c0      	cbnz	r0, 800394c <bmp3_set_op_mode+0xd2>
 800391a:	4628      	mov	r0, r5
 800391c:	f7ff fc46 	bl	80031ac <validate_osr_and_odr_settings>
 8003920:	b9b8      	cbnz	r0, 8003952 <bmp3_set_op_mode+0xd8>
 8003922:	7828      	ldrb	r0, [r5, #0]
 8003924:	4631      	mov	r1, r6
 8003926:	f7ff fd1b 	bl	8003360 <write_power_mode.isra.0>
 800392a:	4604      	mov	r4, r0
 800392c:	b970      	cbnz	r0, 800394c <bmp3_set_op_mode+0xd2>
 800392e:	4633      	mov	r3, r6
 8003930:	2201      	movs	r2, #1
 8003932:	a901      	add	r1, sp, #4
 8003934:	2002      	movs	r0, #2
 8003936:	f7ff fc83 	bl	8003240 <bmp3_get_regs>
 800393a:	4604      	mov	r4, r0
 800393c:	b930      	cbnz	r0, 800394c <bmp3_set_op_mode+0xd2>
 800393e:	f89d 3004 	ldrb.w	r3, [sp, #4]
 8003942:	f013 0f04 	tst.w	r3, #4
 8003946:	bf18      	it	ne
 8003948:	f06f 0404 	mvnne.w	r4, #4
 800394c:	4620      	mov	r0, r4
 800394e:	b003      	add	sp, #12
 8003950:	bdf0      	pop	{r4, r5, r6, r7, pc}
 8003952:	f06f 0402 	mvn.w	r4, #2
 8003956:	e7f9      	b.n	800394c <bmp3_set_op_mode+0xd2>
 8003958:	2f01      	cmp	r7, #1
 800395a:	d1f7      	bne.n	800394c <bmp3_set_op_mode+0xd2>
 800395c:	7828      	ldrb	r0, [r5, #0]
 800395e:	4631      	mov	r1, r6
 8003960:	f7ff fcfe 	bl	8003360 <write_power_mode.isra.0>
 8003964:	4604      	mov	r4, r0
 8003966:	e7f1      	b.n	800394c <bmp3_set_op_mode+0xd2>
 8003968:	f04f 34ff 	mov.w	r4, #4294967295	@ 0xffffffff
 800396c:	e7ee      	b.n	800394c <bmp3_set_op_mode+0xd2>

0800396e <bmp3_get_sensor_data>:
 800396e:	b5f0      	push	{r4, r5, r6, r7, lr}
 8003970:	b087      	sub	sp, #28
 8003972:	460d      	mov	r5, r1
 8003974:	4607      	mov	r7, r0
 8003976:	2100      	movs	r1, #0
 8003978:	4616      	mov	r6, r2
 800397a:	a802      	add	r0, sp, #8
 800397c:	2210      	movs	r2, #16
 800397e:	9100      	str	r1, [sp, #0]
 8003980:	f8ad 1004 	strh.w	r1, [sp, #4]
 8003984:	f004 f942 	bl	8007c0c <memset>
 8003988:	b33d      	cbz	r5, 80039da <bmp3_get_sensor_data+0x6c>
 800398a:	4633      	mov	r3, r6
 800398c:	2206      	movs	r2, #6
 800398e:	4669      	mov	r1, sp
 8003990:	2004      	movs	r0, #4
 8003992:	f7ff fc55 	bl	8003240 <bmp3_get_regs>
 8003996:	b9f0      	cbnz	r0, 80039d6 <bmp3_get_sensor_data+0x68>
 8003998:	f89d 3002 	ldrb.w	r3, [sp, #2]
 800399c:	f89d 2001 	ldrb.w	r2, [sp, #1]
 80039a0:	f89d 4005 	ldrb.w	r4, [sp, #5]
 80039a4:	041b      	lsls	r3, r3, #16
 80039a6:	ea43 2302 	orr.w	r3, r3, r2, lsl #8
 80039aa:	f89d 2000 	ldrb.w	r2, [sp]
 80039ae:	4313      	orrs	r3, r2
 80039b0:	e9cd 3002 	strd	r3, r0, [sp, #8]
 80039b4:	f89d 3004 	ldrb.w	r3, [sp, #4]
 80039b8:	0424      	lsls	r4, r4, #16
 80039ba:	ea44 2403 	orr.w	r4, r4, r3, lsl #8
 80039be:	f89d 3003 	ldrb.w	r3, [sp, #3]
 80039c2:	431c      	orrs	r4, r3
 80039c4:	e9cd 4004 	strd	r4, r0, [sp, #16]
 80039c8:	f106 0318 	add.w	r3, r6, #24
 80039cc:	462a      	mov	r2, r5
 80039ce:	a902      	add	r1, sp, #8
 80039d0:	4638      	mov	r0, r7
 80039d2:	f7ff fba1 	bl	8003118 <compensate_data>
 80039d6:	b007      	add	sp, #28
 80039d8:	bdf0      	pop	{r4, r5, r6, r7, pc}
 80039da:	f04f 30ff 	mov.w	r0, #4294967295	@ 0xffffffff
 80039de:	e7fa      	b.n	80039d6 <bmp3_get_sensor_data+0x68>

080039e0 <bmp3_cs_high>:
 80039e0:	8901      	ldrh	r1, [r0, #8]
 80039e2:	6840      	ldr	r0, [r0, #4]
 80039e4:	2201      	movs	r2, #1
 80039e6:	f001 b943 	b.w	8004c70 <HAL_GPIO_WritePin>
	...

080039ec <BMP3_Port_InitDWT>:
 80039ec:	4a07      	ldr	r2, [pc, #28]	@ (8003a0c <BMP3_Port_InitDWT+0x20>)
 80039ee:	f8d2 30fc 	ldr.w	r3, [r2, #252]	@ 0xfc
 80039f2:	f043 7380 	orr.w	r3, r3, #16777216	@ 0x1000000
 80039f6:	f8c2 30fc 	str.w	r3, [r2, #252]	@ 0xfc
 80039fa:	4b05      	ldr	r3, [pc, #20]	@ (8003a10 <BMP3_Port_InitDWT+0x24>)
 80039fc:	681a      	ldr	r2, [r3, #0]
 80039fe:	f042 0201 	orr.w	r2, r2, #1
 8003a02:	601a      	str	r2, [r3, #0]
 8003a04:	2200      	movs	r2, #0
 8003a06:	605a      	str	r2, [r3, #4]
 8003a08:	4770      	bx	lr
 8003a0a:	bf00      	nop
 8003a0c:	e000ed00 	.word	0xe000ed00
 8003a10:	e0001000 	.word	0xe0001000

08003a14 <bmp3_hal_read>:
 8003a14:	b5f0      	push	{r4, r5, r6, r7, lr}
 8003a16:	b085      	sub	sp, #20
 8003a18:	461d      	mov	r5, r3
 8003a1a:	f060 007f 	orn	r0, r0, #127	@ 0x7f
 8003a1e:	f88d 000e 	strb.w	r0, [sp, #14]
 8003a22:	460c      	mov	r4, r1
 8003a24:	6858      	ldr	r0, [r3, #4]
 8003a26:	8919      	ldrh	r1, [r3, #8]
 8003a28:	4616      	mov	r6, r2
 8003a2a:	2200      	movs	r2, #0
 8003a2c:	f88d 200f 	strb.w	r2, [sp, #15]
 8003a30:	f001 f91e 	bl	8004c70 <HAL_GPIO_WritePin>
 8003a34:	6828      	ldr	r0, [r5, #0]
 8003a36:	2364      	movs	r3, #100	@ 0x64
 8003a38:	2201      	movs	r2, #1
 8003a3a:	f10d 010e 	add.w	r1, sp, #14
 8003a3e:	f001 ffa3 	bl	8005988 <HAL_SPI_Transmit>
 8003a42:	b9a0      	cbnz	r0, 8003a6e <bmp3_hal_read+0x5a>
 8003a44:	4426      	add	r6, r4
 8003a46:	2764      	movs	r7, #100	@ 0x64
 8003a48:	42b4      	cmp	r4, r6
 8003a4a:	d105      	bne.n	8003a58 <bmp3_hal_read+0x44>
 8003a4c:	4628      	mov	r0, r5
 8003a4e:	f7ff ffc7 	bl	80039e0 <bmp3_cs_high>
 8003a52:	2000      	movs	r0, #0
 8003a54:	b005      	add	sp, #20
 8003a56:	bdf0      	pop	{r4, r5, r6, r7, pc}
 8003a58:	9700      	str	r7, [sp, #0]
 8003a5a:	4622      	mov	r2, r4
 8003a5c:	6828      	ldr	r0, [r5, #0]
 8003a5e:	2301      	movs	r3, #1
 8003a60:	f10d 010f 	add.w	r1, sp, #15
 8003a64:	f002 f856 	bl	8005b14 <HAL_SPI_TransmitReceive>
 8003a68:	3401      	adds	r4, #1
 8003a6a:	2800      	cmp	r0, #0
 8003a6c:	d0ec      	beq.n	8003a48 <bmp3_hal_read+0x34>
 8003a6e:	4628      	mov	r0, r5
 8003a70:	f7ff ffb6 	bl	80039e0 <bmp3_cs_high>
 8003a74:	f04f 30ff 	mov.w	r0, #4294967295	@ 0xffffffff
 8003a78:	e7ec      	b.n	8003a54 <bmp3_hal_read+0x40>

08003a7a <bmp3_hal_write>:
 8003a7a:	b573      	push	{r0, r1, r4, r5, r6, lr}
 8003a7c:	461c      	mov	r4, r3
 8003a7e:	f000 007f 	and.w	r0, r0, #127	@ 0x7f
 8003a82:	f88d 0007 	strb.w	r0, [sp, #7]
 8003a86:	460d      	mov	r5, r1
 8003a88:	6858      	ldr	r0, [r3, #4]
 8003a8a:	8919      	ldrh	r1, [r3, #8]
 8003a8c:	4616      	mov	r6, r2
 8003a8e:	2200      	movs	r2, #0
 8003a90:	f001 f8ee 	bl	8004c70 <HAL_GPIO_WritePin>
 8003a94:	6820      	ldr	r0, [r4, #0]
 8003a96:	2364      	movs	r3, #100	@ 0x64
 8003a98:	2201      	movs	r2, #1
 8003a9a:	f10d 0107 	add.w	r1, sp, #7
 8003a9e:	f001 ff73 	bl	8005988 <HAL_SPI_Transmit>
 8003aa2:	b968      	cbnz	r0, 8003ac0 <bmp3_hal_write+0x46>
 8003aa4:	4629      	mov	r1, r5
 8003aa6:	6820      	ldr	r0, [r4, #0]
 8003aa8:	2364      	movs	r3, #100	@ 0x64
 8003aaa:	b2b2      	uxth	r2, r6
 8003aac:	f001 ff6c 	bl	8005988 <HAL_SPI_Transmit>
 8003ab0:	4605      	mov	r5, r0
 8003ab2:	b928      	cbnz	r0, 8003ac0 <bmp3_hal_write+0x46>
 8003ab4:	4620      	mov	r0, r4
 8003ab6:	f7ff ff93 	bl	80039e0 <bmp3_cs_high>
 8003aba:	4628      	mov	r0, r5
 8003abc:	b002      	add	sp, #8
 8003abe:	bd70      	pop	{r4, r5, r6, pc}
 8003ac0:	4620      	mov	r0, r4
 8003ac2:	f7ff ff8d 	bl	80039e0 <bmp3_cs_high>
 8003ac6:	f04f 30ff 	mov.w	r0, #4294967295	@ 0xffffffff
 8003aca:	e7f7      	b.n	8003abc <bmp3_hal_write+0x42>

08003acc <bmp3_hal_delay_us>:
 8003acc:	b570      	push	{r4, r5, r6, lr}
 8003ace:	4d07      	ldr	r5, [pc, #28]	@ (8003aec <bmp3_hal_delay_us+0x20>)
 8003ad0:	4604      	mov	r4, r0
 8003ad2:	686e      	ldr	r6, [r5, #4]
 8003ad4:	f001 fc74 	bl	80053c0 <HAL_RCC_GetHCLKFreq>
 8003ad8:	4b05      	ldr	r3, [pc, #20]	@ (8003af0 <bmp3_hal_delay_us+0x24>)
 8003ada:	fbb0 f3f3 	udiv	r3, r0, r3
 8003ade:	fb04 f003 	mul.w	r0, r4, r3
 8003ae2:	686b      	ldr	r3, [r5, #4]
 8003ae4:	1b9b      	subs	r3, r3, r6
 8003ae6:	4283      	cmp	r3, r0
 8003ae8:	d3fb      	bcc.n	8003ae2 <bmp3_hal_delay_us+0x16>
 8003aea:	bd70      	pop	{r4, r5, r6, pc}
 8003aec:	e0001000 	.word	0xe0001000
 8003af0:	000f4240 	.word	0x000f4240

08003af4 <MX_FDCAN1_Init>:
 8003af4:	4811      	ldr	r0, [pc, #68]	@ (8003b3c <MX_FDCAN1_Init+0x48>)
 8003af6:	4b12      	ldr	r3, [pc, #72]	@ (8003b40 <MX_FDCAN1_Init+0x4c>)
 8003af8:	b510      	push	{r4, lr}
 8003afa:	f44f 7240 	mov.w	r2, #768	@ 0x300
 8003afe:	6003      	str	r3, [r0, #0]
 8003b00:	2300      	movs	r3, #0
 8003b02:	e9c0 3201 	strd	r3, r2, [r0, #4]
 8003b06:	2201      	movs	r2, #1
 8003b08:	2402      	movs	r4, #2
 8003b0a:	8202      	strh	r2, [r0, #16]
 8003b0c:	210d      	movs	r1, #13
 8003b0e:	6242      	str	r2, [r0, #36]	@ 0x24
 8003b10:	2205      	movs	r2, #5
 8003b12:	e9c0 4405 	strd	r4, r4, [r0, #20]
 8003b16:	e9c0 1407 	strd	r1, r4, [r0, #28]
 8003b1a:	e9c0 240b 	strd	r2, r4, [r0, #44]	@ 0x2c
 8003b1e:	e9c0 330d 	strd	r3, r3, [r0, #52]	@ 0x34
 8003b22:	60c3      	str	r3, [r0, #12]
 8003b24:	7483      	strb	r3, [r0, #18]
 8003b26:	6284      	str	r4, [r0, #40]	@ 0x28
 8003b28:	63c3      	str	r3, [r0, #60]	@ 0x3c
 8003b2a:	f000 fe5d 	bl	80047e8 <HAL_FDCAN_Init>
 8003b2e:	b120      	cbz	r0, 8003b3a <MX_FDCAN1_Init+0x46>
 8003b30:	4620      	mov	r0, r4
 8003b32:	e8bd 4010 	ldmia.w	sp!, {r4, lr}
 8003b36:	f000 b983 	b.w	8003e40 <Error_HandlerEx>
 8003b3a:	bd10      	pop	{r4, pc}
 8003b3c:	20000594 	.word	0x20000594
 8003b40:	40006400 	.word	0x40006400

08003b44 <HAL_FDCAN_MspInit>:
 8003b44:	b510      	push	{r4, lr}
 8003b46:	b09c      	sub	sp, #112	@ 0x70
 8003b48:	4604      	mov	r4, r0
 8003b4a:	2214      	movs	r2, #20
 8003b4c:	2100      	movs	r1, #0
 8003b4e:	a802      	add	r0, sp, #8
 8003b50:	f004 f85c 	bl	8007c0c <memset>
 8003b54:	2254      	movs	r2, #84	@ 0x54
 8003b56:	2100      	movs	r1, #0
 8003b58:	a807      	add	r0, sp, #28
 8003b5a:	f004 f857 	bl	8007c0c <memset>
 8003b5e:	6822      	ldr	r2, [r4, #0]
 8003b60:	4b19      	ldr	r3, [pc, #100]	@ (8003bc8 <HAL_FDCAN_MspInit+0x84>)
 8003b62:	429a      	cmp	r2, r3
 8003b64:	d12e      	bne.n	8003bc4 <HAL_FDCAN_MspInit+0x80>
 8003b66:	f44f 5380 	mov.w	r3, #4096	@ 0x1000
 8003b6a:	9307      	str	r3, [sp, #28]
 8003b6c:	a807      	add	r0, sp, #28
 8003b6e:	f04f 7300 	mov.w	r3, #33554432	@ 0x2000000
 8003b72:	9315      	str	r3, [sp, #84]	@ 0x54
 8003b74:	f001 fc4e 	bl	8005414 <HAL_RCCEx_PeriphCLKConfig>
 8003b78:	b110      	cbz	r0, 8003b80 <HAL_FDCAN_MspInit+0x3c>
 8003b7a:	2003      	movs	r0, #3
 8003b7c:	f000 f960 	bl	8003e40 <Error_HandlerEx>
 8003b80:	4b12      	ldr	r3, [pc, #72]	@ (8003bcc <HAL_FDCAN_MspInit+0x88>)
 8003b82:	6d9a      	ldr	r2, [r3, #88]	@ 0x58
 8003b84:	f042 7200 	orr.w	r2, r2, #33554432	@ 0x2000000
 8003b88:	659a      	str	r2, [r3, #88]	@ 0x58
 8003b8a:	6d9a      	ldr	r2, [r3, #88]	@ 0x58
 8003b8c:	f002 7200 	and.w	r2, r2, #33554432	@ 0x2000000
 8003b90:	9200      	str	r2, [sp, #0]
 8003b92:	9a00      	ldr	r2, [sp, #0]
 8003b94:	6cda      	ldr	r2, [r3, #76]	@ 0x4c
 8003b96:	f042 0201 	orr.w	r2, r2, #1
 8003b9a:	64da      	str	r2, [r3, #76]	@ 0x4c
 8003b9c:	6cdb      	ldr	r3, [r3, #76]	@ 0x4c
 8003b9e:	f003 0301 	and.w	r3, r3, #1
 8003ba2:	9301      	str	r3, [sp, #4]
 8003ba4:	9b01      	ldr	r3, [sp, #4]
 8003ba6:	f44f 52c0 	mov.w	r2, #6144	@ 0x1800
 8003baa:	2302      	movs	r3, #2
 8003bac:	e9cd 2302 	strd	r2, r3, [sp, #8]
 8003bb0:	2300      	movs	r3, #0
 8003bb2:	e9cd 3304 	strd	r3, r3, [sp, #16]
 8003bb6:	a902      	add	r1, sp, #8
 8003bb8:	2309      	movs	r3, #9
 8003bba:	f04f 4090 	mov.w	r0, #1207959552	@ 0x48000000
 8003bbe:	9306      	str	r3, [sp, #24]
 8003bc0:	f000 ff88 	bl	8004ad4 <HAL_GPIO_Init>
 8003bc4:	b01c      	add	sp, #112	@ 0x70
 8003bc6:	bd10      	pop	{r4, pc}
 8003bc8:	40006400 	.word	0x40006400
 8003bcc:	40021000 	.word	0x40021000

08003bd0 <MX_GPIO_Init>:
 8003bd0:	b530      	push	{r4, r5, lr}
 8003bd2:	b089      	sub	sp, #36	@ 0x24
 8003bd4:	2214      	movs	r2, #20
 8003bd6:	2100      	movs	r1, #0
 8003bd8:	a803      	add	r0, sp, #12
 8003bda:	f004 f817 	bl	8007c0c <memset>
 8003bde:	4b28      	ldr	r3, [pc, #160]	@ (8003c80 <MX_GPIO_Init+0xb0>)
 8003be0:	4828      	ldr	r0, [pc, #160]	@ (8003c84 <MX_GPIO_Init+0xb4>)
 8003be2:	6cda      	ldr	r2, [r3, #76]	@ 0x4c
 8003be4:	f042 0201 	orr.w	r2, r2, #1
 8003be8:	64da      	str	r2, [r3, #76]	@ 0x4c
 8003bea:	6cda      	ldr	r2, [r3, #76]	@ 0x4c
 8003bec:	f002 0201 	and.w	r2, r2, #1
 8003bf0:	9201      	str	r2, [sp, #4]
 8003bf2:	9a01      	ldr	r2, [sp, #4]
 8003bf4:	6cda      	ldr	r2, [r3, #76]	@ 0x4c
 8003bf6:	f042 0202 	orr.w	r2, r2, #2
 8003bfa:	64da      	str	r2, [r3, #76]	@ 0x4c
 8003bfc:	6cdb      	ldr	r3, [r3, #76]	@ 0x4c
 8003bfe:	f003 0302 	and.w	r3, r3, #2
 8003c02:	9302      	str	r3, [sp, #8]
 8003c04:	2201      	movs	r2, #1
 8003c06:	f240 6141 	movw	r1, #1601	@ 0x641
 8003c0a:	9b02      	ldr	r3, [sp, #8]
 8003c0c:	f001 f830 	bl	8004c70 <HAL_GPIO_WritePin>
 8003c10:	2200      	movs	r2, #0
 8003c12:	481c      	ldr	r0, [pc, #112]	@ (8003c84 <MX_GPIO_Init+0xb4>)
 8003c14:	2180      	movs	r1, #128	@ 0x80
 8003c16:	f001 f82b 	bl	8004c70 <HAL_GPIO_WritePin>
 8003c1a:	2400      	movs	r4, #0
 8003c1c:	f240 6341 	movw	r3, #1601	@ 0x641
 8003c20:	2501      	movs	r5, #1
 8003c22:	a903      	add	r1, sp, #12
 8003c24:	4817      	ldr	r0, [pc, #92]	@ (8003c84 <MX_GPIO_Init+0xb4>)
 8003c26:	e9cd 3503 	strd	r3, r5, [sp, #12]
 8003c2a:	e9cd 4405 	strd	r4, r4, [sp, #20]
 8003c2e:	f000 ff51 	bl	8004ad4 <HAL_GPIO_Init>
 8003c32:	2380      	movs	r3, #128	@ 0x80
 8003c34:	e9cd 3503 	strd	r3, r5, [sp, #12]
 8003c38:	a903      	add	r1, sp, #12
 8003c3a:	2302      	movs	r3, #2
 8003c3c:	4811      	ldr	r0, [pc, #68]	@ (8003c84 <MX_GPIO_Init+0xb4>)
 8003c3e:	e9cd 3405 	strd	r3, r4, [sp, #20]
 8003c42:	f000 ff47 	bl	8004ad4 <HAL_GPIO_Init>
 8003c46:	2306      	movs	r3, #6
 8003c48:	a903      	add	r1, sp, #12
 8003c4a:	480e      	ldr	r0, [pc, #56]	@ (8003c84 <MX_GPIO_Init+0xb4>)
 8003c4c:	9405      	str	r4, [sp, #20]
 8003c4e:	e9cd 3403 	strd	r3, r4, [sp, #12]
 8003c52:	f000 ff3f 	bl	8004ad4 <HAL_GPIO_Init>
 8003c56:	f44f 1388 	mov.w	r3, #1114112	@ 0x110000
 8003c5a:	f44f 6200 	mov.w	r2, #2048	@ 0x800
 8003c5e:	a903      	add	r1, sp, #12
 8003c60:	4808      	ldr	r0, [pc, #32]	@ (8003c84 <MX_GPIO_Init+0xb4>)
 8003c62:	9405      	str	r4, [sp, #20]
 8003c64:	e9cd 2303 	strd	r2, r3, [sp, #12]
 8003c68:	f000 ff34 	bl	8004ad4 <HAL_GPIO_Init>
 8003c6c:	4622      	mov	r2, r4
 8003c6e:	2105      	movs	r1, #5
 8003c70:	2028      	movs	r0, #40	@ 0x28
 8003c72:	f000 fcf3 	bl	800465c <HAL_NVIC_SetPriority>
 8003c76:	2028      	movs	r0, #40	@ 0x28
 8003c78:	f000 fd22 	bl	80046c0 <HAL_NVIC_EnableIRQ>
 8003c7c:	b009      	add	sp, #36	@ 0x24
 8003c7e:	bd30      	pop	{r4, r5, pc}
 8003c80:	40021000 	.word	0x40021000
 8003c84:	48000400 	.word	0x48000400

08003c88 <APP_ErrorDelayMs>:
 8003c88:	f04f 23e0 	mov.w	r3, #3758153728	@ 0xe000e000
 8003c8c:	691a      	ldr	r2, [r3, #16]
 8003c8e:	03d2      	lsls	r2, r2, #15
 8003c90:	d5fc      	bpl.n	8003c8c <APP_ErrorDelayMs+0x4>
 8003c92:	3801      	subs	r0, #1
 8003c94:	d1fa      	bne.n	8003c8c <APP_ErrorDelayMs+0x4>
 8003c96:	4770      	bx	lr

08003c98 <APP_RecomputeFusedAltitude>:
 8003c98:	b5f8      	push	{r3, r4, r5, r6, r7, lr}
 8003c9a:	2800      	cmp	r0, #0
 8003c9c:	d063      	beq.n	8003d66 <APP_RecomputeFusedAltitude+0xce>
 8003c9e:	7e85      	ldrb	r5, [r0, #26]
 8003ca0:	2d00      	cmp	r5, #0
 8003ca2:	d05d      	beq.n	8003d60 <APP_RecomputeFusedAltitude+0xc8>
 8003ca4:	7dc5      	ldrb	r5, [r0, #23]
 8003ca6:	2d00      	cmp	r5, #0
 8003ca8:	d05a      	beq.n	8003d60 <APP_RecomputeFusedAltitude+0xc8>
 8003caa:	7e05      	ldrb	r5, [r0, #24]
 8003cac:	2d00      	cmp	r5, #0
 8003cae:	d057      	beq.n	8003d60 <APP_RecomputeFusedAltitude+0xc8>
 8003cb0:	7e43      	ldrb	r3, [r0, #25]
 8003cb2:	2b03      	cmp	r3, #3
 8003cb4:	d957      	bls.n	8003d66 <APP_RecomputeFusedAltitude+0xce>
 8003cb6:	f9b0 4008 	ldrsh.w	r4, [r0, #8]
 8003cba:	eb04 0484 	add.w	r4, r4, r4, lsl #2
 8003cbe:	0064      	lsls	r4, r4, #1
 8003cc0:	2501      	movs	r5, #1
 8003cc2:	4b43      	ldr	r3, [pc, #268]	@ (8003dd0 <APP_RecomputeFusedAltitude+0x138>)
 8003cc4:	4f43      	ldr	r7, [pc, #268]	@ (8003dd4 <APP_RecomputeFusedAltitude+0x13c>)
 8003cc6:	781b      	ldrb	r3, [r3, #0]
 8003cc8:	4e43      	ldr	r6, [pc, #268]	@ (8003dd8 <APP_RecomputeFusedAltitude+0x140>)
 8003cca:	2b00      	cmp	r3, #0
 8003ccc:	d053      	beq.n	8003d76 <APP_RecomputeFusedAltitude+0xde>
 8003cce:	4b43      	ldr	r3, [pc, #268]	@ (8003ddc <APP_RecomputeFusedAltitude+0x144>)
 8003cd0:	781b      	ldrb	r3, [r3, #0]
 8003cd2:	2b00      	cmp	r3, #0
 8003cd4:	d04f      	beq.n	8003d76 <APP_RecomputeFusedAltitude+0xde>
 8003cd6:	4b42      	ldr	r3, [pc, #264]	@ (8003de0 <APP_RecomputeFusedAltitude+0x148>)
 8003cd8:	ed93 0a00 	vldr	s0, [r3]
 8003cdc:	eeb5 0ac0 	vcmpe.f32	s0, #0.0
 8003ce0:	eef1 fa10 	vmrs	APSR_nzcv, fpscr
 8003ce4:	d947      	bls.n	8003d76 <APP_RecomputeFusedAltitude+0xde>
 8003ce6:	4b3f      	ldr	r3, [pc, #252]	@ (8003de4 <APP_RecomputeFusedAltitude+0x14c>)
 8003ce8:	edd3 7a00 	vldr	s15, [r3]
 8003cec:	eef5 7ac0 	vcmpe.f32	s15, #0.0
 8003cf0:	eef1 fa10 	vmrs	APSR_nzcv, fpscr
 8003cf4:	d93f      	bls.n	8003d76 <APP_RecomputeFusedAltitude+0xde>
 8003cf6:	ee80 0a27 	vdiv.f32	s0, s0, s15
 8003cfa:	eddf 0a3b 	vldr	s1, [pc, #236]	@ 8003de8 <APP_RecomputeFusedAltitude+0x150>
 8003cfe:	f005 fecd 	bl	8009a9c <powf>
 8003d02:	eef7 7a00 	vmov.f32	s15, #112	@ 0x3f800000  1.0
 8003d06:	ee37 0ac0 	vsub.f32	s0, s15, s0
 8003d0a:	eddf 7a38 	vldr	s15, [pc, #224]	@ 8003dec <APP_RecomputeFusedAltitude+0x154>
 8003d0e:	ee20 0a27 	vmul.f32	s0, s0, s15
 8003d12:	eddf 7a37 	vldr	s15, [pc, #220]	@ 8003df0 <APP_RecomputeFusedAltitude+0x158>
 8003d16:	ee20 0a27 	vmul.f32	s0, s0, s15
 8003d1a:	eddf 7a36 	vldr	s15, [pc, #216]	@ 8003df4 <APP_RecomputeFusedAltitude+0x15c>
 8003d1e:	eeb4 0ae7 	vcmpe.f32	s0, s15
 8003d22:	eef1 fa10 	vmrs	APSR_nzcv, fpscr
 8003d26:	dc22      	bgt.n	8003d6e <APP_RecomputeFusedAltitude+0xd6>
 8003d28:	eddf 7a33 	vldr	s15, [pc, #204]	@ 8003df8 <APP_RecomputeFusedAltitude+0x160>
 8003d2c:	eeb4 0ae7 	vcmpe.f32	s0, s15
 8003d30:	eef1 fa10 	vmrs	APSR_nzcv, fpscr
 8003d34:	d41d      	bmi.n	8003d72 <APP_RecomputeFusedAltitude+0xda>
 8003d36:	eeb5 0ac0 	vcmpe.f32	s0, #0.0
 8003d3a:	eef6 7a00 	vmov.f32	s15, #96	@ 0x3f000000  0.5
 8003d3e:	eef1 fa10 	vmrs	APSR_nzcv, fpscr
 8003d42:	bfac      	ite	ge
 8003d44:	ee30 0a27 	vaddge.f32	s0, s0, s15
 8003d48:	ee30 0a67 	vsublt.f32	s0, s0, s15
 8003d4c:	eefd 7ac0 	vcvt.s32.f32	s15, s0
 8003d50:	ee17 3a90 	vmov	r3, s15
 8003d54:	2201      	movs	r2, #1
 8003d56:	603b      	str	r3, [r7, #0]
 8003d58:	7032      	strb	r2, [r6, #0]
 8003d5a:	b9c5      	cbnz	r5, 8003d8e <APP_RecomputeFusedAltitude+0xf6>
 8003d5c:	461c      	mov	r4, r3
 8003d5e:	e013      	b.n	8003d88 <APP_RecomputeFusedAltitude+0xf0>
 8003d60:	f06f 4400 	mvn.w	r4, #2147483648	@ 0x80000000
 8003d64:	e7ad      	b.n	8003cc2 <APP_RecomputeFusedAltitude+0x2a>
 8003d66:	f06f 4400 	mvn.w	r4, #2147483648	@ 0x80000000
 8003d6a:	2500      	movs	r5, #0
 8003d6c:	e7a9      	b.n	8003cc2 <APP_RecomputeFusedAltitude+0x2a>
 8003d6e:	4b23      	ldr	r3, [pc, #140]	@ (8003dfc <APP_RecomputeFusedAltitude+0x164>)
 8003d70:	e7f0      	b.n	8003d54 <APP_RecomputeFusedAltitude+0xbc>
 8003d72:	4b23      	ldr	r3, [pc, #140]	@ (8003e00 <APP_RecomputeFusedAltitude+0x168>)
 8003d74:	e7ee      	b.n	8003d54 <APP_RecomputeFusedAltitude+0xbc>
 8003d76:	f06f 4300 	mvn.w	r3, #2147483648	@ 0x80000000
 8003d7a:	603b      	str	r3, [r7, #0]
 8003d7c:	2300      	movs	r3, #0
 8003d7e:	429d      	cmp	r5, r3
 8003d80:	7033      	strb	r3, [r6, #0]
 8003d82:	bf08      	it	eq
 8003d84:	f06f 4400 	mvneq.w	r4, #2147483648	@ 0x80000000
 8003d88:	4b1e      	ldr	r3, [pc, #120]	@ (8003e04 <APP_RecomputeFusedAltitude+0x16c>)
 8003d8a:	601c      	str	r4, [r3, #0]
 8003d8c:	bdf8      	pop	{r3, r4, r5, r6, r7, pc}
 8003d8e:	ee07 4a10 	vmov	s14, r4
 8003d92:	eddf 6a1d 	vldr	s13, [pc, #116]	@ 8003e08 <APP_RecomputeFusedAltitude+0x170>
 8003d96:	ee07 3a90 	vmov	s15, r3
 8003d9a:	eeb8 7ac7 	vcvt.f32.s32	s14, s14
 8003d9e:	eef8 7ae7 	vcvt.f32.s32	s15, s15
 8003da2:	ee27 7a26 	vmul.f32	s14, s14, s13
 8003da6:	eddf 6a19 	vldr	s13, [pc, #100]	@ 8003e0c <APP_RecomputeFusedAltitude+0x174>
 8003daa:	eea7 7aa6 	vfma.f32	s14, s15, s13
 8003dae:	eef6 7a00 	vmov.f32	s15, #96	@ 0x3f000000  0.5
 8003db2:	eeb5 7ac0 	vcmpe.f32	s14, #0.0
 8003db6:	eef1 fa10 	vmrs	APSR_nzcv, fpscr
 8003dba:	bfac      	ite	ge
 8003dbc:	ee37 7a27 	vaddge.f32	s14, s14, s15
 8003dc0:	ee37 7a67 	vsublt.f32	s14, s14, s15
 8003dc4:	eefd 7ac7 	vcvt.s32.f32	s15, s14
 8003dc8:	ee17 4a90 	vmov	r4, s15
 8003dcc:	e7dc      	b.n	8003d88 <APP_RecomputeFusedAltitude+0xf0>
 8003dce:	bf00      	nop
 8003dd0:	200005fa 	.word	0x200005fa
 8003dd4:	20000004 	.word	0x20000004
 8003dd8:	200005f9 	.word	0x200005f9
 8003ddc:	200005fb 	.word	0x200005fb
 8003de0:	200005fc 	.word	0x200005fc
 8003de4:	20000008 	.word	0x20000008
 8003de8:	3e42dcae 	.word	0x3e42dcae
 8003dec:	472d2a00 	.word	0x472d2a00
 8003df0:	42c80000 	.word	0x42c80000
 8003df4:	4efffffb 	.word	0x4efffffb
 8003df8:	cefffffb 	.word	0xcefffffb
 8003dfc:	7ffffd78 	.word	0x7ffffd78
 8003e00:	80000288 	.word	0x80000288
 8003e04:	20000000 	.word	0x20000000
 8003e08:	3e19999a 	.word	0x3e19999a
 8003e0c:	3f59999a 	.word	0x3f59999a

08003e10 <APP_LED_AllOff>:
 8003e10:	b508      	push	{r3, lr}
 8003e12:	4806      	ldr	r0, [pc, #24]	@ (8003e2c <APP_LED_AllOff+0x1c>)
 8003e14:	2201      	movs	r2, #1
 8003e16:	f44f 7100 	mov.w	r1, #512	@ 0x200
 8003e1a:	f000 ff29 	bl	8004c70 <HAL_GPIO_WritePin>
 8003e1e:	e8bd 4008 	ldmia.w	sp!, {r3, lr}
 8003e22:	4802      	ldr	r0, [pc, #8]	@ (8003e2c <APP_LED_AllOff+0x1c>)
 8003e24:	2201      	movs	r2, #1
 8003e26:	2140      	movs	r1, #64	@ 0x40
 8003e28:	f000 bf22 	b.w	8004c70 <HAL_GPIO_WritePin>
 8003e2c:	48000400 	.word	0x48000400

08003e30 <Error_Handler_SetCode>:
 8003e30:	4b02      	ldr	r3, [pc, #8]	@ (8003e3c <Error_Handler_SetCode+0xc>)
 8003e32:	781a      	ldrb	r2, [r3, #0]
 8003e34:	b90a      	cbnz	r2, 8003e3a <Error_Handler_SetCode+0xa>
 8003e36:	b100      	cbz	r0, 8003e3a <Error_Handler_SetCode+0xa>
 8003e38:	7018      	strb	r0, [r3, #0]
 8003e3a:	4770      	bx	lr
 8003e3c:	200005f8 	.word	0x200005f8

08003e40 <Error_HandlerEx>:
 8003e40:	b508      	push	{r3, lr}
 8003e42:	f7ff fff5 	bl	8003e30 <Error_Handler_SetCode>
 8003e46:	b672      	cpsid	i
 8003e48:	f7ff ffe2 	bl	8003e10 <APP_LED_AllOff>
 8003e4c:	4b10      	ldr	r3, [pc, #64]	@ (8003e90 <Error_HandlerEx+0x50>)
 8003e4e:	781c      	ldrb	r4, [r3, #0]
 8003e50:	f014 04ff 	ands.w	r4, r4, #255	@ 0xff
 8003e54:	bf08      	it	eq
 8003e56:	240f      	moveq	r4, #15
 8003e58:	2500      	movs	r5, #0
 8003e5a:	480e      	ldr	r0, [pc, #56]	@ (8003e94 <Error_HandlerEx+0x54>)
 8003e5c:	2200      	movs	r2, #0
 8003e5e:	f44f 7100 	mov.w	r1, #512	@ 0x200
 8003e62:	f000 ff05 	bl	8004c70 <HAL_GPIO_WritePin>
 8003e66:	2200      	movs	r2, #0
 8003e68:	480a      	ldr	r0, [pc, #40]	@ (8003e94 <Error_HandlerEx+0x54>)
 8003e6a:	2140      	movs	r1, #64	@ 0x40
 8003e6c:	f000 ff00 	bl	8004c70 <HAL_GPIO_WritePin>
 8003e70:	208c      	movs	r0, #140	@ 0x8c
 8003e72:	f7ff ff09 	bl	8003c88 <APP_ErrorDelayMs>
 8003e76:	3501      	adds	r5, #1
 8003e78:	f7ff ffca 	bl	8003e10 <APP_LED_AllOff>
 8003e7c:	208c      	movs	r0, #140	@ 0x8c
 8003e7e:	f7ff ff03 	bl	8003c88 <APP_ErrorDelayMs>
 8003e82:	42ac      	cmp	r4, r5
 8003e84:	d8e9      	bhi.n	8003e5a <Error_HandlerEx+0x1a>
 8003e86:	f44f 7061 	mov.w	r0, #900	@ 0x384
 8003e8a:	f7ff fefd 	bl	8003c88 <APP_ErrorDelayMs>
 8003e8e:	e7e3      	b.n	8003e58 <Error_HandlerEx+0x18>
 8003e90:	200005f8 	.word	0x200005f8
 8003e94:	48000400 	.word	0x48000400

08003e98 <SystemClock_Config>:
 8003e98:	b500      	push	{lr}
 8003e9a:	b095      	sub	sp, #84	@ 0x54
 8003e9c:	2238      	movs	r2, #56	@ 0x38
 8003e9e:	2100      	movs	r1, #0
 8003ea0:	a806      	add	r0, sp, #24
 8003ea2:	f003 feb3 	bl	8007c0c <memset>
 8003ea6:	2100      	movs	r1, #0
 8003ea8:	2214      	movs	r2, #20
 8003eaa:	a801      	add	r0, sp, #4
 8003eac:	f003 feae 	bl	8007c0c <memset>
 8003eb0:	f44f 7000 	mov.w	r0, #512	@ 0x200
 8003eb4:	f000 feee 	bl	8004c94 <HAL_PWREx_ControlVoltageScaling>
 8003eb8:	2302      	movs	r3, #2
 8003eba:	9306      	str	r3, [sp, #24]
 8003ebc:	f44f 7080 	mov.w	r0, #256	@ 0x100
 8003ec0:	2340      	movs	r3, #64	@ 0x40
 8003ec2:	e9cd 0309 	strd	r0, r3, [sp, #36]	@ 0x24
 8003ec6:	2300      	movs	r3, #0
 8003ec8:	a806      	add	r0, sp, #24
 8003eca:	930d      	str	r3, [sp, #52]	@ 0x34
 8003ecc:	f000 ff42 	bl	8004d54 <HAL_RCC_OscConfig>
 8003ed0:	4601      	mov	r1, r0
 8003ed2:	b110      	cbz	r0, 8003eda <SystemClock_Config+0x42>
 8003ed4:	2001      	movs	r0, #1
 8003ed6:	f7ff ffb3 	bl	8003e40 <Error_HandlerEx>
 8003eda:	e9cd 0003 	strd	r0, r0, [sp, #12]
 8003ede:	220f      	movs	r2, #15
 8003ee0:	2301      	movs	r3, #1
 8003ee2:	9005      	str	r0, [sp, #20]
 8003ee4:	a801      	add	r0, sp, #4
 8003ee6:	e9cd 2301 	strd	r2, r3, [sp, #4]
 8003eea:	f001 f975 	bl	80051d8 <HAL_RCC_ClockConfig>
 8003eee:	2800      	cmp	r0, #0
 8003ef0:	d1f0      	bne.n	8003ed4 <SystemClock_Config+0x3c>
 8003ef2:	b015      	add	sp, #84	@ 0x54
 8003ef4:	bd00      	pop	{pc}
	...

08003ef8 <main>:
 8003ef8:	e92d 4880 	stmdb	sp!, {r7, fp, lr}
 8003efc:	b08b      	sub	sp, #44	@ 0x2c
 8003efe:	f000 fb65 	bl	80045cc <HAL_Init>
 8003f02:	f7ff ffc9 	bl	8003e98 <SystemClock_Config>
 8003f06:	f7ff fe63 	bl	8003bd0 <MX_GPIO_Init>
 8003f0a:	f7ff fdf3 	bl	8003af4 <MX_FDCAN1_Init>
 8003f0e:	f000 f95d 	bl	80041cc <MX_SPI1_Init>
 8003f12:	f000 f983 	bl	800421c <MX_SPI2_Init>
 8003f16:	f000 fa8d 	bl	8004434 <MX_USART2_UART_Init>
 8003f1a:	4895      	ldr	r0, [pc, #596]	@ (8004170 <main+0x278>)
 8003f1c:	2200      	movs	r2, #0
 8003f1e:	2180      	movs	r1, #128	@ 0x80
 8003f20:	f000 fea6 	bl	8004c70 <HAL_GPIO_WritePin>
 8003f24:	4893      	ldr	r0, [pc, #588]	@ (8004174 <main+0x27c>)
 8003f26:	f000 fd5b 	bl	80049e0 <HAL_FDCAN_Start>
 8003f2a:	b920      	cbnz	r0, 8003f36 <main+0x3e>
 8003f2c:	f7fd f92e 	bl	800118c <BMI330_App_Init>
 8003f30:	b120      	cbz	r0, 8003f3c <main+0x44>
 8003f32:	200c      	movs	r0, #12
 8003f34:	e000      	b.n	8003f38 <main+0x40>
 8003f36:	200b      	movs	r0, #11
 8003f38:	f7ff ff82 	bl	8003e40 <Error_HandlerEx>
 8003f3c:	f7fd f9d4 	bl	80012e8 <BMP384_App_Init>
 8003f40:	b108      	cbz	r0, 8003f46 <main+0x4e>
 8003f42:	200d      	movs	r0, #13
 8003f44:	e7f8      	b.n	8003f38 <main+0x40>
 8003f46:	f7fd fbbd 	bl	80016c4 <NEO6M_App_Init>
 8003f4a:	4604      	mov	r4, r0
 8003f4c:	b108      	cbz	r0, 8003f52 <main+0x5a>
 8003f4e:	200e      	movs	r0, #14
 8003f50:	e7f2      	b.n	8003f38 <main+0x40>
 8003f52:	f000 fb57 	bl	8004604 <HAL_GetTick>
 8003f56:	4b88      	ldr	r3, [pc, #544]	@ (8004178 <main+0x280>)
 8003f58:	f8df 9254 	ldr.w	r9, [pc, #596]	@ 80041b0 <main+0x2b8>
 8003f5c:	6018      	str	r0, [r3, #0]
 8003f5e:	f000 fb51 	bl	8004604 <HAL_GetTick>
 8003f62:	4d86      	ldr	r5, [pc, #536]	@ (800417c <main+0x284>)
 8003f64:	4f86      	ldr	r7, [pc, #536]	@ (8004180 <main+0x288>)
 8003f66:	f8c9 0000 	str.w	r0, [r9]
 8003f6a:	f000 fb4b 	bl	8004604 <HAL_GetTick>
 8003f6e:	2300      	movs	r3, #0
 8003f70:	602b      	str	r3, [r5, #0]
 8003f72:	606b      	str	r3, [r5, #4]
 8003f74:	4b83      	ldr	r3, [pc, #524]	@ (8004184 <main+0x28c>)
 8003f76:	603b      	str	r3, [r7, #0]
 8003f78:	4b83      	ldr	r3, [pc, #524]	@ (8004188 <main+0x290>)
 8003f7a:	4a84      	ldr	r2, [pc, #528]	@ (800418c <main+0x294>)
 8003f7c:	701c      	strb	r4, [r3, #0]
 8003f7e:	f06f 4300 	mvn.w	r3, #2147483648	@ 0x80000000
 8003f82:	6013      	str	r3, [r2, #0]
 8003f84:	4a82      	ldr	r2, [pc, #520]	@ (8004190 <main+0x298>)
 8003f86:	f8df a22c 	ldr.w	sl, [pc, #556]	@ 80041b4 <main+0x2bc>
 8003f8a:	7014      	strb	r4, [r2, #0]
 8003f8c:	f8df b228 	ldr.w	fp, [pc, #552]	@ 80041b8 <main+0x2c0>
 8003f90:	4e80      	ldr	r6, [pc, #512]	@ (8004194 <main+0x29c>)
 8003f92:	4a81      	ldr	r2, [pc, #516]	@ (8004198 <main+0x2a0>)
 8003f94:	f8ca 0000 	str.w	r0, [sl]
 8003f98:	f8cb 4000 	str.w	r4, [fp]
 8003f9c:	722c      	strb	r4, [r5, #8]
 8003f9e:	7034      	strb	r4, [r6, #0]
 8003fa0:	6013      	str	r3, [r2, #0]
 8003fa2:	f7ff ff35 	bl	8003e10 <APP_LED_AllOff>
 8003fa6:	f000 fb2d 	bl	8004604 <HAL_GetTick>
 8003faa:	f44f 737a 	mov.w	r3, #1000	@ 0x3e8
 8003fae:	fbb0 f8f3 	udiv	r8, r0, r3
 8003fb2:	fb03 0818 	mls	r8, r3, r8, r0
 8003fb6:	f1b8 0f45 	cmp.w	r8, #69	@ 0x45
 8003fba:	4604      	mov	r4, r0
 8003fbc:	d90c      	bls.n	8003fd8 <main+0xe0>
 8003fbe:	486c      	ldr	r0, [pc, #432]	@ (8004170 <main+0x278>)
 8003fc0:	2201      	movs	r2, #1
 8003fc2:	f44f 7100 	mov.w	r1, #512	@ 0x200
 8003fc6:	f1a8 088c 	sub.w	r8, r8, #140	@ 0x8c
 8003fca:	f000 fe51 	bl	8004c70 <HAL_GPIO_WritePin>
 8003fce:	f1b8 0f45 	cmp.w	r8, #69	@ 0x45
 8003fd2:	d908      	bls.n	8003fe6 <main+0xee>
 8003fd4:	2201      	movs	r2, #1
 8003fd6:	e007      	b.n	8003fe8 <main+0xf0>
 8003fd8:	4865      	ldr	r0, [pc, #404]	@ (8004170 <main+0x278>)
 8003fda:	2200      	movs	r2, #0
 8003fdc:	f44f 7100 	mov.w	r1, #512	@ 0x200
 8003fe0:	f000 fe46 	bl	8004c70 <HAL_GPIO_WritePin>
 8003fe4:	e7f6      	b.n	8003fd4 <main+0xdc>
 8003fe6:	2200      	movs	r2, #0
 8003fe8:	4861      	ldr	r0, [pc, #388]	@ (8004170 <main+0x278>)
 8003fea:	2140      	movs	r1, #64	@ 0x40
 8003fec:	f000 fe40 	bl	8004c70 <HAL_GPIO_WritePin>
 8003ff0:	f7fd fc0e 	bl	8001810 <NEO6M_App_Process>
 8003ff4:	f8d9 3000 	ldr.w	r3, [r9]
 8003ff8:	1ae3      	subs	r3, r4, r3
 8003ffa:	2b27      	cmp	r3, #39	@ 0x27
 8003ffc:	d91e      	bls.n	800403c <main+0x144>
 8003ffe:	f8c9 4000 	str.w	r4, [r9]
 8004002:	f7fd f9f5 	bl	80013f0 <BMP384_App_HasNewData>
 8004006:	b1c8      	cbz	r0, 800403c <main+0x144>
 8004008:	4668      	mov	r0, sp
 800400a:	f7fd f9d1 	bl	80013b0 <BMP384_App_ReadSample>
 800400e:	b9a8      	cbnz	r0, 800403c <main+0x144>
 8004010:	f7fd f9f4 	bl	80013fc <BMP384_App_ClearNewData>
 8004014:	f89d 3008 	ldrb.w	r3, [sp, #8]
 8004018:	b183      	cbz	r3, 800403c <main+0x144>
 800401a:	e89d 0007 	ldmia.w	sp, {r0, r1, r2}
 800401e:	4b57      	ldr	r3, [pc, #348]	@ (800417c <main+0x284>)
 8004020:	f8cb 4000 	str.w	r4, [fp]
 8004024:	e883 0007 	stmia.w	r3, {r0, r1, r2}
 8004028:	f04f 0301 	mov.w	r3, #1
 800402c:	a803      	add	r0, sp, #12
 800402e:	7033      	strb	r3, [r6, #0]
 8004030:	f7fd fbbe 	bl	80017b0 <NEO6M_App_ReadLatest>
 8004034:	b910      	cbnz	r0, 800403c <main+0x144>
 8004036:	a803      	add	r0, sp, #12
 8004038:	f7ff fe2e 	bl	8003c98 <APP_RecomputeFusedAltitude>
 800403c:	7833      	ldrb	r3, [r6, #0]
 800403e:	b1b3      	cbz	r3, 800406e <main+0x176>
 8004040:	f8db 3000 	ldr.w	r3, [fp]
 8004044:	1ae3      	subs	r3, r4, r3
 8004046:	2b96      	cmp	r3, #150	@ 0x96
 8004048:	d911      	bls.n	800406e <main+0x176>
 800404a:	4a50      	ldr	r2, [pc, #320]	@ (800418c <main+0x294>)
 800404c:	f06f 4800 	mvn.w	r8, #2147483648	@ 0x80000000
 8004050:	f8c2 8000 	str.w	r8, [r2]
 8004054:	4a4e      	ldr	r2, [pc, #312]	@ (8004190 <main+0x298>)
 8004056:	2300      	movs	r3, #0
 8004058:	a803      	add	r0, sp, #12
 800405a:	7033      	strb	r3, [r6, #0]
 800405c:	722b      	strb	r3, [r5, #8]
 800405e:	7013      	strb	r3, [r2, #0]
 8004060:	f7fd fba6 	bl	80017b0 <NEO6M_App_ReadLatest>
 8004064:	2800      	cmp	r0, #0
 8004066:	d172      	bne.n	800414e <main+0x256>
 8004068:	a803      	add	r0, sp, #12
 800406a:	f7ff fe15 	bl	8003c98 <APP_RecomputeFusedAltitude>
 800406e:	4b42      	ldr	r3, [pc, #264]	@ (8004178 <main+0x280>)
 8004070:	681b      	ldr	r3, [r3, #0]
 8004072:	1ae3      	subs	r3, r4, r3
 8004074:	2b31      	cmp	r3, #49	@ 0x31
 8004076:	d90a      	bls.n	800408e <main+0x196>
 8004078:	4b3f      	ldr	r3, [pc, #252]	@ (8004178 <main+0x280>)
 800407a:	a803      	add	r0, sp, #12
 800407c:	601c      	str	r4, [r3, #0]
 800407e:	f7fd f8fb 	bl	8001278 <BMI330_App_ReadRaw>
 8004082:	b920      	cbnz	r0, 800408e <main+0x196>
 8004084:	4b44      	ldr	r3, [pc, #272]	@ (8004198 <main+0x2a0>)
 8004086:	a803      	add	r0, sp, #12
 8004088:	6819      	ldr	r1, [r3, #0]
 800408a:	f7fd f9ff 	bl	800148c <CAN_SENSOR_App_SendCombined>
 800408e:	f8da 3000 	ldr.w	r3, [sl]
 8004092:	1ae3      	subs	r3, r4, r3
 8004094:	2bc7      	cmp	r3, #199	@ 0xc7
 8004096:	d956      	bls.n	8004146 <main+0x24e>
 8004098:	f8ca 4000 	str.w	r4, [sl]
 800409c:	f7fd fbaa 	bl	80017f4 <NEO6M_App_HasNewData>
 80040a0:	2800      	cmp	r0, #0
 80040a2:	d050      	beq.n	8004146 <main+0x24e>
 80040a4:	a803      	add	r0, sp, #12
 80040a6:	f7fd fb83 	bl	80017b0 <NEO6M_App_ReadLatest>
 80040aa:	2800      	cmp	r0, #0
 80040ac:	d14b      	bne.n	8004146 <main+0x24e>
 80040ae:	f89d 3026 	ldrb.w	r3, [sp, #38]	@ 0x26
 80040b2:	2b00      	cmp	r3, #0
 80040b4:	d03e      	beq.n	8004134 <main+0x23c>
 80040b6:	f89d 3023 	ldrb.w	r3, [sp, #35]	@ 0x23
 80040ba:	b3db      	cbz	r3, 8004134 <main+0x23c>
 80040bc:	f89d 3024 	ldrb.w	r3, [sp, #36]	@ 0x24
 80040c0:	b3c3      	cbz	r3, 8004134 <main+0x23c>
 80040c2:	f89d 3025 	ldrb.w	r3, [sp, #37]	@ 0x25
 80040c6:	2b03      	cmp	r3, #3
 80040c8:	d934      	bls.n	8004134 <main+0x23c>
 80040ca:	7833      	ldrb	r3, [r6, #0]
 80040cc:	b393      	cbz	r3, 8004134 <main+0x23c>
 80040ce:	ed95 8a00 	vldr	s16, [r5]
 80040d2:	eeb5 8ac0 	vcmpe.f32	s16, #0.0
 80040d6:	eef1 fa10 	vmrs	APSR_nzcv, fpscr
 80040da:	d92b      	bls.n	8004134 <main+0x23c>
 80040dc:	f9bd 3014 	ldrsh.w	r3, [sp, #20]
 80040e0:	ed9f 7a2e 	vldr	s14, [pc, #184]	@ 800419c <main+0x2a4>
 80040e4:	eddf 6a2e 	vldr	s13, [pc, #184]	@ 80041a0 <main+0x2a8>
 80040e8:	eb03 0383 	add.w	r3, r3, r3, lsl #2
 80040ec:	005b      	lsls	r3, r3, #1
 80040ee:	ee07 3a90 	vmov	s15, r3
 80040f2:	eef8 7ae7 	vcvt.f32.s32	s15, s15
 80040f6:	eeb7 0a00 	vmov.f32	s0, #112	@ 0x3f800000  1.0
 80040fa:	ee67 7a87 	vmul.f32	s15, s15, s14
 80040fe:	ee87 7aa6 	vdiv.f32	s14, s15, s13
 8004102:	ee30 0a47 	vsub.f32	s0, s0, s14
 8004106:	eeb5 0ac0 	vcmpe.f32	s0, #0.0
 800410a:	eef1 fa10 	vmrs	APSR_nzcv, fpscr
 800410e:	d911      	bls.n	8004134 <main+0x23c>
 8004110:	eddf 0a24 	vldr	s1, [pc, #144]	@ 80041a4 <main+0x2ac>
 8004114:	f005 fcc2 	bl	8009a9c <powf>
 8004118:	eec8 7a00 	vdiv.f32	s15, s16, s0
 800411c:	eef5 7ac0 	vcmpe.f32	s15, #0.0
 8004120:	eef1 fa10 	vmrs	APSR_nzcv, fpscr
 8004124:	d906      	bls.n	8004134 <main+0x23c>
 8004126:	4a18      	ldr	r2, [pc, #96]	@ (8004188 <main+0x290>)
 8004128:	7813      	ldrb	r3, [r2, #0]
 800412a:	b9a3      	cbnz	r3, 8004156 <main+0x25e>
 800412c:	2301      	movs	r3, #1
 800412e:	edc7 7a00 	vstr	s15, [r7]
 8004132:	7013      	strb	r3, [r2, #0]
 8004134:	a803      	add	r0, sp, #12
 8004136:	f7ff fdaf 	bl	8003c98 <APP_RecomputeFusedAltitude>
 800413a:	a803      	add	r0, sp, #12
 800413c:	f7fd f96e 	bl	800141c <CAN_NEO6M_App_SendData>
 8004140:	b908      	cbnz	r0, 8004146 <main+0x24e>
 8004142:	f7fd fb5d 	bl	8001800 <NEO6M_App_ClearNewData>
 8004146:	2001      	movs	r0, #1
 8004148:	f000 fa62 	bl	8004610 <HAL_Delay>
 800414c:	e72b      	b.n	8003fa6 <main+0xae>
 800414e:	4b12      	ldr	r3, [pc, #72]	@ (8004198 <main+0x2a0>)
 8004150:	f8c3 8000 	str.w	r8, [r3]
 8004154:	e78b      	b.n	800406e <main+0x176>
 8004156:	ed9f 7a14 	vldr	s14, [pc, #80]	@ 80041a8 <main+0x2b0>
 800415a:	edd7 6a00 	vldr	s13, [r7]
 800415e:	ee67 7a87 	vmul.f32	s15, s15, s14
 8004162:	ed9f 7a12 	vldr	s14, [pc, #72]	@ 80041ac <main+0x2b4>
 8004166:	eee6 7a87 	vfma.f32	s15, s13, s14
 800416a:	edc7 7a00 	vstr	s15, [r7]
 800416e:	e7e1      	b.n	8004134 <main+0x23c>
 8004170:	48000400 	.word	0x48000400
 8004174:	20000594 	.word	0x20000594
 8004178:	20000614 	.word	0x20000614
 800417c:	200005fc 	.word	0x200005fc
 8004180:	20000008 	.word	0x20000008
 8004184:	47c5e680 	.word	0x47c5e680
 8004188:	200005fa 	.word	0x200005fa
 800418c:	20000004 	.word	0x20000004
 8004190:	200005f9 	.word	0x200005f9
 8004194:	200005fb 	.word	0x200005fb
 8004198:	20000000 	.word	0x20000000
 800419c:	3c23d70a 	.word	0x3c23d70a
 80041a0:	472d2a00 	.word	0x472d2a00
 80041a4:	40a82b70 	.word	0x40a82b70
 80041a8:	3ca3d700 	.word	0x3ca3d700
 80041ac:	3f7ae148 	.word	0x3f7ae148
 80041b0:	20000610 	.word	0x20000610
 80041b4:	2000060c 	.word	0x2000060c
 80041b8:	20000608 	.word	0x20000608

080041bc <Error_Handler>:
 80041bc:	b508      	push	{r3, lr}
 80041be:	4b02      	ldr	r3, [pc, #8]	@ (80041c8 <Error_Handler+0xc>)
 80041c0:	7818      	ldrb	r0, [r3, #0]
 80041c2:	f7ff fe3d 	bl	8003e40 <Error_HandlerEx>
 80041c6:	bf00      	nop
 80041c8:	200005f8 	.word	0x200005f8

080041cc <MX_SPI1_Init>:
 80041cc:	4911      	ldr	r1, [pc, #68]	@ (8004214 <MX_SPI1_Init+0x48>)
 80041ce:	b508      	push	{r3, lr}
 80041d0:	4b11      	ldr	r3, [pc, #68]	@ (8004218 <MX_SPI1_Init+0x4c>)
 80041d2:	600b      	str	r3, [r1, #0]
 80041d4:	f44f 7282 	mov.w	r2, #260	@ 0x104
 80041d8:	2300      	movs	r3, #0
 80041da:	e9c1 2301 	strd	r2, r3, [r1, #4]
 80041de:	f44f 62e0 	mov.w	r2, #1792	@ 0x700
 80041e2:	e9c1 2303 	strd	r2, r3, [r1, #12]
 80041e6:	f44f 7000 	mov.w	r0, #512	@ 0x200
 80041ea:	2220      	movs	r2, #32
 80041ec:	e9c1 0206 	strd	r0, r2, [r1, #24]
 80041f0:	e9c1 3308 	strd	r3, r3, [r1, #32]
 80041f4:	614b      	str	r3, [r1, #20]
 80041f6:	628b      	str	r3, [r1, #40]	@ 0x28
 80041f8:	2207      	movs	r2, #7
 80041fa:	630b      	str	r3, [r1, #48]	@ 0x30
 80041fc:	4608      	mov	r0, r1
 80041fe:	2308      	movs	r3, #8
 8004200:	62ca      	str	r2, [r1, #44]	@ 0x2c
 8004202:	634b      	str	r3, [r1, #52]	@ 0x34
 8004204:	f001 fb52 	bl	80058ac <HAL_SPI_Init>
 8004208:	b118      	cbz	r0, 8004212 <MX_SPI1_Init+0x46>
 800420a:	e8bd 4008 	ldmia.w	sp!, {r3, lr}
 800420e:	f7ff bfd5 	b.w	80041bc <Error_Handler>
 8004212:	bd08      	pop	{r3, pc}
 8004214:	2000067c 	.word	0x2000067c
 8004218:	40013000 	.word	0x40013000

0800421c <MX_SPI2_Init>:
 800421c:	4911      	ldr	r1, [pc, #68]	@ (8004264 <MX_SPI2_Init+0x48>)
 800421e:	b508      	push	{r3, lr}
 8004220:	4b11      	ldr	r3, [pc, #68]	@ (8004268 <MX_SPI2_Init+0x4c>)
 8004222:	600b      	str	r3, [r1, #0]
 8004224:	f44f 7282 	mov.w	r2, #260	@ 0x104
 8004228:	2300      	movs	r3, #0
 800422a:	e9c1 2301 	strd	r2, r3, [r1, #4]
 800422e:	f44f 62e0 	mov.w	r2, #1792	@ 0x700
 8004232:	e9c1 2303 	strd	r2, r3, [r1, #12]
 8004236:	f44f 7000 	mov.w	r0, #512	@ 0x200
 800423a:	2220      	movs	r2, #32
 800423c:	e9c1 0206 	strd	r0, r2, [r1, #24]
 8004240:	e9c1 3308 	strd	r3, r3, [r1, #32]
 8004244:	614b      	str	r3, [r1, #20]
 8004246:	628b      	str	r3, [r1, #40]	@ 0x28
 8004248:	2207      	movs	r2, #7
 800424a:	630b      	str	r3, [r1, #48]	@ 0x30
 800424c:	4608      	mov	r0, r1
 800424e:	2308      	movs	r3, #8
 8004250:	62ca      	str	r2, [r1, #44]	@ 0x2c
 8004252:	634b      	str	r3, [r1, #52]	@ 0x34
 8004254:	f001 fb2a 	bl	80058ac <HAL_SPI_Init>
 8004258:	b118      	cbz	r0, 8004262 <MX_SPI2_Init+0x46>
 800425a:	e8bd 4008 	ldmia.w	sp!, {r3, lr}
 800425e:	f7ff bfad 	b.w	80041bc <Error_Handler>
 8004262:	bd08      	pop	{r3, pc}
 8004264:	20000618 	.word	0x20000618
 8004268:	40003800 	.word	0x40003800

0800426c <HAL_SPI_MspInit>:
 800426c:	b510      	push	{r4, lr}
 800426e:	2214      	movs	r2, #20
 8004270:	b08a      	sub	sp, #40	@ 0x28
 8004272:	4604      	mov	r4, r0
 8004274:	2100      	movs	r1, #0
 8004276:	eb0d 0002 	add.w	r0, sp, r2
 800427a:	f003 fcc7 	bl	8007c0c <memset>
 800427e:	6823      	ldr	r3, [r4, #0]
 8004280:	4a21      	ldr	r2, [pc, #132]	@ (8004308 <HAL_SPI_MspInit+0x9c>)
 8004282:	4293      	cmp	r3, r2
 8004284:	d11f      	bne.n	80042c6 <HAL_SPI_MspInit+0x5a>
 8004286:	4b21      	ldr	r3, [pc, #132]	@ (800430c <HAL_SPI_MspInit+0xa0>)
 8004288:	6e1a      	ldr	r2, [r3, #96]	@ 0x60
 800428a:	f442 5280 	orr.w	r2, r2, #4096	@ 0x1000
 800428e:	661a      	str	r2, [r3, #96]	@ 0x60
 8004290:	6e1a      	ldr	r2, [r3, #96]	@ 0x60
 8004292:	f402 5280 	and.w	r2, r2, #4096	@ 0x1000
 8004296:	9201      	str	r2, [sp, #4]
 8004298:	9a01      	ldr	r2, [sp, #4]
 800429a:	6cda      	ldr	r2, [r3, #76]	@ 0x4c
 800429c:	f042 0201 	orr.w	r2, r2, #1
 80042a0:	64da      	str	r2, [r3, #76]	@ 0x4c
 80042a2:	6cdb      	ldr	r3, [r3, #76]	@ 0x4c
 80042a4:	f003 0301 	and.w	r3, r3, #1
 80042a8:	9302      	str	r3, [sp, #8]
 80042aa:	21e0      	movs	r1, #224	@ 0xe0
 80042ac:	9b02      	ldr	r3, [sp, #8]
 80042ae:	2302      	movs	r3, #2
 80042b0:	e9cd 1305 	strd	r1, r3, [sp, #20]
 80042b4:	2305      	movs	r3, #5
 80042b6:	9309      	str	r3, [sp, #36]	@ 0x24
 80042b8:	a905      	add	r1, sp, #20
 80042ba:	f04f 4090 	mov.w	r0, #1207959552	@ 0x48000000
 80042be:	f000 fc09 	bl	8004ad4 <HAL_GPIO_Init>
 80042c2:	b00a      	add	sp, #40	@ 0x28
 80042c4:	bd10      	pop	{r4, pc}
 80042c6:	4a12      	ldr	r2, [pc, #72]	@ (8004310 <HAL_SPI_MspInit+0xa4>)
 80042c8:	4293      	cmp	r3, r2
 80042ca:	d1fa      	bne.n	80042c2 <HAL_SPI_MspInit+0x56>
 80042cc:	4b0f      	ldr	r3, [pc, #60]	@ (800430c <HAL_SPI_MspInit+0xa0>)
 80042ce:	4811      	ldr	r0, [pc, #68]	@ (8004314 <HAL_SPI_MspInit+0xa8>)
 80042d0:	6d9a      	ldr	r2, [r3, #88]	@ 0x58
 80042d2:	f442 4280 	orr.w	r2, r2, #16384	@ 0x4000
 80042d6:	659a      	str	r2, [r3, #88]	@ 0x58
 80042d8:	6d9a      	ldr	r2, [r3, #88]	@ 0x58
 80042da:	f402 4280 	and.w	r2, r2, #16384	@ 0x4000
 80042de:	9203      	str	r2, [sp, #12]
 80042e0:	9a03      	ldr	r2, [sp, #12]
 80042e2:	6cda      	ldr	r2, [r3, #76]	@ 0x4c
 80042e4:	f042 0202 	orr.w	r2, r2, #2
 80042e8:	64da      	str	r2, [r3, #76]	@ 0x4c
 80042ea:	6cdb      	ldr	r3, [r3, #76]	@ 0x4c
 80042ec:	f003 0302 	and.w	r3, r3, #2
 80042f0:	9304      	str	r3, [sp, #16]
 80042f2:	9b04      	ldr	r3, [sp, #16]
 80042f4:	f44f 4260 	mov.w	r2, #57344	@ 0xe000
 80042f8:	2302      	movs	r3, #2
 80042fa:	e9cd 2305 	strd	r2, r3, [sp, #20]
 80042fe:	2305      	movs	r3, #5
 8004300:	9309      	str	r3, [sp, #36]	@ 0x24
 8004302:	a905      	add	r1, sp, #20
 8004304:	e7db      	b.n	80042be <HAL_SPI_MspInit+0x52>
 8004306:	bf00      	nop
 8004308:	40013000 	.word	0x40013000
 800430c:	40021000 	.word	0x40021000
 8004310:	40003800 	.word	0x40003800
 8004314:	48000400 	.word	0x48000400

08004318 <HAL_MspInit>:
 8004318:	4b0b      	ldr	r3, [pc, #44]	@ (8004348 <HAL_MspInit+0x30>)
 800431a:	6e1a      	ldr	r2, [r3, #96]	@ 0x60
 800431c:	f042 0201 	orr.w	r2, r2, #1
 8004320:	b082      	sub	sp, #8
 8004322:	661a      	str	r2, [r3, #96]	@ 0x60
 8004324:	6e1a      	ldr	r2, [r3, #96]	@ 0x60
 8004326:	f002 0201 	and.w	r2, r2, #1
 800432a:	9200      	str	r2, [sp, #0]
 800432c:	9a00      	ldr	r2, [sp, #0]
 800432e:	6d9a      	ldr	r2, [r3, #88]	@ 0x58
 8004330:	f042 5280 	orr.w	r2, r2, #268435456	@ 0x10000000
 8004334:	659a      	str	r2, [r3, #88]	@ 0x58
 8004336:	6d9b      	ldr	r3, [r3, #88]	@ 0x58
 8004338:	f003 5380 	and.w	r3, r3, #268435456	@ 0x10000000
 800433c:	9301      	str	r3, [sp, #4]
 800433e:	9b01      	ldr	r3, [sp, #4]
 8004340:	b002      	add	sp, #8
 8004342:	f000 bcff 	b.w	8004d44 <HAL_PWREx_DisableUCPDDeadBattery>
 8004346:	bf00      	nop
 8004348:	40021000 	.word	0x40021000

0800434c <NMI_Handler>:
 800434c:	e7fe      	b.n	800434c <NMI_Handler>

0800434e <HardFault_Handler>:
 800434e:	e7fe      	b.n	800434e <HardFault_Handler>

08004350 <MemManage_Handler>:
 8004350:	e7fe      	b.n	8004350 <MemManage_Handler>

08004352 <BusFault_Handler>:
 8004352:	e7fe      	b.n	8004352 <BusFault_Handler>

08004354 <UsageFault_Handler>:
 8004354:	e7fe      	b.n	8004354 <UsageFault_Handler>

08004356 <SVC_Handler>:
 8004356:	4770      	bx	lr

08004358 <DebugMon_Handler>:
 8004358:	4770      	bx	lr

0800435a <PendSV_Handler>:
 800435a:	4770      	bx	lr

0800435c <SysTick_Handler>:
 800435c:	f000 b946 	b.w	80045ec <HAL_IncTick>

08004360 <EXTI15_10_IRQHandler>:
 8004360:	f44f 6000 	mov.w	r0, #2048	@ 0x800
 8004364:	f000 bc8a 	b.w	8004c7c <HAL_GPIO_EXTI_IRQHandler>

08004368 <USART2_IRQHandler>:
 8004368:	4801      	ldr	r0, [pc, #4]	@ (8004370 <USART2_IRQHandler+0x8>)
 800436a:	f001 bd3b 	b.w	8005de4 <HAL_UART_IRQHandler>
 800436e:	bf00      	nop
 8004370:	200006e4 	.word	0x200006e4

08004374 <_getpid>:
 8004374:	2001      	movs	r0, #1
 8004376:	4770      	bx	lr

08004378 <_kill>:
 8004378:	b508      	push	{r3, lr}
 800437a:	f003 fc81 	bl	8007c80 <__errno>
 800437e:	2316      	movs	r3, #22
 8004380:	6003      	str	r3, [r0, #0]
 8004382:	f04f 30ff 	mov.w	r0, #4294967295	@ 0xffffffff
 8004386:	bd08      	pop	{r3, pc}

08004388 <_exit>:
 8004388:	b508      	push	{r3, lr}
 800438a:	f003 fc79 	bl	8007c80 <__errno>
 800438e:	2316      	movs	r3, #22
 8004390:	6003      	str	r3, [r0, #0]
 8004392:	e7fe      	b.n	8004392 <_exit+0xa>

08004394 <_read>:
 8004394:	b570      	push	{r4, r5, r6, lr}
 8004396:	460d      	mov	r5, r1
 8004398:	4614      	mov	r4, r2
 800439a:	460e      	mov	r6, r1
 800439c:	1b73      	subs	r3, r6, r5
 800439e:	429c      	cmp	r4, r3
 80043a0:	dc01      	bgt.n	80043a6 <_read+0x12>
 80043a2:	4620      	mov	r0, r4
 80043a4:	bd70      	pop	{r4, r5, r6, pc}
 80043a6:	f3af 8000 	nop.w
 80043aa:	f806 0b01 	strb.w	r0, [r6], #1
 80043ae:	e7f5      	b.n	800439c <_read+0x8>

080043b0 <_write>:
 80043b0:	b570      	push	{r4, r5, r6, lr}
 80043b2:	460d      	mov	r5, r1
 80043b4:	4614      	mov	r4, r2
 80043b6:	460e      	mov	r6, r1
 80043b8:	1b73      	subs	r3, r6, r5
 80043ba:	429c      	cmp	r4, r3
 80043bc:	dc01      	bgt.n	80043c2 <_write+0x12>
 80043be:	4620      	mov	r0, r4
 80043c0:	bd70      	pop	{r4, r5, r6, pc}
 80043c2:	f816 0b01 	ldrb.w	r0, [r6], #1
 80043c6:	f3af 8000 	nop.w
 80043ca:	e7f5      	b.n	80043b8 <_write+0x8>

080043cc <_close>:
 80043cc:	f04f 30ff 	mov.w	r0, #4294967295	@ 0xffffffff
 80043d0:	4770      	bx	lr

080043d2 <_fstat>:
 80043d2:	f44f 5300 	mov.w	r3, #8192	@ 0x2000
 80043d6:	604b      	str	r3, [r1, #4]
 80043d8:	2000      	movs	r0, #0
 80043da:	4770      	bx	lr

080043dc <_isatty>:
 80043dc:	2001      	movs	r0, #1
 80043de:	4770      	bx	lr

080043e0 <_lseek>:
 80043e0:	2000      	movs	r0, #0
 80043e2:	4770      	bx	lr

080043e4 <_sbrk>:
 80043e4:	4a0a      	ldr	r2, [pc, #40]	@ (8004410 <_sbrk+0x2c>)
 80043e6:	4603      	mov	r3, r0
 80043e8:	6810      	ldr	r0, [r2, #0]
 80043ea:	b510      	push	{r4, lr}
 80043ec:	b908      	cbnz	r0, 80043f2 <_sbrk+0xe>
 80043ee:	4809      	ldr	r0, [pc, #36]	@ (8004414 <_sbrk+0x30>)
 80043f0:	6010      	str	r0, [r2, #0]
 80043f2:	4909      	ldr	r1, [pc, #36]	@ (8004418 <_sbrk+0x34>)
 80043f4:	4c09      	ldr	r4, [pc, #36]	@ (800441c <_sbrk+0x38>)
 80043f6:	4403      	add	r3, r0
 80043f8:	1b09      	subs	r1, r1, r4
 80043fa:	428b      	cmp	r3, r1
 80043fc:	d906      	bls.n	800440c <_sbrk+0x28>
 80043fe:	f003 fc3f 	bl	8007c80 <__errno>
 8004402:	230c      	movs	r3, #12
 8004404:	6003      	str	r3, [r0, #0]
 8004406:	f04f 30ff 	mov.w	r0, #4294967295	@ 0xffffffff
 800440a:	bd10      	pop	{r4, pc}
 800440c:	6013      	str	r3, [r2, #0]
 800440e:	e7fc      	b.n	800440a <_sbrk+0x26>
 8004410:	200006e0 	.word	0x200006e0
 8004414:	200008c8 	.word	0x200008c8
 8004418:	20020000 	.word	0x20020000
 800441c:	00000400 	.word	0x00000400

08004420 <SystemInit>:
 8004420:	4a03      	ldr	r2, [pc, #12]	@ (8004430 <SystemInit+0x10>)
 8004422:	f8d2 3088 	ldr.w	r3, [r2, #136]	@ 0x88
 8004426:	f443 0370 	orr.w	r3, r3, #15728640	@ 0xf00000
 800442a:	f8c2 3088 	str.w	r3, [r2, #136]	@ 0x88
 800442e:	4770      	bx	lr
 8004430:	e000ed00 	.word	0xe000ed00

08004434 <MX_USART2_UART_Init>:
 8004434:	4917      	ldr	r1, [pc, #92]	@ (8004494 <MX_USART2_UART_Init+0x60>)
 8004436:	b508      	push	{r3, lr}
 8004438:	4b17      	ldr	r3, [pc, #92]	@ (8004498 <MX_USART2_UART_Init+0x64>)
 800443a:	600b      	str	r3, [r1, #0]
 800443c:	f44f 5216 	mov.w	r2, #9600	@ 0x2580
 8004440:	2300      	movs	r3, #0
 8004442:	e9c1 2301 	strd	r2, r3, [r1, #4]
 8004446:	4608      	mov	r0, r1
 8004448:	220c      	movs	r2, #12
 800444a:	e9c1 3303 	strd	r3, r3, [r1, #12]
 800444e:	e9c1 2305 	strd	r2, r3, [r1, #20]
 8004452:	e9c1 3307 	strd	r3, r3, [r1, #28]
 8004456:	e9c1 3309 	strd	r3, r3, [r1, #36]	@ 0x24
 800445a:	f002 fb25 	bl	8006aa8 <HAL_UART_Init>
 800445e:	b108      	cbz	r0, 8004464 <MX_USART2_UART_Init+0x30>
 8004460:	f7ff feac 	bl	80041bc <Error_Handler>
 8004464:	480b      	ldr	r0, [pc, #44]	@ (8004494 <MX_USART2_UART_Init+0x60>)
 8004466:	2100      	movs	r1, #0
 8004468:	f002 fc3a 	bl	8006ce0 <HAL_UARTEx_SetTxFifoThreshold>
 800446c:	b108      	cbz	r0, 8004472 <MX_USART2_UART_Init+0x3e>
 800446e:	f7ff fea5 	bl	80041bc <Error_Handler>
 8004472:	4808      	ldr	r0, [pc, #32]	@ (8004494 <MX_USART2_UART_Init+0x60>)
 8004474:	2100      	movs	r1, #0
 8004476:	f002 fc53 	bl	8006d20 <HAL_UARTEx_SetRxFifoThreshold>
 800447a:	b108      	cbz	r0, 8004480 <MX_USART2_UART_Init+0x4c>
 800447c:	f7ff fe9e 	bl	80041bc <Error_Handler>
 8004480:	4804      	ldr	r0, [pc, #16]	@ (8004494 <MX_USART2_UART_Init+0x60>)
 8004482:	f002 fc12 	bl	8006caa <HAL_UARTEx_DisableFifoMode>
 8004486:	b118      	cbz	r0, 8004490 <MX_USART2_UART_Init+0x5c>
 8004488:	e8bd 4008 	ldmia.w	sp!, {r3, lr}
 800448c:	f7ff be96 	b.w	80041bc <Error_Handler>
 8004490:	bd08      	pop	{r3, pc}
 8004492:	bf00      	nop
 8004494:	200006e4 	.word	0x200006e4
 8004498:	40004400 	.word	0x40004400

0800449c <HAL_UART_MspInit>:
 800449c:	b510      	push	{r4, lr}
 800449e:	b09c      	sub	sp, #112	@ 0x70
 80044a0:	4604      	mov	r4, r0
 80044a2:	2214      	movs	r2, #20
 80044a4:	2100      	movs	r1, #0
 80044a6:	a802      	add	r0, sp, #8
 80044a8:	f003 fbb0 	bl	8007c0c <memset>
 80044ac:	2254      	movs	r2, #84	@ 0x54
 80044ae:	2100      	movs	r1, #0
 80044b0:	a807      	add	r0, sp, #28
 80044b2:	f003 fbab 	bl	8007c0c <memset>
 80044b6:	6822      	ldr	r2, [r4, #0]
 80044b8:	4b1a      	ldr	r3, [pc, #104]	@ (8004524 <HAL_UART_MspInit+0x88>)
 80044ba:	429a      	cmp	r2, r3
 80044bc:	d130      	bne.n	8004520 <HAL_UART_MspInit+0x84>
 80044be:	2302      	movs	r3, #2
 80044c0:	a807      	add	r0, sp, #28
 80044c2:	9307      	str	r3, [sp, #28]
 80044c4:	f000 ffa6 	bl	8005414 <HAL_RCCEx_PeriphCLKConfig>
 80044c8:	b108      	cbz	r0, 80044ce <HAL_UART_MspInit+0x32>
 80044ca:	f7ff fe77 	bl	80041bc <Error_Handler>
 80044ce:	4b16      	ldr	r3, [pc, #88]	@ (8004528 <HAL_UART_MspInit+0x8c>)
 80044d0:	6d9a      	ldr	r2, [r3, #88]	@ 0x58
 80044d2:	f442 3200 	orr.w	r2, r2, #131072	@ 0x20000
 80044d6:	659a      	str	r2, [r3, #88]	@ 0x58
 80044d8:	6d9a      	ldr	r2, [r3, #88]	@ 0x58
 80044da:	f402 3200 	and.w	r2, r2, #131072	@ 0x20000
 80044de:	9200      	str	r2, [sp, #0]
 80044e0:	9a00      	ldr	r2, [sp, #0]
 80044e2:	6cda      	ldr	r2, [r3, #76]	@ 0x4c
 80044e4:	f042 0201 	orr.w	r2, r2, #1
 80044e8:	64da      	str	r2, [r3, #76]	@ 0x4c
 80044ea:	6cdb      	ldr	r3, [r3, #76]	@ 0x4c
 80044ec:	f003 0301 	and.w	r3, r3, #1
 80044f0:	9301      	str	r3, [sp, #4]
 80044f2:	220c      	movs	r2, #12
 80044f4:	9b01      	ldr	r3, [sp, #4]
 80044f6:	2302      	movs	r3, #2
 80044f8:	e9cd 2302 	strd	r2, r3, [sp, #8]
 80044fc:	2400      	movs	r4, #0
 80044fe:	2307      	movs	r3, #7
 8004500:	a902      	add	r1, sp, #8
 8004502:	f04f 4090 	mov.w	r0, #1207959552	@ 0x48000000
 8004506:	9306      	str	r3, [sp, #24]
 8004508:	e9cd 4404 	strd	r4, r4, [sp, #16]
 800450c:	f000 fae2 	bl	8004ad4 <HAL_GPIO_Init>
 8004510:	2026      	movs	r0, #38	@ 0x26
 8004512:	4622      	mov	r2, r4
 8004514:	2105      	movs	r1, #5
 8004516:	f000 f8a1 	bl	800465c <HAL_NVIC_SetPriority>
 800451a:	2026      	movs	r0, #38	@ 0x26
 800451c:	f000 f8d0 	bl	80046c0 <HAL_NVIC_EnableIRQ>
 8004520:	b01c      	add	sp, #112	@ 0x70
 8004522:	bd10      	pop	{r4, pc}
 8004524:	40004400 	.word	0x40004400
 8004528:	40021000 	.word	0x40021000

0800452c <Reset_Handler>:
 800452c:	480d      	ldr	r0, [pc, #52]	@ (8004564 <LoopForever+0x2>)
 800452e:	4685      	mov	sp, r0
 8004530:	f7ff ff76 	bl	8004420 <SystemInit>
 8004534:	480c      	ldr	r0, [pc, #48]	@ (8004568 <LoopForever+0x6>)
 8004536:	490d      	ldr	r1, [pc, #52]	@ (800456c <LoopForever+0xa>)
 8004538:	4a0d      	ldr	r2, [pc, #52]	@ (8004570 <LoopForever+0xe>)
 800453a:	2300      	movs	r3, #0
 800453c:	e002      	b.n	8004544 <LoopCopyDataInit>

0800453e <CopyDataInit>:
 800453e:	58d4      	ldr	r4, [r2, r3]
 8004540:	50c4      	str	r4, [r0, r3]
 8004542:	3304      	adds	r3, #4

08004544 <LoopCopyDataInit>:
 8004544:	18c4      	adds	r4, r0, r3
 8004546:	428c      	cmp	r4, r1
 8004548:	d3f9      	bcc.n	800453e <CopyDataInit>
 800454a:	4a0a      	ldr	r2, [pc, #40]	@ (8004574 <LoopForever+0x12>)
 800454c:	4c0a      	ldr	r4, [pc, #40]	@ (8004578 <LoopForever+0x16>)
 800454e:	2300      	movs	r3, #0
 8004550:	e001      	b.n	8004556 <LoopFillZerobss>

08004552 <FillZerobss>:
 8004552:	6013      	str	r3, [r2, #0]
 8004554:	3204      	adds	r2, #4

08004556 <LoopFillZerobss>:
 8004556:	42a2      	cmp	r2, r4
 8004558:	d3fb      	bcc.n	8004552 <FillZerobss>
 800455a:	f003 fb97 	bl	8007c8c <__libc_init_array>
 800455e:	f7ff fccb 	bl	8003ef8 <main>

08004562 <LoopForever>:
 8004562:	e7fe      	b.n	8004562 <LoopForever>
 8004564:	20020000 	.word	0x20020000
 8004568:	20000000 	.word	0x20000000
 800456c:	200001e0 	.word	0x200001e0
 8004570:	0800a868 	.word	0x0800a868
 8004574:	200001e0 	.word	0x200001e0
 8004578:	200008c8 	.word	0x200008c8

0800457c <ADC1_2_IRQHandler>:
 800457c:	e7fe      	b.n	800457c <ADC1_2_IRQHandler>
	...

08004580 <HAL_InitTick>:
 8004580:	b538      	push	{r3, r4, r5, lr}
 8004582:	4b0f      	ldr	r3, [pc, #60]	@ (80045c0 <HAL_InitTick+0x40>)
 8004584:	681a      	ldr	r2, [r3, #0]
 8004586:	4605      	mov	r5, r0
 8004588:	b90a      	cbnz	r2, 800458e <HAL_InitTick+0xe>
 800458a:	2001      	movs	r0, #1
 800458c:	bd38      	pop	{r3, r4, r5, pc}
 800458e:	f44f 737a 	mov.w	r3, #1000	@ 0x3e8
 8004592:	fbb3 f3f2 	udiv	r3, r3, r2
 8004596:	4a0b      	ldr	r2, [pc, #44]	@ (80045c4 <HAL_InitTick+0x44>)
 8004598:	6810      	ldr	r0, [r2, #0]
 800459a:	fbb0 f0f3 	udiv	r0, r0, r3
 800459e:	f000 f89d 	bl	80046dc <HAL_SYSTICK_Config>
 80045a2:	4604      	mov	r4, r0
 80045a4:	2800      	cmp	r0, #0
 80045a6:	d1f0      	bne.n	800458a <HAL_InitTick+0xa>
 80045a8:	2d0f      	cmp	r5, #15
 80045aa:	d8ee      	bhi.n	800458a <HAL_InitTick+0xa>
 80045ac:	4602      	mov	r2, r0
 80045ae:	4629      	mov	r1, r5
 80045b0:	f04f 30ff 	mov.w	r0, #4294967295	@ 0xffffffff
 80045b4:	f000 f852 	bl	800465c <HAL_NVIC_SetPriority>
 80045b8:	4b03      	ldr	r3, [pc, #12]	@ (80045c8 <HAL_InitTick+0x48>)
 80045ba:	4620      	mov	r0, r4
 80045bc:	601d      	str	r5, [r3, #0]
 80045be:	e7e5      	b.n	800458c <HAL_InitTick+0xc>
 80045c0:	20000010 	.word	0x20000010
 80045c4:	2000000c 	.word	0x2000000c
 80045c8:	20000014 	.word	0x20000014

080045cc <HAL_Init>:
 80045cc:	b510      	push	{r4, lr}
 80045ce:	2003      	movs	r0, #3
 80045d0:	f000 f832 	bl	8004638 <HAL_NVIC_SetPriorityGrouping>
 80045d4:	200f      	movs	r0, #15
 80045d6:	f7ff ffd3 	bl	8004580 <HAL_InitTick>
 80045da:	4604      	mov	r4, r0
 80045dc:	b918      	cbnz	r0, 80045e6 <HAL_Init+0x1a>
 80045de:	f7ff fe9b 	bl	8004318 <HAL_MspInit>
 80045e2:	4620      	mov	r0, r4
 80045e4:	bd10      	pop	{r4, pc}
 80045e6:	2401      	movs	r4, #1
 80045e8:	e7fb      	b.n	80045e2 <HAL_Init+0x16>
	...

080045ec <HAL_IncTick>:
 80045ec:	4a03      	ldr	r2, [pc, #12]	@ (80045fc <HAL_IncTick+0x10>)
 80045ee:	4904      	ldr	r1, [pc, #16]	@ (8004600 <HAL_IncTick+0x14>)
 80045f0:	6813      	ldr	r3, [r2, #0]
 80045f2:	6809      	ldr	r1, [r1, #0]
 80045f4:	440b      	add	r3, r1
 80045f6:	6013      	str	r3, [r2, #0]
 80045f8:	4770      	bx	lr
 80045fa:	bf00      	nop
 80045fc:	20000778 	.word	0x20000778
 8004600:	20000010 	.word	0x20000010

08004604 <HAL_GetTick>:
 8004604:	4b01      	ldr	r3, [pc, #4]	@ (800460c <HAL_GetTick+0x8>)
 8004606:	6818      	ldr	r0, [r3, #0]
 8004608:	4770      	bx	lr
 800460a:	bf00      	nop
 800460c:	20000778 	.word	0x20000778

08004610 <HAL_Delay>:
 8004610:	b538      	push	{r3, r4, r5, lr}
 8004612:	4604      	mov	r4, r0
 8004614:	f7ff fff6 	bl	8004604 <HAL_GetTick>
 8004618:	1c63      	adds	r3, r4, #1
 800461a:	bf1c      	itt	ne
 800461c:	4b05      	ldrne	r3, [pc, #20]	@ (8004634 <HAL_Delay+0x24>)
 800461e:	681b      	ldrne	r3, [r3, #0]
 8004620:	4605      	mov	r5, r0
 8004622:	bf18      	it	ne
 8004624:	18e4      	addne	r4, r4, r3
 8004626:	f7ff ffed 	bl	8004604 <HAL_GetTick>
 800462a:	1b43      	subs	r3, r0, r5
 800462c:	42a3      	cmp	r3, r4
 800462e:	d3fa      	bcc.n	8004626 <HAL_Delay+0x16>
 8004630:	bd38      	pop	{r3, r4, r5, pc}
 8004632:	bf00      	nop
 8004634:	20000010 	.word	0x20000010

08004638 <HAL_NVIC_SetPriorityGrouping>:
 8004638:	4907      	ldr	r1, [pc, #28]	@ (8004658 <HAL_NVIC_SetPriorityGrouping+0x20>)
 800463a:	68ca      	ldr	r2, [r1, #12]
 800463c:	f422 62e0 	bic.w	r2, r2, #1792	@ 0x700
 8004640:	0203      	lsls	r3, r0, #8
 8004642:	0412      	lsls	r2, r2, #16
 8004644:	f403 63e0 	and.w	r3, r3, #1792	@ 0x700
 8004648:	0c12      	lsrs	r2, r2, #16
 800464a:	4313      	orrs	r3, r2
 800464c:	f043 63bf 	orr.w	r3, r3, #100139008	@ 0x5f80000
 8004650:	f443 3300 	orr.w	r3, r3, #131072	@ 0x20000
 8004654:	60cb      	str	r3, [r1, #12]
 8004656:	4770      	bx	lr
 8004658:	e000ed00 	.word	0xe000ed00

0800465c <HAL_NVIC_SetPriority>:
 800465c:	4b16      	ldr	r3, [pc, #88]	@ (80046b8 <HAL_NVIC_SetPriority+0x5c>)
 800465e:	b530      	push	{r4, r5, lr}
 8004660:	68dc      	ldr	r4, [r3, #12]
 8004662:	f3c4 2402 	ubfx	r4, r4, #8, #3
 8004666:	f1c4 0307 	rsb	r3, r4, #7
 800466a:	1d25      	adds	r5, r4, #4
 800466c:	2b04      	cmp	r3, #4
 800466e:	bf28      	it	cs
 8004670:	2304      	movcs	r3, #4
 8004672:	2d06      	cmp	r5, #6
 8004674:	f04f 35ff 	mov.w	r5, #4294967295	@ 0xffffffff
 8004678:	bf8c      	ite	hi
 800467a:	3c03      	subhi	r4, #3
 800467c:	2400      	movls	r4, #0
 800467e:	fa05 f303 	lsl.w	r3, r5, r3
 8004682:	ea21 0303 	bic.w	r3, r1, r3
 8004686:	40a5      	lsls	r5, r4
 8004688:	ea22 0205 	bic.w	r2, r2, r5
 800468c:	40a3      	lsls	r3, r4
 800468e:	2800      	cmp	r0, #0
 8004690:	ea43 0302 	orr.w	r3, r3, r2
 8004694:	bfac      	ite	ge
 8004696:	f100 4060 	addge.w	r0, r0, #3758096384	@ 0xe0000000
 800469a:	4a08      	ldrlt	r2, [pc, #32]	@ (80046bc <HAL_NVIC_SetPriority+0x60>)
 800469c:	ea4f 1303 	mov.w	r3, r3, lsl #4
 80046a0:	bfb8      	it	lt
 80046a2:	f000 000f 	andlt.w	r0, r0, #15
 80046a6:	b2db      	uxtb	r3, r3
 80046a8:	bfaa      	itet	ge
 80046aa:	f500 4061 	addge.w	r0, r0, #57600	@ 0xe100
 80046ae:	5413      	strblt	r3, [r2, r0]
 80046b0:	f880 3300 	strbge.w	r3, [r0, #768]	@ 0x300
 80046b4:	bd30      	pop	{r4, r5, pc}
 80046b6:	bf00      	nop
 80046b8:	e000ed00 	.word	0xe000ed00
 80046bc:	e000ed14 	.word	0xe000ed14

080046c0 <HAL_NVIC_EnableIRQ>:
 80046c0:	2800      	cmp	r0, #0
 80046c2:	db07      	blt.n	80046d4 <HAL_NVIC_EnableIRQ+0x14>
 80046c4:	4a04      	ldr	r2, [pc, #16]	@ (80046d8 <HAL_NVIC_EnableIRQ+0x18>)
 80046c6:	0941      	lsrs	r1, r0, #5
 80046c8:	2301      	movs	r3, #1
 80046ca:	f000 001f 	and.w	r0, r0, #31
 80046ce:	4083      	lsls	r3, r0
 80046d0:	f842 3021 	str.w	r3, [r2, r1, lsl #2]
 80046d4:	4770      	bx	lr
 80046d6:	bf00      	nop
 80046d8:	e000e100 	.word	0xe000e100

080046dc <HAL_SYSTICK_Config>:
 80046dc:	3801      	subs	r0, #1
 80046de:	f1b0 7f80 	cmp.w	r0, #16777216	@ 0x1000000
 80046e2:	d20b      	bcs.n	80046fc <HAL_SYSTICK_Config+0x20>
 80046e4:	f04f 23e0 	mov.w	r3, #3758153728	@ 0xe000e000
 80046e8:	4a05      	ldr	r2, [pc, #20]	@ (8004700 <HAL_SYSTICK_Config+0x24>)
 80046ea:	6158      	str	r0, [r3, #20]
 80046ec:	21f0      	movs	r1, #240	@ 0xf0
 80046ee:	f882 1023 	strb.w	r1, [r2, #35]	@ 0x23
 80046f2:	2000      	movs	r0, #0
 80046f4:	2207      	movs	r2, #7
 80046f6:	6198      	str	r0, [r3, #24]
 80046f8:	611a      	str	r2, [r3, #16]
 80046fa:	4770      	bx	lr
 80046fc:	2001      	movs	r0, #1
 80046fe:	4770      	bx	lr
 8004700:	e000ed00 	.word	0xe000ed00

08004704 <HAL_DMA_Abort>:
 8004704:	4603      	mov	r3, r0
 8004706:	2800      	cmp	r0, #0
 8004708:	d030      	beq.n	800476c <HAL_DMA_Abort+0x68>
 800470a:	f890 2025 	ldrb.w	r2, [r0, #37]	@ 0x25
 800470e:	2a02      	cmp	r2, #2
 8004710:	d009      	beq.n	8004726 <HAL_DMA_Abort+0x22>
 8004712:	2204      	movs	r2, #4
 8004714:	63c2      	str	r2, [r0, #60]	@ 0x3c
 8004716:	2001      	movs	r0, #1
 8004718:	2201      	movs	r2, #1
 800471a:	f883 2025 	strb.w	r2, [r3, #37]	@ 0x25
 800471e:	2200      	movs	r2, #0
 8004720:	f883 2024 	strb.w	r2, [r3, #36]	@ 0x24
 8004724:	4770      	bx	lr
 8004726:	6802      	ldr	r2, [r0, #0]
 8004728:	6811      	ldr	r1, [r2, #0]
 800472a:	f021 0101 	bic.w	r1, r1, #1
 800472e:	6011      	str	r1, [r2, #0]
 8004730:	6811      	ldr	r1, [r2, #0]
 8004732:	f021 010e 	bic.w	r1, r1, #14
 8004736:	6011      	str	r1, [r2, #0]
 8004738:	6c81      	ldr	r1, [r0, #72]	@ 0x48
 800473a:	680a      	ldr	r2, [r1, #0]
 800473c:	f422 7280 	bic.w	r2, r2, #256	@ 0x100
 8004740:	600a      	str	r2, [r1, #0]
 8004742:	e9d0 0210 	ldrd	r0, r2, [r0, #64]	@ 0x40
 8004746:	f002 011f 	and.w	r1, r2, #31
 800474a:	2201      	movs	r2, #1
 800474c:	408a      	lsls	r2, r1
 800474e:	6042      	str	r2, [r0, #4]
 8004750:	e9d3 2113 	ldrd	r2, r1, [r3, #76]	@ 0x4c
 8004754:	6051      	str	r1, [r2, #4]
 8004756:	6d5a      	ldr	r2, [r3, #84]	@ 0x54
 8004758:	b132      	cbz	r2, 8004768 <HAL_DMA_Abort+0x64>
 800475a:	6811      	ldr	r1, [r2, #0]
 800475c:	f421 7180 	bic.w	r1, r1, #256	@ 0x100
 8004760:	6011      	str	r1, [r2, #0]
 8004762:	e9d3 2116 	ldrd	r2, r1, [r3, #88]	@ 0x58
 8004766:	6051      	str	r1, [r2, #4]
 8004768:	2000      	movs	r0, #0
 800476a:	e7d5      	b.n	8004718 <HAL_DMA_Abort+0x14>
 800476c:	2001      	movs	r0, #1
 800476e:	4770      	bx	lr

08004770 <HAL_DMA_Abort_IT>:
 8004770:	b508      	push	{r3, lr}
 8004772:	f890 3025 	ldrb.w	r3, [r0, #37]	@ 0x25
 8004776:	2b02      	cmp	r3, #2
 8004778:	d009      	beq.n	800478e <HAL_DMA_Abort_IT+0x1e>
 800477a:	2304      	movs	r3, #4
 800477c:	63c3      	str	r3, [r0, #60]	@ 0x3c
 800477e:	2200      	movs	r2, #0
 8004780:	2301      	movs	r3, #1
 8004782:	f880 3025 	strb.w	r3, [r0, #37]	@ 0x25
 8004786:	f880 2024 	strb.w	r2, [r0, #36]	@ 0x24
 800478a:	4618      	mov	r0, r3
 800478c:	bd08      	pop	{r3, pc}
 800478e:	6803      	ldr	r3, [r0, #0]
 8004790:	681a      	ldr	r2, [r3, #0]
 8004792:	f022 0201 	bic.w	r2, r2, #1
 8004796:	601a      	str	r2, [r3, #0]
 8004798:	681a      	ldr	r2, [r3, #0]
 800479a:	f022 020e 	bic.w	r2, r2, #14
 800479e:	601a      	str	r2, [r3, #0]
 80047a0:	6c82      	ldr	r2, [r0, #72]	@ 0x48
 80047a2:	6813      	ldr	r3, [r2, #0]
 80047a4:	f423 7380 	bic.w	r3, r3, #256	@ 0x100
 80047a8:	6013      	str	r3, [r2, #0]
 80047aa:	e9d0 1310 	ldrd	r1, r3, [r0, #64]	@ 0x40
 80047ae:	f003 021f 	and.w	r2, r3, #31
 80047b2:	2301      	movs	r3, #1
 80047b4:	4093      	lsls	r3, r2
 80047b6:	604b      	str	r3, [r1, #4]
 80047b8:	e9d0 3213 	ldrd	r3, r2, [r0, #76]	@ 0x4c
 80047bc:	605a      	str	r2, [r3, #4]
 80047be:	6d43      	ldr	r3, [r0, #84]	@ 0x54
 80047c0:	b133      	cbz	r3, 80047d0 <HAL_DMA_Abort_IT+0x60>
 80047c2:	681a      	ldr	r2, [r3, #0]
 80047c4:	f422 7280 	bic.w	r2, r2, #256	@ 0x100
 80047c8:	601a      	str	r2, [r3, #0]
 80047ca:	e9d0 3216 	ldrd	r3, r2, [r0, #88]	@ 0x58
 80047ce:	605a      	str	r2, [r3, #4]
 80047d0:	2301      	movs	r3, #1
 80047d2:	f880 3025 	strb.w	r3, [r0, #37]	@ 0x25
 80047d6:	2300      	movs	r3, #0
 80047d8:	f880 3024 	strb.w	r3, [r0, #36]	@ 0x24
 80047dc:	6b83      	ldr	r3, [r0, #56]	@ 0x38
 80047de:	b103      	cbz	r3, 80047e2 <HAL_DMA_Abort_IT+0x72>
 80047e0:	4798      	blx	r3
 80047e2:	2000      	movs	r0, #0
 80047e4:	e7d2      	b.n	800478c <HAL_DMA_Abort_IT+0x1c>
	...

080047e8 <HAL_FDCAN_Init>:
 80047e8:	b538      	push	{r3, r4, r5, lr}
 80047ea:	4604      	mov	r4, r0
 80047ec:	2800      	cmp	r0, #0
 80047ee:	f000 80ce 	beq.w	800498e <HAL_FDCAN_Init+0x1a6>
 80047f2:	f890 305c 	ldrb.w	r3, [r0, #92]	@ 0x5c
 80047f6:	f003 02ff 	and.w	r2, r3, #255	@ 0xff
 80047fa:	b91b      	cbnz	r3, 8004804 <HAL_FDCAN_Init+0x1c>
 80047fc:	f880 205d 	strb.w	r2, [r0, #93]	@ 0x5d
 8004800:	f7ff f9a0 	bl	8003b44 <HAL_FDCAN_MspInit>
 8004804:	6822      	ldr	r2, [r4, #0]
 8004806:	6993      	ldr	r3, [r2, #24]
 8004808:	f023 0310 	bic.w	r3, r3, #16
 800480c:	6193      	str	r3, [r2, #24]
 800480e:	f7ff fef9 	bl	8004604 <HAL_GetTick>
 8004812:	4605      	mov	r5, r0
 8004814:	6823      	ldr	r3, [r4, #0]
 8004816:	699a      	ldr	r2, [r3, #24]
 8004818:	0711      	lsls	r1, r2, #28
 800481a:	f100 80ab 	bmi.w	8004974 <HAL_FDCAN_Init+0x18c>
 800481e:	699a      	ldr	r2, [r3, #24]
 8004820:	f042 0201 	orr.w	r2, r2, #1
 8004824:	619a      	str	r2, [r3, #24]
 8004826:	f7ff feed 	bl	8004604 <HAL_GetTick>
 800482a:	4605      	mov	r5, r0
 800482c:	6823      	ldr	r3, [r4, #0]
 800482e:	699a      	ldr	r2, [r3, #24]
 8004830:	07d2      	lsls	r2, r2, #31
 8004832:	f140 80ae 	bpl.w	8004992 <HAL_FDCAN_Init+0x1aa>
 8004836:	699a      	ldr	r2, [r3, #24]
 8004838:	f042 0202 	orr.w	r2, r2, #2
 800483c:	619a      	str	r2, [r3, #24]
 800483e:	4a63      	ldr	r2, [pc, #396]	@ (80049cc <HAL_FDCAN_Init+0x1e4>)
 8004840:	4293      	cmp	r3, r2
 8004842:	bf04      	itt	eq
 8004844:	6861      	ldreq	r1, [r4, #4]
 8004846:	f8c2 1100 	streq.w	r1, [r2, #256]	@ 0x100
 800484a:	7c22      	ldrb	r2, [r4, #16]
 800484c:	2a01      	cmp	r2, #1
 800484e:	699a      	ldr	r2, [r3, #24]
 8004850:	bf0c      	ite	eq
 8004852:	f022 0240 	biceq.w	r2, r2, #64	@ 0x40
 8004856:	f042 0240 	orrne.w	r2, r2, #64	@ 0x40
 800485a:	619a      	str	r2, [r3, #24]
 800485c:	7c62      	ldrb	r2, [r4, #17]
 800485e:	2a01      	cmp	r2, #1
 8004860:	699a      	ldr	r2, [r3, #24]
 8004862:	bf0c      	ite	eq
 8004864:	f442 4280 	orreq.w	r2, r2, #16384	@ 0x4000
 8004868:	f422 4280 	bicne.w	r2, r2, #16384	@ 0x4000
 800486c:	619a      	str	r2, [r3, #24]
 800486e:	7ca2      	ldrb	r2, [r4, #18]
 8004870:	2a01      	cmp	r2, #1
 8004872:	699a      	ldr	r2, [r3, #24]
 8004874:	bf0c      	ite	eq
 8004876:	f422 5280 	biceq.w	r2, r2, #4096	@ 0x1000
 800487a:	f442 5280 	orrne.w	r2, r2, #4096	@ 0x1000
 800487e:	619a      	str	r2, [r3, #24]
 8004880:	699a      	ldr	r2, [r3, #24]
 8004882:	68a0      	ldr	r0, [r4, #8]
 8004884:	f422 7240 	bic.w	r2, r2, #768	@ 0x300
 8004888:	4302      	orrs	r2, r0
 800488a:	619a      	str	r2, [r3, #24]
 800488c:	699a      	ldr	r2, [r3, #24]
 800488e:	f022 02a4 	bic.w	r2, r2, #164	@ 0xa4
 8004892:	619a      	str	r2, [r3, #24]
 8004894:	691a      	ldr	r2, [r3, #16]
 8004896:	f022 0210 	bic.w	r2, r2, #16
 800489a:	611a      	str	r2, [r3, #16]
 800489c:	68e2      	ldr	r2, [r4, #12]
 800489e:	2a01      	cmp	r2, #1
 80048a0:	d17e      	bne.n	80049a0 <HAL_FDCAN_Init+0x1b8>
 80048a2:	699a      	ldr	r2, [r3, #24]
 80048a4:	f042 0204 	orr.w	r2, r2, #4
 80048a8:	619a      	str	r2, [r3, #24]
 80048aa:	69a2      	ldr	r2, [r4, #24]
 80048ac:	1e51      	subs	r1, r2, #1
 80048ae:	69e2      	ldr	r2, [r4, #28]
 80048b0:	3a01      	subs	r2, #1
 80048b2:	0212      	lsls	r2, r2, #8
 80048b4:	ea42 6241 	orr.w	r2, r2, r1, lsl #25
 80048b8:	6a21      	ldr	r1, [r4, #32]
 80048ba:	3901      	subs	r1, #1
 80048bc:	430a      	orrs	r2, r1
 80048be:	6961      	ldr	r1, [r4, #20]
 80048c0:	3901      	subs	r1, #1
 80048c2:	ea42 4201 	orr.w	r2, r2, r1, lsl #16
 80048c6:	f5b0 7f40 	cmp.w	r0, #768	@ 0x300
 80048ca:	61da      	str	r2, [r3, #28]
 80048cc:	d10e      	bne.n	80048ec <HAL_FDCAN_Init+0x104>
 80048ce:	6ae2      	ldr	r2, [r4, #44]	@ 0x2c
 80048d0:	1e51      	subs	r1, r2, #1
 80048d2:	6b22      	ldr	r2, [r4, #48]	@ 0x30
 80048d4:	3a01      	subs	r2, #1
 80048d6:	0112      	lsls	r2, r2, #4
 80048d8:	ea42 2201 	orr.w	r2, r2, r1, lsl #8
 80048dc:	6aa1      	ldr	r1, [r4, #40]	@ 0x28
 80048de:	3901      	subs	r1, #1
 80048e0:	430a      	orrs	r2, r1
 80048e2:	6a61      	ldr	r1, [r4, #36]	@ 0x24
 80048e4:	3901      	subs	r1, #1
 80048e6:	ea42 4201 	orr.w	r2, r2, r1, lsl #16
 80048ea:	60da      	str	r2, [r3, #12]
 80048ec:	f8d3 20c0 	ldr.w	r2, [r3, #192]	@ 0xc0
 80048f0:	6be1      	ldr	r1, [r4, #60]	@ 0x3c
 80048f2:	430a      	orrs	r2, r1
 80048f4:	f8c3 20c0 	str.w	r2, [r3, #192]	@ 0xc0
 80048f8:	4a35      	ldr	r2, [pc, #212]	@ (80049d0 <HAL_FDCAN_Init+0x1e8>)
 80048fa:	4293      	cmp	r3, r2
 80048fc:	d063      	beq.n	80049c6 <HAL_FDCAN_Init+0x1de>
 80048fe:	4935      	ldr	r1, [pc, #212]	@ (80049d4 <HAL_FDCAN_Init+0x1ec>)
 8004900:	4835      	ldr	r0, [pc, #212]	@ (80049d8 <HAL_FDCAN_Init+0x1f0>)
 8004902:	f502 5270 	add.w	r2, r2, #15360	@ 0x3c00
 8004906:	428b      	cmp	r3, r1
 8004908:	bf18      	it	ne
 800490a:	4610      	movne	r0, r2
 800490c:	f8d3 2080 	ldr.w	r2, [r3, #128]	@ 0x80
 8004910:	6b61      	ldr	r1, [r4, #52]	@ 0x34
 8004912:	6420      	str	r0, [r4, #64]	@ 0x40
 8004914:	f422 12f8 	bic.w	r2, r2, #2031616	@ 0x1f0000
 8004918:	ea42 4201 	orr.w	r2, r2, r1, lsl #16
 800491c:	f8c3 2080 	str.w	r2, [r3, #128]	@ 0x80
 8004920:	f100 0270 	add.w	r2, r0, #112	@ 0x70
 8004924:	6462      	str	r2, [r4, #68]	@ 0x44
 8004926:	f8d3 2080 	ldr.w	r2, [r3, #128]	@ 0x80
 800492a:	6ba1      	ldr	r1, [r4, #56]	@ 0x38
 800492c:	f022 6270 	bic.w	r2, r2, #251658240	@ 0xf000000
 8004930:	ea42 6201 	orr.w	r2, r2, r1, lsl #24
 8004934:	f8c3 2080 	str.w	r2, [r3, #128]	@ 0x80
 8004938:	f100 03b0 	add.w	r3, r0, #176	@ 0xb0
 800493c:	64a3      	str	r3, [r4, #72]	@ 0x48
 800493e:	f500 73c4 	add.w	r3, r0, #392	@ 0x188
 8004942:	64e3      	str	r3, [r4, #76]	@ 0x4c
 8004944:	f500 7318 	add.w	r3, r0, #608	@ 0x260
 8004948:	6523      	str	r3, [r4, #80]	@ 0x50
 800494a:	f500 731e 	add.w	r3, r0, #632	@ 0x278
 800494e:	6563      	str	r3, [r4, #84]	@ 0x54
 8004950:	f500 7254 	add.w	r2, r0, #848	@ 0x350
 8004954:	1d03      	adds	r3, r0, #4
 8004956:	429a      	cmp	r2, r3
 8004958:	bf94      	ite	ls
 800495a:	2201      	movls	r2, #1
 800495c:	22d4      	movhi	r2, #212	@ 0xd4
 800495e:	0092      	lsls	r2, r2, #2
 8004960:	2100      	movs	r1, #0
 8004962:	f003 f953 	bl	8007c0c <memset>
 8004966:	2000      	movs	r0, #0
 8004968:	2301      	movs	r3, #1
 800496a:	6620      	str	r0, [r4, #96]	@ 0x60
 800496c:	65a0      	str	r0, [r4, #88]	@ 0x58
 800496e:	f884 305c 	strb.w	r3, [r4, #92]	@ 0x5c
 8004972:	e00d      	b.n	8004990 <HAL_FDCAN_Init+0x1a8>
 8004974:	f7ff fe46 	bl	8004604 <HAL_GetTick>
 8004978:	1b40      	subs	r0, r0, r5
 800497a:	280a      	cmp	r0, #10
 800497c:	f67f af4a 	bls.w	8004814 <HAL_FDCAN_Init+0x2c>
 8004980:	6e23      	ldr	r3, [r4, #96]	@ 0x60
 8004982:	f043 0301 	orr.w	r3, r3, #1
 8004986:	6623      	str	r3, [r4, #96]	@ 0x60
 8004988:	2303      	movs	r3, #3
 800498a:	f884 305c 	strb.w	r3, [r4, #92]	@ 0x5c
 800498e:	2001      	movs	r0, #1
 8004990:	bd38      	pop	{r3, r4, r5, pc}
 8004992:	f7ff fe37 	bl	8004604 <HAL_GetTick>
 8004996:	1b40      	subs	r0, r0, r5
 8004998:	280a      	cmp	r0, #10
 800499a:	f67f af47 	bls.w	800482c <HAL_FDCAN_Init+0x44>
 800499e:	e7ef      	b.n	8004980 <HAL_FDCAN_Init+0x198>
 80049a0:	2a00      	cmp	r2, #0
 80049a2:	d082      	beq.n	80048aa <HAL_FDCAN_Init+0xc2>
 80049a4:	2a02      	cmp	r2, #2
 80049a6:	d00a      	beq.n	80049be <HAL_FDCAN_Init+0x1d6>
 80049a8:	6999      	ldr	r1, [r3, #24]
 80049aa:	f041 0180 	orr.w	r1, r1, #128	@ 0x80
 80049ae:	6199      	str	r1, [r3, #24]
 80049b0:	6919      	ldr	r1, [r3, #16]
 80049b2:	2a03      	cmp	r2, #3
 80049b4:	f041 0110 	orr.w	r1, r1, #16
 80049b8:	6119      	str	r1, [r3, #16]
 80049ba:	f47f af76 	bne.w	80048aa <HAL_FDCAN_Init+0xc2>
 80049be:	699a      	ldr	r2, [r3, #24]
 80049c0:	f042 0220 	orr.w	r2, r2, #32
 80049c4:	e770      	b.n	80048a8 <HAL_FDCAN_Init+0xc0>
 80049c6:	4805      	ldr	r0, [pc, #20]	@ (80049dc <HAL_FDCAN_Init+0x1f4>)
 80049c8:	e7a0      	b.n	800490c <HAL_FDCAN_Init+0x124>
 80049ca:	bf00      	nop
 80049cc:	40006400 	.word	0x40006400
 80049d0:	40006800 	.word	0x40006800
 80049d4:	40006c00 	.word	0x40006c00
 80049d8:	4000aaa0 	.word	0x4000aaa0
 80049dc:	4000a750 	.word	0x4000a750

080049e0 <HAL_FDCAN_Start>:
 80049e0:	f890 305c 	ldrb.w	r3, [r0, #92]	@ 0x5c
 80049e4:	2b01      	cmp	r3, #1
 80049e6:	d10b      	bne.n	8004a00 <HAL_FDCAN_Start+0x20>
 80049e8:	6802      	ldr	r2, [r0, #0]
 80049ea:	2302      	movs	r3, #2
 80049ec:	f880 305c 	strb.w	r3, [r0, #92]	@ 0x5c
 80049f0:	6993      	ldr	r3, [r2, #24]
 80049f2:	f023 0301 	bic.w	r3, r3, #1
 80049f6:	6193      	str	r3, [r2, #24]
 80049f8:	2300      	movs	r3, #0
 80049fa:	6603      	str	r3, [r0, #96]	@ 0x60
 80049fc:	4618      	mov	r0, r3
 80049fe:	4770      	bx	lr
 8004a00:	6e03      	ldr	r3, [r0, #96]	@ 0x60
 8004a02:	f043 0304 	orr.w	r3, r3, #4
 8004a06:	6603      	str	r3, [r0, #96]	@ 0x60
 8004a08:	2001      	movs	r0, #1
 8004a0a:	4770      	bx	lr

08004a0c <HAL_FDCAN_AddMessageToTxFifoQ>:
 8004a0c:	e92d 43f0 	stmdb	sp!, {r4, r5, r6, r7, r8, r9, lr}
 8004a10:	f890 305c 	ldrb.w	r3, [r0, #92]	@ 0x5c
 8004a14:	2b02      	cmp	r3, #2
 8004a16:	4691      	mov	r9, r2
 8004a18:	d156      	bne.n	8004ac8 <HAL_FDCAN_AddMessageToTxFifoQ+0xbc>
 8004a1a:	f8d0 c000 	ldr.w	ip, [r0]
 8004a1e:	f8dc 50c4 	ldr.w	r5, [ip, #196]	@ 0xc4
 8004a22:	f415 1500 	ands.w	r5, r5, #2097152	@ 0x200000
 8004a26:	d005      	beq.n	8004a34 <HAL_FDCAN_AddMessageToTxFifoQ+0x28>
 8004a28:	6e03      	ldr	r3, [r0, #96]	@ 0x60
 8004a2a:	f443 7300 	orr.w	r3, r3, #512	@ 0x200
 8004a2e:	6603      	str	r3, [r0, #96]	@ 0x60
 8004a30:	2001      	movs	r0, #1
 8004a32:	e030      	b.n	8004a96 <HAL_FDCAN_AddMessageToTxFifoQ+0x8a>
 8004a34:	e9d1 4200 	ldrd	r4, r2, [r1]
 8004a38:	f8dc 60c4 	ldr.w	r6, [ip, #196]	@ 0xc4
 8004a3c:	690b      	ldr	r3, [r1, #16]
 8004a3e:	688f      	ldr	r7, [r1, #8]
 8004a40:	f3c6 4601 	ubfx	r6, r6, #16, #2
 8004a44:	bb4a      	cbnz	r2, 8004a9a <HAL_FDCAN_AddMessageToTxFifoQ+0x8e>
 8004a46:	433b      	orrs	r3, r7
 8004a48:	ea43 4384 	orr.w	r3, r3, r4, lsl #18
 8004a4c:	e9d1 7406 	ldrd	r7, r4, [r1, #24]
 8004a50:	433c      	orrs	r4, r7
 8004a52:	694f      	ldr	r7, [r1, #20]
 8004a54:	f8d0 8054 	ldr.w	r8, [r0, #84]	@ 0x54
 8004a58:	433c      	orrs	r4, r7
 8004a5a:	6a0f      	ldr	r7, [r1, #32]
 8004a5c:	ea44 6407 	orr.w	r4, r4, r7, lsl #24
 8004a60:	68cf      	ldr	r7, [r1, #12]
 8004a62:	ea44 4407 	orr.w	r4, r4, r7, lsl #16
 8004a66:	2748      	movs	r7, #72	@ 0x48
 8004a68:	4377      	muls	r7, r6
 8004a6a:	eb07 0e08 	add.w	lr, r7, r8
 8004a6e:	f847 3008 	str.w	r3, [r7, r8]
 8004a72:	f8ce 4004 	str.w	r4, [lr, #4]
 8004a76:	4c16      	ldr	r4, [pc, #88]	@ (8004ad0 <HAL_FDCAN_AddMessageToTxFifoQ+0xc4>)
 8004a78:	464a      	mov	r2, r9
 8004a7a:	f10e 0e08 	add.w	lr, lr, #8
 8004a7e:	68cb      	ldr	r3, [r1, #12]
 8004a80:	5ce3      	ldrb	r3, [r4, r3]
 8004a82:	429d      	cmp	r5, r3
 8004a84:	f102 0204 	add.w	r2, r2, #4
 8004a88:	d30c      	bcc.n	8004aa4 <HAL_FDCAN_AddMessageToTxFifoQ+0x98>
 8004a8a:	2301      	movs	r3, #1
 8004a8c:	40b3      	lsls	r3, r6
 8004a8e:	f8cc 30cc 	str.w	r3, [ip, #204]	@ 0xcc
 8004a92:	6583      	str	r3, [r0, #88]	@ 0x58
 8004a94:	2000      	movs	r0, #0
 8004a96:	e8bd 83f0 	ldmia.w	sp!, {r4, r5, r6, r7, r8, r9, pc}
 8004a9a:	4323      	orrs	r3, r4
 8004a9c:	433b      	orrs	r3, r7
 8004a9e:	f043 4380 	orr.w	r3, r3, #1073741824	@ 0x40000000
 8004aa2:	e7d3      	b.n	8004a4c <HAL_FDCAN_AddMessageToTxFifoQ+0x40>
 8004aa4:	f812 3c02 	ldrb.w	r3, [r2, #-2]
 8004aa8:	f812 7c01 	ldrb.w	r7, [r2, #-1]
 8004aac:	041b      	lsls	r3, r3, #16
 8004aae:	ea43 6307 	orr.w	r3, r3, r7, lsl #24
 8004ab2:	f812 7c04 	ldrb.w	r7, [r2, #-4]
 8004ab6:	433b      	orrs	r3, r7
 8004ab8:	f812 7c03 	ldrb.w	r7, [r2, #-3]
 8004abc:	ea43 2307 	orr.w	r3, r3, r7, lsl #8
 8004ac0:	f84e 3005 	str.w	r3, [lr, r5]
 8004ac4:	3504      	adds	r5, #4
 8004ac6:	e7da      	b.n	8004a7e <HAL_FDCAN_AddMessageToTxFifoQ+0x72>
 8004ac8:	6e03      	ldr	r3, [r0, #96]	@ 0x60
 8004aca:	f043 0308 	orr.w	r3, r3, #8
 8004ace:	e7ae      	b.n	8004a2e <HAL_FDCAN_AddMessageToTxFifoQ+0x22>
 8004ad0:	0800a5cc 	.word	0x0800a5cc

08004ad4 <HAL_GPIO_Init>:
 8004ad4:	e92d 4ff7 	stmdb	sp!, {r0, r1, r2, r4, r5, r6, r7, r8, r9, sl, fp, lr}
 8004ad8:	f8df 9190 	ldr.w	r9, [pc, #400]	@ 8004c6c <HAL_GPIO_Init+0x198>
 8004adc:	4c61      	ldr	r4, [pc, #388]	@ (8004c64 <HAL_GPIO_Init+0x190>)
 8004ade:	2300      	movs	r3, #0
 8004ae0:	680a      	ldr	r2, [r1, #0]
 8004ae2:	fa32 f503 	lsrs.w	r5, r2, r3
 8004ae6:	d102      	bne.n	8004aee <HAL_GPIO_Init+0x1a>
 8004ae8:	b003      	add	sp, #12
 8004aea:	e8bd 8ff0 	ldmia.w	sp!, {r4, r5, r6, r7, r8, r9, sl, fp, pc}
 8004aee:	2501      	movs	r5, #1
 8004af0:	fa05 fa03 	lsl.w	sl, r5, r3
 8004af4:	ea1a 0202 	ands.w	r2, sl, r2
 8004af8:	f000 80a8 	beq.w	8004c4c <HAL_GPIO_Init+0x178>
 8004afc:	684e      	ldr	r6, [r1, #4]
 8004afe:	f8d1 c008 	ldr.w	ip, [r1, #8]
 8004b02:	2703      	movs	r7, #3
 8004b04:	f006 0503 	and.w	r5, r6, #3
 8004b08:	ea4f 0843 	mov.w	r8, r3, lsl #1
 8004b0c:	fa07 fe08 	lsl.w	lr, r7, r8
 8004b10:	1e6f      	subs	r7, r5, #1
 8004b12:	2f01      	cmp	r7, #1
 8004b14:	ea6f 0e0e 	mvn.w	lr, lr
 8004b18:	d833      	bhi.n	8004b82 <HAL_GPIO_Init+0xae>
 8004b1a:	6887      	ldr	r7, [r0, #8]
 8004b1c:	ea07 0b0e 	and.w	fp, r7, lr
 8004b20:	68cf      	ldr	r7, [r1, #12]
 8004b22:	fa07 f708 	lsl.w	r7, r7, r8
 8004b26:	ea47 070b 	orr.w	r7, r7, fp
 8004b2a:	6087      	str	r7, [r0, #8]
 8004b2c:	6847      	ldr	r7, [r0, #4]
 8004b2e:	ea27 0a0a 	bic.w	sl, r7, sl
 8004b32:	f3c6 1700 	ubfx	r7, r6, #4, #1
 8004b36:	409f      	lsls	r7, r3
 8004b38:	ea47 070a 	orr.w	r7, r7, sl
 8004b3c:	6047      	str	r7, [r0, #4]
 8004b3e:	68c7      	ldr	r7, [r0, #12]
 8004b40:	fa0c fc08 	lsl.w	ip, ip, r8
 8004b44:	ea07 070e 	and.w	r7, r7, lr
 8004b48:	ea4c 0707 	orr.w	r7, ip, r7
 8004b4c:	2d02      	cmp	r5, #2
 8004b4e:	60c7      	str	r7, [r0, #12]
 8004b50:	d11c      	bne.n	8004b8c <HAL_GPIO_Init+0xb8>
 8004b52:	ea4f 0cd3 	mov.w	ip, r3, lsr #3
 8004b56:	eb00 0c8c 	add.w	ip, r0, ip, lsl #2
 8004b5a:	f003 0a07 	and.w	sl, r3, #7
 8004b5e:	f8dc 7020 	ldr.w	r7, [ip, #32]
 8004b62:	ea4f 0a8a 	mov.w	sl, sl, lsl #2
 8004b66:	f04f 0b0f 	mov.w	fp, #15
 8004b6a:	fa0b fb0a 	lsl.w	fp, fp, sl
 8004b6e:	ea27 0b0b 	bic.w	fp, r7, fp
 8004b72:	690f      	ldr	r7, [r1, #16]
 8004b74:	fa07 f70a 	lsl.w	r7, r7, sl
 8004b78:	ea47 070b 	orr.w	r7, r7, fp
 8004b7c:	f8cc 7020 	str.w	r7, [ip, #32]
 8004b80:	e004      	b.n	8004b8c <HAL_GPIO_Init+0xb8>
 8004b82:	2d03      	cmp	r5, #3
 8004b84:	d1db      	bne.n	8004b3e <HAL_GPIO_Init+0x6a>
 8004b86:	f1bc 0f01 	cmp.w	ip, #1
 8004b8a:	d1d8      	bne.n	8004b3e <HAL_GPIO_Init+0x6a>
 8004b8c:	6807      	ldr	r7, [r0, #0]
 8004b8e:	fa05 f508 	lsl.w	r5, r5, r8
 8004b92:	ea07 070e 	and.w	r7, r7, lr
 8004b96:	433d      	orrs	r5, r7
 8004b98:	f416 3f40 	tst.w	r6, #196608	@ 0x30000
 8004b9c:	6005      	str	r5, [r0, #0]
 8004b9e:	d055      	beq.n	8004c4c <HAL_GPIO_Init+0x178>
 8004ba0:	f8d9 5060 	ldr.w	r5, [r9, #96]	@ 0x60
 8004ba4:	f045 0501 	orr.w	r5, r5, #1
 8004ba8:	f8c9 5060 	str.w	r5, [r9, #96]	@ 0x60
 8004bac:	f8d9 5060 	ldr.w	r5, [r9, #96]	@ 0x60
 8004bb0:	f023 0703 	bic.w	r7, r3, #3
 8004bb4:	f107 4780 	add.w	r7, r7, #1073741824	@ 0x40000000
 8004bb8:	f005 0501 	and.w	r5, r5, #1
 8004bbc:	f507 3780 	add.w	r7, r7, #65536	@ 0x10000
 8004bc0:	9501      	str	r5, [sp, #4]
 8004bc2:	f003 0c03 	and.w	ip, r3, #3
 8004bc6:	9d01      	ldr	r5, [sp, #4]
 8004bc8:	68bd      	ldr	r5, [r7, #8]
 8004bca:	ea4f 0c8c 	mov.w	ip, ip, lsl #2
 8004bce:	f04f 0e0f 	mov.w	lr, #15
 8004bd2:	fa0e fe0c 	lsl.w	lr, lr, ip
 8004bd6:	f1b0 4f90 	cmp.w	r0, #1207959552	@ 0x48000000
 8004bda:	ea25 0e0e 	bic.w	lr, r5, lr
 8004bde:	d037      	beq.n	8004c50 <HAL_GPIO_Init+0x17c>
 8004be0:	4d21      	ldr	r5, [pc, #132]	@ (8004c68 <HAL_GPIO_Init+0x194>)
 8004be2:	42a8      	cmp	r0, r5
 8004be4:	d036      	beq.n	8004c54 <HAL_GPIO_Init+0x180>
 8004be6:	f505 6580 	add.w	r5, r5, #1024	@ 0x400
 8004bea:	42a8      	cmp	r0, r5
 8004bec:	d034      	beq.n	8004c58 <HAL_GPIO_Init+0x184>
 8004bee:	f505 6580 	add.w	r5, r5, #1024	@ 0x400
 8004bf2:	42a8      	cmp	r0, r5
 8004bf4:	d032      	beq.n	8004c5c <HAL_GPIO_Init+0x188>
 8004bf6:	f505 6580 	add.w	r5, r5, #1024	@ 0x400
 8004bfa:	42a8      	cmp	r0, r5
 8004bfc:	d030      	beq.n	8004c60 <HAL_GPIO_Init+0x18c>
 8004bfe:	f505 6580 	add.w	r5, r5, #1024	@ 0x400
 8004c02:	42a8      	cmp	r0, r5
 8004c04:	bf14      	ite	ne
 8004c06:	2506      	movne	r5, #6
 8004c08:	2505      	moveq	r5, #5
 8004c0a:	fa05 f50c 	lsl.w	r5, r5, ip
 8004c0e:	ea45 050e 	orr.w	r5, r5, lr
 8004c12:	60bd      	str	r5, [r7, #8]
 8004c14:	68a5      	ldr	r5, [r4, #8]
 8004c16:	43d7      	mvns	r7, r2
 8004c18:	f416 1f80 	tst.w	r6, #1048576	@ 0x100000
 8004c1c:	bf0c      	ite	eq
 8004c1e:	403d      	andeq	r5, r7
 8004c20:	4315      	orrne	r5, r2
 8004c22:	60a5      	str	r5, [r4, #8]
 8004c24:	68e5      	ldr	r5, [r4, #12]
 8004c26:	f416 1f00 	tst.w	r6, #2097152	@ 0x200000
 8004c2a:	bf0c      	ite	eq
 8004c2c:	403d      	andeq	r5, r7
 8004c2e:	4315      	orrne	r5, r2
 8004c30:	60e5      	str	r5, [r4, #12]
 8004c32:	6865      	ldr	r5, [r4, #4]
 8004c34:	f416 3f00 	tst.w	r6, #131072	@ 0x20000
 8004c38:	bf0c      	ite	eq
 8004c3a:	403d      	andeq	r5, r7
 8004c3c:	4315      	orrne	r5, r2
 8004c3e:	6065      	str	r5, [r4, #4]
 8004c40:	6825      	ldr	r5, [r4, #0]
 8004c42:	03f6      	lsls	r6, r6, #15
 8004c44:	bf54      	ite	pl
 8004c46:	403d      	andpl	r5, r7
 8004c48:	4315      	orrmi	r5, r2
 8004c4a:	6025      	str	r5, [r4, #0]
 8004c4c:	3301      	adds	r3, #1
 8004c4e:	e747      	b.n	8004ae0 <HAL_GPIO_Init+0xc>
 8004c50:	2500      	movs	r5, #0
 8004c52:	e7da      	b.n	8004c0a <HAL_GPIO_Init+0x136>
 8004c54:	2501      	movs	r5, #1
 8004c56:	e7d8      	b.n	8004c0a <HAL_GPIO_Init+0x136>
 8004c58:	2502      	movs	r5, #2
 8004c5a:	e7d6      	b.n	8004c0a <HAL_GPIO_Init+0x136>
 8004c5c:	2503      	movs	r5, #3
 8004c5e:	e7d4      	b.n	8004c0a <HAL_GPIO_Init+0x136>
 8004c60:	2504      	movs	r5, #4
 8004c62:	e7d2      	b.n	8004c0a <HAL_GPIO_Init+0x136>
 8004c64:	40010400 	.word	0x40010400
 8004c68:	48000400 	.word	0x48000400
 8004c6c:	40021000 	.word	0x40021000

08004c70 <HAL_GPIO_WritePin>:
 8004c70:	b10a      	cbz	r2, 8004c76 <HAL_GPIO_WritePin+0x6>
 8004c72:	6181      	str	r1, [r0, #24]
 8004c74:	4770      	bx	lr
 8004c76:	6281      	str	r1, [r0, #40]	@ 0x28
 8004c78:	4770      	bx	lr
	...

08004c7c <HAL_GPIO_EXTI_IRQHandler>:
 8004c7c:	4a04      	ldr	r2, [pc, #16]	@ (8004c90 <HAL_GPIO_EXTI_IRQHandler+0x14>)
 8004c7e:	6951      	ldr	r1, [r2, #20]
 8004c80:	4201      	tst	r1, r0
 8004c82:	b508      	push	{r3, lr}
 8004c84:	d002      	beq.n	8004c8c <HAL_GPIO_EXTI_IRQHandler+0x10>
 8004c86:	6150      	str	r0, [r2, #20]
 8004c88:	f7fc fbbe 	bl	8001408 <HAL_GPIO_EXTI_Callback>
 8004c8c:	bd08      	pop	{r3, pc}
 8004c8e:	bf00      	nop
 8004c90:	40010400 	.word	0x40010400

08004c94 <HAL_PWREx_ControlVoltageScaling>:
 8004c94:	4b28      	ldr	r3, [pc, #160]	@ (8004d38 <HAL_PWREx_ControlVoltageScaling+0xa4>)
 8004c96:	681a      	ldr	r2, [r3, #0]
 8004c98:	bb18      	cbnz	r0, 8004ce2 <HAL_PWREx_ControlVoltageScaling+0x4e>
 8004c9a:	f402 62c0 	and.w	r2, r2, #1536	@ 0x600
 8004c9e:	f5b2 6f80 	cmp.w	r2, #1024	@ 0x400
 8004ca2:	f8d3 2080 	ldr.w	r2, [r3, #128]	@ 0x80
 8004ca6:	f422 7280 	bic.w	r2, r2, #256	@ 0x100
 8004caa:	f8c3 2080 	str.w	r2, [r3, #128]	@ 0x80
 8004cae:	d140      	bne.n	8004d32 <HAL_PWREx_ControlVoltageScaling+0x9e>
 8004cb0:	681a      	ldr	r2, [r3, #0]
 8004cb2:	f422 62c0 	bic.w	r2, r2, #1536	@ 0x600
 8004cb6:	f442 7200 	orr.w	r2, r2, #512	@ 0x200
 8004cba:	601a      	str	r2, [r3, #0]
 8004cbc:	4a1f      	ldr	r2, [pc, #124]	@ (8004d3c <HAL_PWREx_ControlVoltageScaling+0xa8>)
 8004cbe:	6812      	ldr	r2, [r2, #0]
 8004cc0:	2132      	movs	r1, #50	@ 0x32
 8004cc2:	434a      	muls	r2, r1
 8004cc4:	491e      	ldr	r1, [pc, #120]	@ (8004d40 <HAL_PWREx_ControlVoltageScaling+0xac>)
 8004cc6:	fbb2 f2f1 	udiv	r2, r2, r1
 8004cca:	3201      	adds	r2, #1
 8004ccc:	6959      	ldr	r1, [r3, #20]
 8004cce:	0549      	lsls	r1, r1, #21
 8004cd0:	d500      	bpl.n	8004cd4 <HAL_PWREx_ControlVoltageScaling+0x40>
 8004cd2:	b922      	cbnz	r2, 8004cde <HAL_PWREx_ControlVoltageScaling+0x4a>
 8004cd4:	695b      	ldr	r3, [r3, #20]
 8004cd6:	0558      	lsls	r0, r3, #21
 8004cd8:	d52b      	bpl.n	8004d32 <HAL_PWREx_ControlVoltageScaling+0x9e>
 8004cda:	2003      	movs	r0, #3
 8004cdc:	4770      	bx	lr
 8004cde:	3a01      	subs	r2, #1
 8004ce0:	e7f4      	b.n	8004ccc <HAL_PWREx_ControlVoltageScaling+0x38>
 8004ce2:	f5b0 7f00 	cmp.w	r0, #512	@ 0x200
 8004ce6:	d11f      	bne.n	8004d28 <HAL_PWREx_ControlVoltageScaling+0x94>
 8004ce8:	f402 62c0 	and.w	r2, r2, #1536	@ 0x600
 8004cec:	f5b2 6f80 	cmp.w	r2, #1024	@ 0x400
 8004cf0:	f8d3 2080 	ldr.w	r2, [r3, #128]	@ 0x80
 8004cf4:	f442 7280 	orr.w	r2, r2, #256	@ 0x100
 8004cf8:	f8c3 2080 	str.w	r2, [r3, #128]	@ 0x80
 8004cfc:	d119      	bne.n	8004d32 <HAL_PWREx_ControlVoltageScaling+0x9e>
 8004cfe:	681a      	ldr	r2, [r3, #0]
 8004d00:	f422 62c0 	bic.w	r2, r2, #1536	@ 0x600
 8004d04:	f442 7200 	orr.w	r2, r2, #512	@ 0x200
 8004d08:	601a      	str	r2, [r3, #0]
 8004d0a:	4a0c      	ldr	r2, [pc, #48]	@ (8004d3c <HAL_PWREx_ControlVoltageScaling+0xa8>)
 8004d0c:	6812      	ldr	r2, [r2, #0]
 8004d0e:	2132      	movs	r1, #50	@ 0x32
 8004d10:	434a      	muls	r2, r1
 8004d12:	490b      	ldr	r1, [pc, #44]	@ (8004d40 <HAL_PWREx_ControlVoltageScaling+0xac>)
 8004d14:	fbb2 f2f1 	udiv	r2, r2, r1
 8004d18:	3201      	adds	r2, #1
 8004d1a:	6959      	ldr	r1, [r3, #20]
 8004d1c:	0549      	lsls	r1, r1, #21
 8004d1e:	d5d9      	bpl.n	8004cd4 <HAL_PWREx_ControlVoltageScaling+0x40>
 8004d20:	2a00      	cmp	r2, #0
 8004d22:	d0d7      	beq.n	8004cd4 <HAL_PWREx_ControlVoltageScaling+0x40>
 8004d24:	3a01      	subs	r2, #1
 8004d26:	e7f8      	b.n	8004d1a <HAL_PWREx_ControlVoltageScaling+0x86>
 8004d28:	f422 62c0 	bic.w	r2, r2, #1536	@ 0x600
 8004d2c:	f442 6280 	orr.w	r2, r2, #1024	@ 0x400
 8004d30:	601a      	str	r2, [r3, #0]
 8004d32:	2000      	movs	r0, #0
 8004d34:	4770      	bx	lr
 8004d36:	bf00      	nop
 8004d38:	40007000 	.word	0x40007000
 8004d3c:	2000000c 	.word	0x2000000c
 8004d40:	000f4240 	.word	0x000f4240

08004d44 <HAL_PWREx_DisableUCPDDeadBattery>:
 8004d44:	4a02      	ldr	r2, [pc, #8]	@ (8004d50 <HAL_PWREx_DisableUCPDDeadBattery+0xc>)
 8004d46:	6893      	ldr	r3, [r2, #8]
 8004d48:	f443 4380 	orr.w	r3, r3, #16384	@ 0x4000
 8004d4c:	6093      	str	r3, [r2, #8]
 8004d4e:	4770      	bx	lr
 8004d50:	40007000 	.word	0x40007000

08004d54 <HAL_RCC_OscConfig>:
 8004d54:	e92d 41f3 	stmdb	sp!, {r0, r1, r4, r5, r6, r7, r8, lr}
 8004d58:	4604      	mov	r4, r0
 8004d5a:	b918      	cbnz	r0, 8004d64 <HAL_RCC_OscConfig+0x10>
 8004d5c:	2001      	movs	r0, #1
 8004d5e:	b002      	add	sp, #8
 8004d60:	e8bd 81f0 	ldmia.w	sp!, {r4, r5, r6, r7, r8, pc}
 8004d64:	6803      	ldr	r3, [r0, #0]
 8004d66:	07d9      	lsls	r1, r3, #31
 8004d68:	d414      	bmi.n	8004d94 <HAL_RCC_OscConfig+0x40>
 8004d6a:	6823      	ldr	r3, [r4, #0]
 8004d6c:	079a      	lsls	r2, r3, #30
 8004d6e:	d458      	bmi.n	8004e22 <HAL_RCC_OscConfig+0xce>
 8004d70:	6823      	ldr	r3, [r4, #0]
 8004d72:	0719      	lsls	r1, r3, #28
 8004d74:	f100 80a1 	bmi.w	8004eba <HAL_RCC_OscConfig+0x166>
 8004d78:	6823      	ldr	r3, [r4, #0]
 8004d7a:	075a      	lsls	r2, r3, #29
 8004d7c:	f100 80c8 	bmi.w	8004f10 <HAL_RCC_OscConfig+0x1bc>
 8004d80:	6823      	ldr	r3, [r4, #0]
 8004d82:	069a      	lsls	r2, r3, #26
 8004d84:	f100 812f 	bmi.w	8004fe6 <HAL_RCC_OscConfig+0x292>
 8004d88:	69e3      	ldr	r3, [r4, #28]
 8004d8a:	2b00      	cmp	r3, #0
 8004d8c:	f040 815c 	bne.w	8005048 <HAL_RCC_OscConfig+0x2f4>
 8004d90:	2000      	movs	r0, #0
 8004d92:	e7e4      	b.n	8004d5e <HAL_RCC_OscConfig+0xa>
 8004d94:	4d9f      	ldr	r5, [pc, #636]	@ (8005014 <HAL_RCC_OscConfig+0x2c0>)
 8004d96:	68ab      	ldr	r3, [r5, #8]
 8004d98:	68ea      	ldr	r2, [r5, #12]
 8004d9a:	f003 030c 	and.w	r3, r3, #12
 8004d9e:	2b0c      	cmp	r3, #12
 8004da0:	d10a      	bne.n	8004db8 <HAL_RCC_OscConfig+0x64>
 8004da2:	f002 0303 	and.w	r3, r2, #3
 8004da6:	2b03      	cmp	r3, #3
 8004da8:	d108      	bne.n	8004dbc <HAL_RCC_OscConfig+0x68>
 8004daa:	682b      	ldr	r3, [r5, #0]
 8004dac:	039b      	lsls	r3, r3, #14
 8004dae:	d5dc      	bpl.n	8004d6a <HAL_RCC_OscConfig+0x16>
 8004db0:	6863      	ldr	r3, [r4, #4]
 8004db2:	2b00      	cmp	r3, #0
 8004db4:	d1d9      	bne.n	8004d6a <HAL_RCC_OscConfig+0x16>
 8004db6:	e7d1      	b.n	8004d5c <HAL_RCC_OscConfig+0x8>
 8004db8:	2b08      	cmp	r3, #8
 8004dba:	e7f5      	b.n	8004da8 <HAL_RCC_OscConfig+0x54>
 8004dbc:	6863      	ldr	r3, [r4, #4]
 8004dbe:	f5b3 3f80 	cmp.w	r3, #65536	@ 0x10000
 8004dc2:	d110      	bne.n	8004de6 <HAL_RCC_OscConfig+0x92>
 8004dc4:	682b      	ldr	r3, [r5, #0]
 8004dc6:	f443 3380 	orr.w	r3, r3, #65536	@ 0x10000
 8004dca:	602b      	str	r3, [r5, #0]
 8004dcc:	f7ff fc1a 	bl	8004604 <HAL_GetTick>
 8004dd0:	4606      	mov	r6, r0
 8004dd2:	682b      	ldr	r3, [r5, #0]
 8004dd4:	039f      	lsls	r7, r3, #14
 8004dd6:	d4c8      	bmi.n	8004d6a <HAL_RCC_OscConfig+0x16>
 8004dd8:	f7ff fc14 	bl	8004604 <HAL_GetTick>
 8004ddc:	1b80      	subs	r0, r0, r6
 8004dde:	2864      	cmp	r0, #100	@ 0x64
 8004de0:	d9f7      	bls.n	8004dd2 <HAL_RCC_OscConfig+0x7e>
 8004de2:	2003      	movs	r0, #3
 8004de4:	e7bb      	b.n	8004d5e <HAL_RCC_OscConfig+0xa>
 8004de6:	f5b3 2fa0 	cmp.w	r3, #327680	@ 0x50000
 8004dea:	d104      	bne.n	8004df6 <HAL_RCC_OscConfig+0xa2>
 8004dec:	682b      	ldr	r3, [r5, #0]
 8004dee:	f443 2380 	orr.w	r3, r3, #262144	@ 0x40000
 8004df2:	602b      	str	r3, [r5, #0]
 8004df4:	e7e6      	b.n	8004dc4 <HAL_RCC_OscConfig+0x70>
 8004df6:	682a      	ldr	r2, [r5, #0]
 8004df8:	f422 3280 	bic.w	r2, r2, #65536	@ 0x10000
 8004dfc:	602a      	str	r2, [r5, #0]
 8004dfe:	682a      	ldr	r2, [r5, #0]
 8004e00:	f422 2280 	bic.w	r2, r2, #262144	@ 0x40000
 8004e04:	602a      	str	r2, [r5, #0]
 8004e06:	2b00      	cmp	r3, #0
 8004e08:	d1e0      	bne.n	8004dcc <HAL_RCC_OscConfig+0x78>
 8004e0a:	f7ff fbfb 	bl	8004604 <HAL_GetTick>
 8004e0e:	4606      	mov	r6, r0
 8004e10:	682b      	ldr	r3, [r5, #0]
 8004e12:	0399      	lsls	r1, r3, #14
 8004e14:	d5a9      	bpl.n	8004d6a <HAL_RCC_OscConfig+0x16>
 8004e16:	f7ff fbf5 	bl	8004604 <HAL_GetTick>
 8004e1a:	1b80      	subs	r0, r0, r6
 8004e1c:	2864      	cmp	r0, #100	@ 0x64
 8004e1e:	d9f7      	bls.n	8004e10 <HAL_RCC_OscConfig+0xbc>
 8004e20:	e7df      	b.n	8004de2 <HAL_RCC_OscConfig+0x8e>
 8004e22:	4d7c      	ldr	r5, [pc, #496]	@ (8005014 <HAL_RCC_OscConfig+0x2c0>)
 8004e24:	68ab      	ldr	r3, [r5, #8]
 8004e26:	68ea      	ldr	r2, [r5, #12]
 8004e28:	f003 030c 	and.w	r3, r3, #12
 8004e2c:	2b0c      	cmp	r3, #12
 8004e2e:	d117      	bne.n	8004e60 <HAL_RCC_OscConfig+0x10c>
 8004e30:	f002 0303 	and.w	r3, r2, #3
 8004e34:	2b02      	cmp	r3, #2
 8004e36:	d115      	bne.n	8004e64 <HAL_RCC_OscConfig+0x110>
 8004e38:	682b      	ldr	r3, [r5, #0]
 8004e3a:	055a      	lsls	r2, r3, #21
 8004e3c:	d502      	bpl.n	8004e44 <HAL_RCC_OscConfig+0xf0>
 8004e3e:	68e3      	ldr	r3, [r4, #12]
 8004e40:	2b00      	cmp	r3, #0
 8004e42:	d08b      	beq.n	8004d5c <HAL_RCC_OscConfig+0x8>
 8004e44:	686b      	ldr	r3, [r5, #4]
 8004e46:	6922      	ldr	r2, [r4, #16]
 8004e48:	f023 43fe 	bic.w	r3, r3, #2130706432	@ 0x7f000000
 8004e4c:	ea43 6302 	orr.w	r3, r3, r2, lsl #24
 8004e50:	606b      	str	r3, [r5, #4]
 8004e52:	4b71      	ldr	r3, [pc, #452]	@ (8005018 <HAL_RCC_OscConfig+0x2c4>)
 8004e54:	6818      	ldr	r0, [r3, #0]
 8004e56:	f7ff fb93 	bl	8004580 <HAL_InitTick>
 8004e5a:	2800      	cmp	r0, #0
 8004e5c:	d088      	beq.n	8004d70 <HAL_RCC_OscConfig+0x1c>
 8004e5e:	e77d      	b.n	8004d5c <HAL_RCC_OscConfig+0x8>
 8004e60:	2b04      	cmp	r3, #4
 8004e62:	e7e8      	b.n	8004e36 <HAL_RCC_OscConfig+0xe2>
 8004e64:	68e3      	ldr	r3, [r4, #12]
 8004e66:	b1bb      	cbz	r3, 8004e98 <HAL_RCC_OscConfig+0x144>
 8004e68:	682b      	ldr	r3, [r5, #0]
 8004e6a:	f443 7380 	orr.w	r3, r3, #256	@ 0x100
 8004e6e:	602b      	str	r3, [r5, #0]
 8004e70:	f7ff fbc8 	bl	8004604 <HAL_GetTick>
 8004e74:	4606      	mov	r6, r0
 8004e76:	682b      	ldr	r3, [r5, #0]
 8004e78:	055b      	lsls	r3, r3, #21
 8004e7a:	d507      	bpl.n	8004e8c <HAL_RCC_OscConfig+0x138>
 8004e7c:	686b      	ldr	r3, [r5, #4]
 8004e7e:	6922      	ldr	r2, [r4, #16]
 8004e80:	f023 43fe 	bic.w	r3, r3, #2130706432	@ 0x7f000000
 8004e84:	ea43 6302 	orr.w	r3, r3, r2, lsl #24
 8004e88:	606b      	str	r3, [r5, #4]
 8004e8a:	e771      	b.n	8004d70 <HAL_RCC_OscConfig+0x1c>
 8004e8c:	f7ff fbba 	bl	8004604 <HAL_GetTick>
 8004e90:	1b80      	subs	r0, r0, r6
 8004e92:	2802      	cmp	r0, #2
 8004e94:	d9ef      	bls.n	8004e76 <HAL_RCC_OscConfig+0x122>
 8004e96:	e7a4      	b.n	8004de2 <HAL_RCC_OscConfig+0x8e>
 8004e98:	682b      	ldr	r3, [r5, #0]
 8004e9a:	f423 7380 	bic.w	r3, r3, #256	@ 0x100
 8004e9e:	602b      	str	r3, [r5, #0]
 8004ea0:	f7ff fbb0 	bl	8004604 <HAL_GetTick>
 8004ea4:	4606      	mov	r6, r0
 8004ea6:	682b      	ldr	r3, [r5, #0]
 8004ea8:	055f      	lsls	r7, r3, #21
 8004eaa:	f57f af61 	bpl.w	8004d70 <HAL_RCC_OscConfig+0x1c>
 8004eae:	f7ff fba9 	bl	8004604 <HAL_GetTick>
 8004eb2:	1b80      	subs	r0, r0, r6
 8004eb4:	2802      	cmp	r0, #2
 8004eb6:	d9f6      	bls.n	8004ea6 <HAL_RCC_OscConfig+0x152>
 8004eb8:	e793      	b.n	8004de2 <HAL_RCC_OscConfig+0x8e>
 8004eba:	6963      	ldr	r3, [r4, #20]
 8004ebc:	4d55      	ldr	r5, [pc, #340]	@ (8005014 <HAL_RCC_OscConfig+0x2c0>)
 8004ebe:	b19b      	cbz	r3, 8004ee8 <HAL_RCC_OscConfig+0x194>
 8004ec0:	f8d5 3094 	ldr.w	r3, [r5, #148]	@ 0x94
 8004ec4:	f043 0301 	orr.w	r3, r3, #1
 8004ec8:	f8c5 3094 	str.w	r3, [r5, #148]	@ 0x94
 8004ecc:	f7ff fb9a 	bl	8004604 <HAL_GetTick>
 8004ed0:	4606      	mov	r6, r0
 8004ed2:	f8d5 3094 	ldr.w	r3, [r5, #148]	@ 0x94
 8004ed6:	079b      	lsls	r3, r3, #30
 8004ed8:	f53f af4e 	bmi.w	8004d78 <HAL_RCC_OscConfig+0x24>
 8004edc:	f7ff fb92 	bl	8004604 <HAL_GetTick>
 8004ee0:	1b80      	subs	r0, r0, r6
 8004ee2:	2802      	cmp	r0, #2
 8004ee4:	d9f5      	bls.n	8004ed2 <HAL_RCC_OscConfig+0x17e>
 8004ee6:	e77c      	b.n	8004de2 <HAL_RCC_OscConfig+0x8e>
 8004ee8:	f8d5 3094 	ldr.w	r3, [r5, #148]	@ 0x94
 8004eec:	f023 0301 	bic.w	r3, r3, #1
 8004ef0:	f8c5 3094 	str.w	r3, [r5, #148]	@ 0x94
 8004ef4:	f7ff fb86 	bl	8004604 <HAL_GetTick>
 8004ef8:	4606      	mov	r6, r0
 8004efa:	f8d5 3094 	ldr.w	r3, [r5, #148]	@ 0x94
 8004efe:	079f      	lsls	r7, r3, #30
 8004f00:	f57f af3a 	bpl.w	8004d78 <HAL_RCC_OscConfig+0x24>
 8004f04:	f7ff fb7e 	bl	8004604 <HAL_GetTick>
 8004f08:	1b80      	subs	r0, r0, r6
 8004f0a:	2802      	cmp	r0, #2
 8004f0c:	d9f5      	bls.n	8004efa <HAL_RCC_OscConfig+0x1a6>
 8004f0e:	e768      	b.n	8004de2 <HAL_RCC_OscConfig+0x8e>
 8004f10:	4d40      	ldr	r5, [pc, #256]	@ (8005014 <HAL_RCC_OscConfig+0x2c0>)
 8004f12:	6dab      	ldr	r3, [r5, #88]	@ 0x58
 8004f14:	00d8      	lsls	r0, r3, #3
 8004f16:	d427      	bmi.n	8004f68 <HAL_RCC_OscConfig+0x214>
 8004f18:	6dab      	ldr	r3, [r5, #88]	@ 0x58
 8004f1a:	f043 5380 	orr.w	r3, r3, #268435456	@ 0x10000000
 8004f1e:	65ab      	str	r3, [r5, #88]	@ 0x58
 8004f20:	6dab      	ldr	r3, [r5, #88]	@ 0x58
 8004f22:	f003 5380 	and.w	r3, r3, #268435456	@ 0x10000000
 8004f26:	9301      	str	r3, [sp, #4]
 8004f28:	9b01      	ldr	r3, [sp, #4]
 8004f2a:	2701      	movs	r7, #1
 8004f2c:	4e3b      	ldr	r6, [pc, #236]	@ (800501c <HAL_RCC_OscConfig+0x2c8>)
 8004f2e:	6833      	ldr	r3, [r6, #0]
 8004f30:	05d9      	lsls	r1, r3, #23
 8004f32:	d51b      	bpl.n	8004f6c <HAL_RCC_OscConfig+0x218>
 8004f34:	68a3      	ldr	r3, [r4, #8]
 8004f36:	2b01      	cmp	r3, #1
 8004f38:	d129      	bne.n	8004f8e <HAL_RCC_OscConfig+0x23a>
 8004f3a:	f8d5 3090 	ldr.w	r3, [r5, #144]	@ 0x90
 8004f3e:	f043 0301 	orr.w	r3, r3, #1
 8004f42:	f8c5 3090 	str.w	r3, [r5, #144]	@ 0x90
 8004f46:	f7ff fb5d 	bl	8004604 <HAL_GetTick>
 8004f4a:	f241 3888 	movw	r8, #5000	@ 0x1388
 8004f4e:	4606      	mov	r6, r0
 8004f50:	f8d5 3090 	ldr.w	r3, [r5, #144]	@ 0x90
 8004f54:	079b      	lsls	r3, r3, #30
 8004f56:	d540      	bpl.n	8004fda <HAL_RCC_OscConfig+0x286>
 8004f58:	2f00      	cmp	r7, #0
 8004f5a:	f43f af11 	beq.w	8004d80 <HAL_RCC_OscConfig+0x2c>
 8004f5e:	6dab      	ldr	r3, [r5, #88]	@ 0x58
 8004f60:	f023 5380 	bic.w	r3, r3, #268435456	@ 0x10000000
 8004f64:	65ab      	str	r3, [r5, #88]	@ 0x58
 8004f66:	e70b      	b.n	8004d80 <HAL_RCC_OscConfig+0x2c>
 8004f68:	2700      	movs	r7, #0
 8004f6a:	e7df      	b.n	8004f2c <HAL_RCC_OscConfig+0x1d8>
 8004f6c:	6833      	ldr	r3, [r6, #0]
 8004f6e:	f443 7380 	orr.w	r3, r3, #256	@ 0x100
 8004f72:	6033      	str	r3, [r6, #0]
 8004f74:	f7ff fb46 	bl	8004604 <HAL_GetTick>
 8004f78:	4680      	mov	r8, r0
 8004f7a:	6833      	ldr	r3, [r6, #0]
 8004f7c:	05da      	lsls	r2, r3, #23
 8004f7e:	d4d9      	bmi.n	8004f34 <HAL_RCC_OscConfig+0x1e0>
 8004f80:	f7ff fb40 	bl	8004604 <HAL_GetTick>
 8004f84:	eba0 0008 	sub.w	r0, r0, r8
 8004f88:	2802      	cmp	r0, #2
 8004f8a:	d9f6      	bls.n	8004f7a <HAL_RCC_OscConfig+0x226>
 8004f8c:	e729      	b.n	8004de2 <HAL_RCC_OscConfig+0x8e>
 8004f8e:	2b05      	cmp	r3, #5
 8004f90:	d106      	bne.n	8004fa0 <HAL_RCC_OscConfig+0x24c>
 8004f92:	f8d5 3090 	ldr.w	r3, [r5, #144]	@ 0x90
 8004f96:	f043 0304 	orr.w	r3, r3, #4
 8004f9a:	f8c5 3090 	str.w	r3, [r5, #144]	@ 0x90
 8004f9e:	e7cc      	b.n	8004f3a <HAL_RCC_OscConfig+0x1e6>
 8004fa0:	f8d5 2090 	ldr.w	r2, [r5, #144]	@ 0x90
 8004fa4:	f022 0201 	bic.w	r2, r2, #1
 8004fa8:	f8c5 2090 	str.w	r2, [r5, #144]	@ 0x90
 8004fac:	f8d5 2090 	ldr.w	r2, [r5, #144]	@ 0x90
 8004fb0:	f022 0204 	bic.w	r2, r2, #4
 8004fb4:	f8c5 2090 	str.w	r2, [r5, #144]	@ 0x90
 8004fb8:	2b00      	cmp	r3, #0
 8004fba:	d1c4      	bne.n	8004f46 <HAL_RCC_OscConfig+0x1f2>
 8004fbc:	f7ff fb22 	bl	8004604 <HAL_GetTick>
 8004fc0:	f241 3888 	movw	r8, #5000	@ 0x1388
 8004fc4:	4606      	mov	r6, r0
 8004fc6:	f8d5 3090 	ldr.w	r3, [r5, #144]	@ 0x90
 8004fca:	0799      	lsls	r1, r3, #30
 8004fcc:	d5c4      	bpl.n	8004f58 <HAL_RCC_OscConfig+0x204>
 8004fce:	f7ff fb19 	bl	8004604 <HAL_GetTick>
 8004fd2:	1b80      	subs	r0, r0, r6
 8004fd4:	4540      	cmp	r0, r8
 8004fd6:	d9f6      	bls.n	8004fc6 <HAL_RCC_OscConfig+0x272>
 8004fd8:	e703      	b.n	8004de2 <HAL_RCC_OscConfig+0x8e>
 8004fda:	f7ff fb13 	bl	8004604 <HAL_GetTick>
 8004fde:	1b80      	subs	r0, r0, r6
 8004fe0:	4540      	cmp	r0, r8
 8004fe2:	d9b5      	bls.n	8004f50 <HAL_RCC_OscConfig+0x1fc>
 8004fe4:	e6fd      	b.n	8004de2 <HAL_RCC_OscConfig+0x8e>
 8004fe6:	69a3      	ldr	r3, [r4, #24]
 8004fe8:	4d0a      	ldr	r5, [pc, #40]	@ (8005014 <HAL_RCC_OscConfig+0x2c0>)
 8004fea:	b1cb      	cbz	r3, 8005020 <HAL_RCC_OscConfig+0x2cc>
 8004fec:	f8d5 3098 	ldr.w	r3, [r5, #152]	@ 0x98
 8004ff0:	f043 0301 	orr.w	r3, r3, #1
 8004ff4:	f8c5 3098 	str.w	r3, [r5, #152]	@ 0x98
 8004ff8:	f7ff fb04 	bl	8004604 <HAL_GetTick>
 8004ffc:	4606      	mov	r6, r0
 8004ffe:	f8d5 3098 	ldr.w	r3, [r5, #152]	@ 0x98
 8005002:	079b      	lsls	r3, r3, #30
 8005004:	f53f aec0 	bmi.w	8004d88 <HAL_RCC_OscConfig+0x34>
 8005008:	f7ff fafc 	bl	8004604 <HAL_GetTick>
 800500c:	1b80      	subs	r0, r0, r6
 800500e:	2802      	cmp	r0, #2
 8005010:	d9f5      	bls.n	8004ffe <HAL_RCC_OscConfig+0x2aa>
 8005012:	e6e6      	b.n	8004de2 <HAL_RCC_OscConfig+0x8e>
 8005014:	40021000 	.word	0x40021000
 8005018:	20000014 	.word	0x20000014
 800501c:	40007000 	.word	0x40007000
 8005020:	f8d5 3098 	ldr.w	r3, [r5, #152]	@ 0x98
 8005024:	f023 0301 	bic.w	r3, r3, #1
 8005028:	f8c5 3098 	str.w	r3, [r5, #152]	@ 0x98
 800502c:	f7ff faea 	bl	8004604 <HAL_GetTick>
 8005030:	4606      	mov	r6, r0
 8005032:	f8d5 3098 	ldr.w	r3, [r5, #152]	@ 0x98
 8005036:	079f      	lsls	r7, r3, #30
 8005038:	f57f aea6 	bpl.w	8004d88 <HAL_RCC_OscConfig+0x34>
 800503c:	f7ff fae2 	bl	8004604 <HAL_GetTick>
 8005040:	1b80      	subs	r0, r0, r6
 8005042:	2802      	cmp	r0, #2
 8005044:	d9f5      	bls.n	8005032 <HAL_RCC_OscConfig+0x2de>
 8005046:	e6cc      	b.n	8004de2 <HAL_RCC_OscConfig+0x8e>
 8005048:	4d45      	ldr	r5, [pc, #276]	@ (8005160 <HAL_RCC_OscConfig+0x40c>)
 800504a:	68aa      	ldr	r2, [r5, #8]
 800504c:	f002 020c 	and.w	r2, r2, #12
 8005050:	2a0c      	cmp	r2, #12
 8005052:	d051      	beq.n	80050f8 <HAL_RCC_OscConfig+0x3a4>
 8005054:	2b02      	cmp	r3, #2
 8005056:	682b      	ldr	r3, [r5, #0]
 8005058:	f023 7380 	bic.w	r3, r3, #16777216	@ 0x1000000
 800505c:	602b      	str	r3, [r5, #0]
 800505e:	d13a      	bne.n	80050d6 <HAL_RCC_OscConfig+0x382>
 8005060:	f7ff fad0 	bl	8004604 <HAL_GetTick>
 8005064:	4606      	mov	r6, r0
 8005066:	682b      	ldr	r3, [r5, #0]
 8005068:	0199      	lsls	r1, r3, #6
 800506a:	d42e      	bmi.n	80050ca <HAL_RCC_OscConfig+0x376>
 800506c:	68ea      	ldr	r2, [r5, #12]
 800506e:	4b3d      	ldr	r3, [pc, #244]	@ (8005164 <HAL_RCC_OscConfig+0x410>)
 8005070:	4013      	ands	r3, r2
 8005072:	6a22      	ldr	r2, [r4, #32]
 8005074:	4313      	orrs	r3, r2
 8005076:	6aa2      	ldr	r2, [r4, #40]	@ 0x28
 8005078:	ea43 2302 	orr.w	r3, r3, r2, lsl #8
 800507c:	6ae2      	ldr	r2, [r4, #44]	@ 0x2c
 800507e:	ea43 63c2 	orr.w	r3, r3, r2, lsl #27
 8005082:	6a62      	ldr	r2, [r4, #36]	@ 0x24
 8005084:	3a01      	subs	r2, #1
 8005086:	ea43 1302 	orr.w	r3, r3, r2, lsl #4
 800508a:	6b22      	ldr	r2, [r4, #48]	@ 0x30
 800508c:	0852      	lsrs	r2, r2, #1
 800508e:	3a01      	subs	r2, #1
 8005090:	ea43 5342 	orr.w	r3, r3, r2, lsl #21
 8005094:	6b62      	ldr	r2, [r4, #52]	@ 0x34
 8005096:	0852      	lsrs	r2, r2, #1
 8005098:	3a01      	subs	r2, #1
 800509a:	ea43 6342 	orr.w	r3, r3, r2, lsl #25
 800509e:	60eb      	str	r3, [r5, #12]
 80050a0:	682b      	ldr	r3, [r5, #0]
 80050a2:	f043 7380 	orr.w	r3, r3, #16777216	@ 0x1000000
 80050a6:	602b      	str	r3, [r5, #0]
 80050a8:	68eb      	ldr	r3, [r5, #12]
 80050aa:	f043 7380 	orr.w	r3, r3, #16777216	@ 0x1000000
 80050ae:	60eb      	str	r3, [r5, #12]
 80050b0:	f7ff faa8 	bl	8004604 <HAL_GetTick>
 80050b4:	4604      	mov	r4, r0
 80050b6:	682b      	ldr	r3, [r5, #0]
 80050b8:	019a      	lsls	r2, r3, #6
 80050ba:	f53f ae69 	bmi.w	8004d90 <HAL_RCC_OscConfig+0x3c>
 80050be:	f7ff faa1 	bl	8004604 <HAL_GetTick>
 80050c2:	1b00      	subs	r0, r0, r4
 80050c4:	2802      	cmp	r0, #2
 80050c6:	d9f6      	bls.n	80050b6 <HAL_RCC_OscConfig+0x362>
 80050c8:	e68b      	b.n	8004de2 <HAL_RCC_OscConfig+0x8e>
 80050ca:	f7ff fa9b 	bl	8004604 <HAL_GetTick>
 80050ce:	1b80      	subs	r0, r0, r6
 80050d0:	2802      	cmp	r0, #2
 80050d2:	d9c8      	bls.n	8005066 <HAL_RCC_OscConfig+0x312>
 80050d4:	e685      	b.n	8004de2 <HAL_RCC_OscConfig+0x8e>
 80050d6:	f7ff fa95 	bl	8004604 <HAL_GetTick>
 80050da:	4604      	mov	r4, r0
 80050dc:	682b      	ldr	r3, [r5, #0]
 80050de:	019b      	lsls	r3, r3, #6
 80050e0:	d404      	bmi.n	80050ec <HAL_RCC_OscConfig+0x398>
 80050e2:	68ea      	ldr	r2, [r5, #12]
 80050e4:	4b20      	ldr	r3, [pc, #128]	@ (8005168 <HAL_RCC_OscConfig+0x414>)
 80050e6:	4013      	ands	r3, r2
 80050e8:	60eb      	str	r3, [r5, #12]
 80050ea:	e651      	b.n	8004d90 <HAL_RCC_OscConfig+0x3c>
 80050ec:	f7ff fa8a 	bl	8004604 <HAL_GetTick>
 80050f0:	1b00      	subs	r0, r0, r4
 80050f2:	2802      	cmp	r0, #2
 80050f4:	d9f2      	bls.n	80050dc <HAL_RCC_OscConfig+0x388>
 80050f6:	e674      	b.n	8004de2 <HAL_RCC_OscConfig+0x8e>
 80050f8:	2b01      	cmp	r3, #1
 80050fa:	f43f ae2f 	beq.w	8004d5c <HAL_RCC_OscConfig+0x8>
 80050fe:	68eb      	ldr	r3, [r5, #12]
 8005100:	6a22      	ldr	r2, [r4, #32]
 8005102:	f003 0103 	and.w	r1, r3, #3
 8005106:	4291      	cmp	r1, r2
 8005108:	f47f ae28 	bne.w	8004d5c <HAL_RCC_OscConfig+0x8>
 800510c:	6a61      	ldr	r1, [r4, #36]	@ 0x24
 800510e:	f003 02f0 	and.w	r2, r3, #240	@ 0xf0
 8005112:	3901      	subs	r1, #1
 8005114:	ebb2 1f01 	cmp.w	r2, r1, lsl #4
 8005118:	f47f ae20 	bne.w	8004d5c <HAL_RCC_OscConfig+0x8>
 800511c:	6aa1      	ldr	r1, [r4, #40]	@ 0x28
 800511e:	f403 42fe 	and.w	r2, r3, #32512	@ 0x7f00
 8005122:	ebb2 2f01 	cmp.w	r2, r1, lsl #8
 8005126:	f47f ae19 	bne.w	8004d5c <HAL_RCC_OscConfig+0x8>
 800512a:	6ae1      	ldr	r1, [r4, #44]	@ 0x2c
 800512c:	f003 4278 	and.w	r2, r3, #4160749568	@ 0xf8000000
 8005130:	ebb2 6fc1 	cmp.w	r2, r1, lsl #27
 8005134:	f47f ae12 	bne.w	8004d5c <HAL_RCC_OscConfig+0x8>
 8005138:	6b22      	ldr	r2, [r4, #48]	@ 0x30
 800513a:	0852      	lsrs	r2, r2, #1
 800513c:	f403 01c0 	and.w	r1, r3, #6291456	@ 0x600000
 8005140:	3a01      	subs	r2, #1
 8005142:	ebb1 5f42 	cmp.w	r1, r2, lsl #21
 8005146:	f47f ae09 	bne.w	8004d5c <HAL_RCC_OscConfig+0x8>
 800514a:	6b62      	ldr	r2, [r4, #52]	@ 0x34
 800514c:	0852      	lsrs	r2, r2, #1
 800514e:	3a01      	subs	r2, #1
 8005150:	f003 63c0 	and.w	r3, r3, #100663296	@ 0x6000000
 8005154:	ebb3 6f42 	cmp.w	r3, r2, lsl #25
 8005158:	bf14      	ite	ne
 800515a:	2001      	movne	r0, #1
 800515c:	2000      	moveq	r0, #0
 800515e:	e5fe      	b.n	8004d5e <HAL_RCC_OscConfig+0xa>
 8005160:	40021000 	.word	0x40021000
 8005164:	019f800c 	.word	0x019f800c
 8005168:	feeefffc 	.word	0xfeeefffc

0800516c <HAL_RCC_GetSysClockFreq>:
 800516c:	4b17      	ldr	r3, [pc, #92]	@ (80051cc <HAL_RCC_GetSysClockFreq+0x60>)
 800516e:	689a      	ldr	r2, [r3, #8]
 8005170:	f002 020c 	and.w	r2, r2, #12
 8005174:	2a04      	cmp	r2, #4
 8005176:	d023      	beq.n	80051c0 <HAL_RCC_GetSysClockFreq+0x54>
 8005178:	689a      	ldr	r2, [r3, #8]
 800517a:	f002 020c 	and.w	r2, r2, #12
 800517e:	2a08      	cmp	r2, #8
 8005180:	d020      	beq.n	80051c4 <HAL_RCC_GetSysClockFreq+0x58>
 8005182:	689a      	ldr	r2, [r3, #8]
 8005184:	f002 020c 	and.w	r2, r2, #12
 8005188:	2a0c      	cmp	r2, #12
 800518a:	d11d      	bne.n	80051c8 <HAL_RCC_GetSysClockFreq+0x5c>
 800518c:	68d9      	ldr	r1, [r3, #12]
 800518e:	68da      	ldr	r2, [r3, #12]
 8005190:	68d8      	ldr	r0, [r3, #12]
 8005192:	68db      	ldr	r3, [r3, #12]
 8005194:	f001 0103 	and.w	r1, r1, #3
 8005198:	f3c3 6341 	ubfx	r3, r3, #25, #2
 800519c:	2903      	cmp	r1, #3
 800519e:	f3c2 1203 	ubfx	r2, r2, #4, #4
 80051a2:	f3c0 2006 	ubfx	r0, r0, #8, #7
 80051a6:	f103 0301 	add.w	r3, r3, #1
 80051aa:	bf0c      	ite	eq
 80051ac:	4908      	ldreq	r1, [pc, #32]	@ (80051d0 <HAL_RCC_GetSysClockFreq+0x64>)
 80051ae:	4909      	ldrne	r1, [pc, #36]	@ (80051d4 <HAL_RCC_GetSysClockFreq+0x68>)
 80051b0:	005b      	lsls	r3, r3, #1
 80051b2:	3201      	adds	r2, #1
 80051b4:	fbb1 f2f2 	udiv	r2, r1, r2
 80051b8:	4350      	muls	r0, r2
 80051ba:	fbb0 f0f3 	udiv	r0, r0, r3
 80051be:	4770      	bx	lr
 80051c0:	4804      	ldr	r0, [pc, #16]	@ (80051d4 <HAL_RCC_GetSysClockFreq+0x68>)
 80051c2:	4770      	bx	lr
 80051c4:	4802      	ldr	r0, [pc, #8]	@ (80051d0 <HAL_RCC_GetSysClockFreq+0x64>)
 80051c6:	4770      	bx	lr
 80051c8:	2000      	movs	r0, #0
 80051ca:	4770      	bx	lr
 80051cc:	40021000 	.word	0x40021000
 80051d0:	007a1200 	.word	0x007a1200
 80051d4:	00f42400 	.word	0x00f42400

080051d8 <HAL_RCC_ClockConfig>:
 80051d8:	e92d 43f8 	stmdb	sp!, {r3, r4, r5, r6, r7, r8, r9, lr}
 80051dc:	460e      	mov	r6, r1
 80051de:	4605      	mov	r5, r0
 80051e0:	b910      	cbnz	r0, 80051e8 <HAL_RCC_ClockConfig+0x10>
 80051e2:	2001      	movs	r0, #1
 80051e4:	e8bd 83f8 	ldmia.w	sp!, {r3, r4, r5, r6, r7, r8, r9, pc}
 80051e8:	4a6d      	ldr	r2, [pc, #436]	@ (80053a0 <HAL_RCC_ClockConfig+0x1c8>)
 80051ea:	6813      	ldr	r3, [r2, #0]
 80051ec:	f003 030f 	and.w	r3, r3, #15
 80051f0:	428b      	cmp	r3, r1
 80051f2:	d345      	bcc.n	8005280 <HAL_RCC_ClockConfig+0xa8>
 80051f4:	6829      	ldr	r1, [r5, #0]
 80051f6:	f011 0801 	ands.w	r8, r1, #1
 80051fa:	d14c      	bne.n	8005296 <HAL_RCC_ClockConfig+0xbe>
 80051fc:	682a      	ldr	r2, [r5, #0]
 80051fe:	0791      	lsls	r1, r2, #30
 8005200:	f140 80a7 	bpl.w	8005352 <HAL_RCC_ClockConfig+0x17a>
 8005204:	4b67      	ldr	r3, [pc, #412]	@ (80053a4 <HAL_RCC_ClockConfig+0x1cc>)
 8005206:	f012 0f04 	tst.w	r2, #4
 800520a:	bf1e      	ittt	ne
 800520c:	6899      	ldrne	r1, [r3, #8]
 800520e:	f441 61e0 	orrne.w	r1, r1, #1792	@ 0x700
 8005212:	6099      	strne	r1, [r3, #8]
 8005214:	0712      	lsls	r2, r2, #28
 8005216:	bf41      	itttt	mi
 8005218:	689a      	ldrmi	r2, [r3, #8]
 800521a:	f422 527c 	bicmi.w	r2, r2, #16128	@ 0x3f00
 800521e:	f442 62e0 	orrmi.w	r2, r2, #1792	@ 0x700
 8005222:	609a      	strmi	r2, [r3, #8]
 8005224:	689a      	ldr	r2, [r3, #8]
 8005226:	68a9      	ldr	r1, [r5, #8]
 8005228:	f022 02f0 	bic.w	r2, r2, #240	@ 0xf0
 800522c:	430a      	orrs	r2, r1
 800522e:	609a      	str	r2, [r3, #8]
 8005230:	4c5b      	ldr	r4, [pc, #364]	@ (80053a0 <HAL_RCC_ClockConfig+0x1c8>)
 8005232:	6823      	ldr	r3, [r4, #0]
 8005234:	f003 030f 	and.w	r3, r3, #15
 8005238:	42b3      	cmp	r3, r6
 800523a:	f200 8093 	bhi.w	8005364 <HAL_RCC_ClockConfig+0x18c>
 800523e:	682a      	ldr	r2, [r5, #0]
 8005240:	4c58      	ldr	r4, [pc, #352]	@ (80053a4 <HAL_RCC_ClockConfig+0x1cc>)
 8005242:	f012 0f04 	tst.w	r2, #4
 8005246:	f040 80a3 	bne.w	8005390 <HAL_RCC_ClockConfig+0x1b8>
 800524a:	0713      	lsls	r3, r2, #28
 800524c:	d506      	bpl.n	800525c <HAL_RCC_ClockConfig+0x84>
 800524e:	68a3      	ldr	r3, [r4, #8]
 8005250:	692a      	ldr	r2, [r5, #16]
 8005252:	f423 5360 	bic.w	r3, r3, #14336	@ 0x3800
 8005256:	ea43 03c2 	orr.w	r3, r3, r2, lsl #3
 800525a:	60a3      	str	r3, [r4, #8]
 800525c:	f7ff ff86 	bl	800516c <HAL_RCC_GetSysClockFreq>
 8005260:	68a3      	ldr	r3, [r4, #8]
 8005262:	4a51      	ldr	r2, [pc, #324]	@ (80053a8 <HAL_RCC_ClockConfig+0x1d0>)
 8005264:	f3c3 1303 	ubfx	r3, r3, #4, #4
 8005268:	5cd3      	ldrb	r3, [r2, r3]
 800526a:	f003 031f 	and.w	r3, r3, #31
 800526e:	40d8      	lsrs	r0, r3
 8005270:	4b4e      	ldr	r3, [pc, #312]	@ (80053ac <HAL_RCC_ClockConfig+0x1d4>)
 8005272:	6018      	str	r0, [r3, #0]
 8005274:	4b4e      	ldr	r3, [pc, #312]	@ (80053b0 <HAL_RCC_ClockConfig+0x1d8>)
 8005276:	6818      	ldr	r0, [r3, #0]
 8005278:	e8bd 43f8 	ldmia.w	sp!, {r3, r4, r5, r6, r7, r8, r9, lr}
 800527c:	f7ff b980 	b.w	8004580 <HAL_InitTick>
 8005280:	6813      	ldr	r3, [r2, #0]
 8005282:	f023 030f 	bic.w	r3, r3, #15
 8005286:	430b      	orrs	r3, r1
 8005288:	6013      	str	r3, [r2, #0]
 800528a:	6813      	ldr	r3, [r2, #0]
 800528c:	f003 030f 	and.w	r3, r3, #15
 8005290:	428b      	cmp	r3, r1
 8005292:	d1a6      	bne.n	80051e2 <HAL_RCC_ClockConfig+0xa>
 8005294:	e7ae      	b.n	80051f4 <HAL_RCC_ClockConfig+0x1c>
 8005296:	686f      	ldr	r7, [r5, #4]
 8005298:	4c42      	ldr	r4, [pc, #264]	@ (80053a4 <HAL_RCC_ClockConfig+0x1cc>)
 800529a:	2f03      	cmp	r7, #3
 800529c:	6823      	ldr	r3, [r4, #0]
 800529e:	d149      	bne.n	8005334 <HAL_RCC_ClockConfig+0x15c>
 80052a0:	019b      	lsls	r3, r3, #6
 80052a2:	d59e      	bpl.n	80051e2 <HAL_RCC_ClockConfig+0xa>
 80052a4:	68e3      	ldr	r3, [r4, #12]
 80052a6:	68e2      	ldr	r2, [r4, #12]
 80052a8:	f003 0303 	and.w	r3, r3, #3
 80052ac:	2b03      	cmp	r3, #3
 80052ae:	68e3      	ldr	r3, [r4, #12]
 80052b0:	bf0c      	ite	eq
 80052b2:	4840      	ldreq	r0, [pc, #256]	@ (80053b4 <HAL_RCC_ClockConfig+0x1dc>)
 80052b4:	4840      	ldrne	r0, [pc, #256]	@ (80053b8 <HAL_RCC_ClockConfig+0x1e0>)
 80052b6:	f3c2 1203 	ubfx	r2, r2, #4, #4
 80052ba:	f3c3 2306 	ubfx	r3, r3, #8, #7
 80052be:	3201      	adds	r2, #1
 80052c0:	fbb0 f2f2 	udiv	r2, r0, r2
 80052c4:	4353      	muls	r3, r2
 80052c6:	68e2      	ldr	r2, [r4, #12]
 80052c8:	f3c2 6241 	ubfx	r2, r2, #25, #2
 80052cc:	3201      	adds	r2, #1
 80052ce:	0052      	lsls	r2, r2, #1
 80052d0:	fbb3 f3f2 	udiv	r3, r3, r2
 80052d4:	4a39      	ldr	r2, [pc, #228]	@ (80053bc <HAL_RCC_ClockConfig+0x1e4>)
 80052d6:	4293      	cmp	r3, r2
 80052d8:	d81a      	bhi.n	8005310 <HAL_RCC_ClockConfig+0x138>
 80052da:	f04f 0800 	mov.w	r8, #0
 80052de:	68a3      	ldr	r3, [r4, #8]
 80052e0:	f023 0303 	bic.w	r3, r3, #3
 80052e4:	433b      	orrs	r3, r7
 80052e6:	60a3      	str	r3, [r4, #8]
 80052e8:	f7ff f98c 	bl	8004604 <HAL_GetTick>
 80052ec:	f241 3988 	movw	r9, #5000	@ 0x1388
 80052f0:	4607      	mov	r7, r0
 80052f2:	68a3      	ldr	r3, [r4, #8]
 80052f4:	686a      	ldr	r2, [r5, #4]
 80052f6:	f003 030c 	and.w	r3, r3, #12
 80052fa:	ebb3 0f82 	cmp.w	r3, r2, lsl #2
 80052fe:	f43f af7d 	beq.w	80051fc <HAL_RCC_ClockConfig+0x24>
 8005302:	f7ff f97f 	bl	8004604 <HAL_GetTick>
 8005306:	1bc0      	subs	r0, r0, r7
 8005308:	4548      	cmp	r0, r9
 800530a:	d9f2      	bls.n	80052f2 <HAL_RCC_ClockConfig+0x11a>
 800530c:	2003      	movs	r0, #3
 800530e:	e769      	b.n	80051e4 <HAL_RCC_ClockConfig+0xc>
 8005310:	68a3      	ldr	r3, [r4, #8]
 8005312:	f013 0ff0 	tst.w	r3, #240	@ 0xf0
 8005316:	d004      	beq.n	8005322 <HAL_RCC_ClockConfig+0x14a>
 8005318:	0788      	lsls	r0, r1, #30
 800531a:	d5de      	bpl.n	80052da <HAL_RCC_ClockConfig+0x102>
 800531c:	68ab      	ldr	r3, [r5, #8]
 800531e:	2b00      	cmp	r3, #0
 8005320:	d1db      	bne.n	80052da <HAL_RCC_ClockConfig+0x102>
 8005322:	68a3      	ldr	r3, [r4, #8]
 8005324:	f023 03f0 	bic.w	r3, r3, #240	@ 0xf0
 8005328:	f043 0380 	orr.w	r3, r3, #128	@ 0x80
 800532c:	60a3      	str	r3, [r4, #8]
 800532e:	f04f 0880 	mov.w	r8, #128	@ 0x80
 8005332:	e7d4      	b.n	80052de <HAL_RCC_ClockConfig+0x106>
 8005334:	2f02      	cmp	r7, #2
 8005336:	d109      	bne.n	800534c <HAL_RCC_ClockConfig+0x174>
 8005338:	f413 3f00 	tst.w	r3, #131072	@ 0x20000
 800533c:	f43f af51 	beq.w	80051e2 <HAL_RCC_ClockConfig+0xa>
 8005340:	f7ff ff14 	bl	800516c <HAL_RCC_GetSysClockFreq>
 8005344:	4b1d      	ldr	r3, [pc, #116]	@ (80053bc <HAL_RCC_ClockConfig+0x1e4>)
 8005346:	4298      	cmp	r0, r3
 8005348:	d9c7      	bls.n	80052da <HAL_RCC_ClockConfig+0x102>
 800534a:	e7ea      	b.n	8005322 <HAL_RCC_ClockConfig+0x14a>
 800534c:	f413 6f80 	tst.w	r3, #1024	@ 0x400
 8005350:	e7f4      	b.n	800533c <HAL_RCC_ClockConfig+0x164>
 8005352:	f1b8 0f80 	cmp.w	r8, #128	@ 0x80
 8005356:	bf01      	itttt	eq
 8005358:	4a12      	ldreq	r2, [pc, #72]	@ (80053a4 <HAL_RCC_ClockConfig+0x1cc>)
 800535a:	6893      	ldreq	r3, [r2, #8]
 800535c:	f023 03f0 	biceq.w	r3, r3, #240	@ 0xf0
 8005360:	6093      	streq	r3, [r2, #8]
 8005362:	e765      	b.n	8005230 <HAL_RCC_ClockConfig+0x58>
 8005364:	6823      	ldr	r3, [r4, #0]
 8005366:	f023 030f 	bic.w	r3, r3, #15
 800536a:	4333      	orrs	r3, r6
 800536c:	6023      	str	r3, [r4, #0]
 800536e:	f7ff f949 	bl	8004604 <HAL_GetTick>
 8005372:	f241 3888 	movw	r8, #5000	@ 0x1388
 8005376:	4607      	mov	r7, r0
 8005378:	6823      	ldr	r3, [r4, #0]
 800537a:	f003 030f 	and.w	r3, r3, #15
 800537e:	42b3      	cmp	r3, r6
 8005380:	f43f af5d 	beq.w	800523e <HAL_RCC_ClockConfig+0x66>
 8005384:	f7ff f93e 	bl	8004604 <HAL_GetTick>
 8005388:	1bc0      	subs	r0, r0, r7
 800538a:	4540      	cmp	r0, r8
 800538c:	d9f4      	bls.n	8005378 <HAL_RCC_ClockConfig+0x1a0>
 800538e:	e7bd      	b.n	800530c <HAL_RCC_ClockConfig+0x134>
 8005390:	68a3      	ldr	r3, [r4, #8]
 8005392:	68e9      	ldr	r1, [r5, #12]
 8005394:	f423 63e0 	bic.w	r3, r3, #1792	@ 0x700
 8005398:	430b      	orrs	r3, r1
 800539a:	60a3      	str	r3, [r4, #8]
 800539c:	e755      	b.n	800524a <HAL_RCC_ClockConfig+0x72>
 800539e:	bf00      	nop
 80053a0:	40022000 	.word	0x40022000
 80053a4:	40021000 	.word	0x40021000
 80053a8:	0800a5bc 	.word	0x0800a5bc
 80053ac:	2000000c 	.word	0x2000000c
 80053b0:	20000014 	.word	0x20000014
 80053b4:	007a1200 	.word	0x007a1200
 80053b8:	00f42400 	.word	0x00f42400
 80053bc:	04c4b400 	.word	0x04c4b400

080053c0 <HAL_RCC_GetHCLKFreq>:
 80053c0:	4b01      	ldr	r3, [pc, #4]	@ (80053c8 <HAL_RCC_GetHCLKFreq+0x8>)
 80053c2:	6818      	ldr	r0, [r3, #0]
 80053c4:	4770      	bx	lr
 80053c6:	bf00      	nop
 80053c8:	2000000c 	.word	0x2000000c

080053cc <HAL_RCC_GetPCLK1Freq>:
 80053cc:	4b05      	ldr	r3, [pc, #20]	@ (80053e4 <HAL_RCC_GetPCLK1Freq+0x18>)
 80053ce:	4a06      	ldr	r2, [pc, #24]	@ (80053e8 <HAL_RCC_GetPCLK1Freq+0x1c>)
 80053d0:	689b      	ldr	r3, [r3, #8]
 80053d2:	f3c3 2302 	ubfx	r3, r3, #8, #3
 80053d6:	5cd3      	ldrb	r3, [r2, r3]
 80053d8:	4a04      	ldr	r2, [pc, #16]	@ (80053ec <HAL_RCC_GetPCLK1Freq+0x20>)
 80053da:	6810      	ldr	r0, [r2, #0]
 80053dc:	f003 031f 	and.w	r3, r3, #31
 80053e0:	40d8      	lsrs	r0, r3
 80053e2:	4770      	bx	lr
 80053e4:	40021000 	.word	0x40021000
 80053e8:	0800a5b4 	.word	0x0800a5b4
 80053ec:	2000000c 	.word	0x2000000c

080053f0 <HAL_RCC_GetPCLK2Freq>:
 80053f0:	4b05      	ldr	r3, [pc, #20]	@ (8005408 <HAL_RCC_GetPCLK2Freq+0x18>)
 80053f2:	4a06      	ldr	r2, [pc, #24]	@ (800540c <HAL_RCC_GetPCLK2Freq+0x1c>)
 80053f4:	689b      	ldr	r3, [r3, #8]
 80053f6:	f3c3 23c2 	ubfx	r3, r3, #11, #3
 80053fa:	5cd3      	ldrb	r3, [r2, r3]
 80053fc:	4a04      	ldr	r2, [pc, #16]	@ (8005410 <HAL_RCC_GetPCLK2Freq+0x20>)
 80053fe:	6810      	ldr	r0, [r2, #0]
 8005400:	f003 031f 	and.w	r3, r3, #31
 8005404:	40d8      	lsrs	r0, r3
 8005406:	4770      	bx	lr
 8005408:	40021000 	.word	0x40021000
 800540c:	0800a5b4 	.word	0x0800a5b4
 8005410:	2000000c 	.word	0x2000000c

08005414 <HAL_RCCEx_PeriphCLKConfig>:
 8005414:	e92d 41f3 	stmdb	sp!, {r0, r1, r4, r5, r6, r7, r8, lr}
 8005418:	4604      	mov	r4, r0
 800541a:	6800      	ldr	r0, [r0, #0]
 800541c:	f410 2000 	ands.w	r0, r0, #524288	@ 0x80000
 8005420:	d05a      	beq.n	80054d8 <HAL_RCCEx_PeriphCLKConfig+0xc4>
 8005422:	4d25      	ldr	r5, [pc, #148]	@ (80054b8 <HAL_RCCEx_PeriphCLKConfig+0xa4>)
 8005424:	6dab      	ldr	r3, [r5, #88]	@ 0x58
 8005426:	00d8      	lsls	r0, r3, #3
 8005428:	d444      	bmi.n	80054b4 <HAL_RCCEx_PeriphCLKConfig+0xa0>
 800542a:	6dab      	ldr	r3, [r5, #88]	@ 0x58
 800542c:	f043 5380 	orr.w	r3, r3, #268435456	@ 0x10000000
 8005430:	65ab      	str	r3, [r5, #88]	@ 0x58
 8005432:	6dab      	ldr	r3, [r5, #88]	@ 0x58
 8005434:	f003 5380 	and.w	r3, r3, #268435456	@ 0x10000000
 8005438:	9301      	str	r3, [sp, #4]
 800543a:	9b01      	ldr	r3, [sp, #4]
 800543c:	2601      	movs	r6, #1
 800543e:	4f1f      	ldr	r7, [pc, #124]	@ (80054bc <HAL_RCCEx_PeriphCLKConfig+0xa8>)
 8005440:	683b      	ldr	r3, [r7, #0]
 8005442:	f443 7380 	orr.w	r3, r3, #256	@ 0x100
 8005446:	603b      	str	r3, [r7, #0]
 8005448:	f7ff f8dc 	bl	8004604 <HAL_GetTick>
 800544c:	4680      	mov	r8, r0
 800544e:	683b      	ldr	r3, [r7, #0]
 8005450:	05d9      	lsls	r1, r3, #23
 8005452:	d535      	bpl.n	80054c0 <HAL_RCCEx_PeriphCLKConfig+0xac>
 8005454:	f8d5 3090 	ldr.w	r3, [r5, #144]	@ 0x90
 8005458:	f413 7340 	ands.w	r3, r3, #768	@ 0x300
 800545c:	d020      	beq.n	80054a0 <HAL_RCCEx_PeriphCLKConfig+0x8c>
 800545e:	6d22      	ldr	r2, [r4, #80]	@ 0x50
 8005460:	4293      	cmp	r3, r2
 8005462:	d01d      	beq.n	80054a0 <HAL_RCCEx_PeriphCLKConfig+0x8c>
 8005464:	f8d5 2090 	ldr.w	r2, [r5, #144]	@ 0x90
 8005468:	f8d5 3090 	ldr.w	r3, [r5, #144]	@ 0x90
 800546c:	f443 3380 	orr.w	r3, r3, #65536	@ 0x10000
 8005470:	f8c5 3090 	str.w	r3, [r5, #144]	@ 0x90
 8005474:	f8d5 3090 	ldr.w	r3, [r5, #144]	@ 0x90
 8005478:	f422 7140 	bic.w	r1, r2, #768	@ 0x300
 800547c:	f423 3380 	bic.w	r3, r3, #65536	@ 0x10000
 8005480:	07d2      	lsls	r2, r2, #31
 8005482:	f8c5 3090 	str.w	r3, [r5, #144]	@ 0x90
 8005486:	f8c5 1090 	str.w	r1, [r5, #144]	@ 0x90
 800548a:	d509      	bpl.n	80054a0 <HAL_RCCEx_PeriphCLKConfig+0x8c>
 800548c:	f7ff f8ba 	bl	8004604 <HAL_GetTick>
 8005490:	f241 3888 	movw	r8, #5000	@ 0x1388
 8005494:	4607      	mov	r7, r0
 8005496:	f8d5 3090 	ldr.w	r3, [r5, #144]	@ 0x90
 800549a:	079b      	lsls	r3, r3, #30
 800549c:	f140 8129 	bpl.w	80056f2 <HAL_RCCEx_PeriphCLKConfig+0x2de>
 80054a0:	f8d5 3090 	ldr.w	r3, [r5, #144]	@ 0x90
 80054a4:	6d22      	ldr	r2, [r4, #80]	@ 0x50
 80054a6:	f423 7340 	bic.w	r3, r3, #768	@ 0x300
 80054aa:	4313      	orrs	r3, r2
 80054ac:	f8c5 3090 	str.w	r3, [r5, #144]	@ 0x90
 80054b0:	2000      	movs	r0, #0
 80054b2:	e00c      	b.n	80054ce <HAL_RCCEx_PeriphCLKConfig+0xba>
 80054b4:	2600      	movs	r6, #0
 80054b6:	e7c2      	b.n	800543e <HAL_RCCEx_PeriphCLKConfig+0x2a>
 80054b8:	40021000 	.word	0x40021000
 80054bc:	40007000 	.word	0x40007000
 80054c0:	f7ff f8a0 	bl	8004604 <HAL_GetTick>
 80054c4:	eba0 0008 	sub.w	r0, r0, r8
 80054c8:	2802      	cmp	r0, #2
 80054ca:	d9c0      	bls.n	800544e <HAL_RCCEx_PeriphCLKConfig+0x3a>
 80054cc:	2003      	movs	r0, #3
 80054ce:	b11e      	cbz	r6, 80054d8 <HAL_RCCEx_PeriphCLKConfig+0xc4>
 80054d0:	6dab      	ldr	r3, [r5, #88]	@ 0x58
 80054d2:	f023 5380 	bic.w	r3, r3, #268435456	@ 0x10000000
 80054d6:	65ab      	str	r3, [r5, #88]	@ 0x58
 80054d8:	6823      	ldr	r3, [r4, #0]
 80054da:	07dd      	lsls	r5, r3, #31
 80054dc:	d508      	bpl.n	80054f0 <HAL_RCCEx_PeriphCLKConfig+0xdc>
 80054de:	4988      	ldr	r1, [pc, #544]	@ (8005700 <HAL_RCCEx_PeriphCLKConfig+0x2ec>)
 80054e0:	6865      	ldr	r5, [r4, #4]
 80054e2:	f8d1 2088 	ldr.w	r2, [r1, #136]	@ 0x88
 80054e6:	f022 0203 	bic.w	r2, r2, #3
 80054ea:	432a      	orrs	r2, r5
 80054ec:	f8c1 2088 	str.w	r2, [r1, #136]	@ 0x88
 80054f0:	0799      	lsls	r1, r3, #30
 80054f2:	d508      	bpl.n	8005506 <HAL_RCCEx_PeriphCLKConfig+0xf2>
 80054f4:	4982      	ldr	r1, [pc, #520]	@ (8005700 <HAL_RCCEx_PeriphCLKConfig+0x2ec>)
 80054f6:	68a5      	ldr	r5, [r4, #8]
 80054f8:	f8d1 2088 	ldr.w	r2, [r1, #136]	@ 0x88
 80054fc:	f022 020c 	bic.w	r2, r2, #12
 8005500:	432a      	orrs	r2, r5
 8005502:	f8c1 2088 	str.w	r2, [r1, #136]	@ 0x88
 8005506:	075a      	lsls	r2, r3, #29
 8005508:	d508      	bpl.n	800551c <HAL_RCCEx_PeriphCLKConfig+0x108>
 800550a:	497d      	ldr	r1, [pc, #500]	@ (8005700 <HAL_RCCEx_PeriphCLKConfig+0x2ec>)
 800550c:	68e5      	ldr	r5, [r4, #12]
 800550e:	f8d1 2088 	ldr.w	r2, [r1, #136]	@ 0x88
 8005512:	f022 0230 	bic.w	r2, r2, #48	@ 0x30
 8005516:	432a      	orrs	r2, r5
 8005518:	f8c1 2088 	str.w	r2, [r1, #136]	@ 0x88
 800551c:	071f      	lsls	r7, r3, #28
 800551e:	d508      	bpl.n	8005532 <HAL_RCCEx_PeriphCLKConfig+0x11e>
 8005520:	4977      	ldr	r1, [pc, #476]	@ (8005700 <HAL_RCCEx_PeriphCLKConfig+0x2ec>)
 8005522:	6925      	ldr	r5, [r4, #16]
 8005524:	f8d1 2088 	ldr.w	r2, [r1, #136]	@ 0x88
 8005528:	f022 02c0 	bic.w	r2, r2, #192	@ 0xc0
 800552c:	432a      	orrs	r2, r5
 800552e:	f8c1 2088 	str.w	r2, [r1, #136]	@ 0x88
 8005532:	06de      	lsls	r6, r3, #27
 8005534:	d508      	bpl.n	8005548 <HAL_RCCEx_PeriphCLKConfig+0x134>
 8005536:	4972      	ldr	r1, [pc, #456]	@ (8005700 <HAL_RCCEx_PeriphCLKConfig+0x2ec>)
 8005538:	6965      	ldr	r5, [r4, #20]
 800553a:	f8d1 2088 	ldr.w	r2, [r1, #136]	@ 0x88
 800553e:	f422 7240 	bic.w	r2, r2, #768	@ 0x300
 8005542:	432a      	orrs	r2, r5
 8005544:	f8c1 2088 	str.w	r2, [r1, #136]	@ 0x88
 8005548:	069d      	lsls	r5, r3, #26
 800554a:	d508      	bpl.n	800555e <HAL_RCCEx_PeriphCLKConfig+0x14a>
 800554c:	496c      	ldr	r1, [pc, #432]	@ (8005700 <HAL_RCCEx_PeriphCLKConfig+0x2ec>)
 800554e:	69a5      	ldr	r5, [r4, #24]
 8005550:	f8d1 2088 	ldr.w	r2, [r1, #136]	@ 0x88
 8005554:	f422 6240 	bic.w	r2, r2, #3072	@ 0xc00
 8005558:	432a      	orrs	r2, r5
 800555a:	f8c1 2088 	str.w	r2, [r1, #136]	@ 0x88
 800555e:	0659      	lsls	r1, r3, #25
 8005560:	d508      	bpl.n	8005574 <HAL_RCCEx_PeriphCLKConfig+0x160>
 8005562:	4967      	ldr	r1, [pc, #412]	@ (8005700 <HAL_RCCEx_PeriphCLKConfig+0x2ec>)
 8005564:	69e5      	ldr	r5, [r4, #28]
 8005566:	f8d1 2088 	ldr.w	r2, [r1, #136]	@ 0x88
 800556a:	f422 5240 	bic.w	r2, r2, #12288	@ 0x3000
 800556e:	432a      	orrs	r2, r5
 8005570:	f8c1 2088 	str.w	r2, [r1, #136]	@ 0x88
 8005574:	061a      	lsls	r2, r3, #24
 8005576:	d508      	bpl.n	800558a <HAL_RCCEx_PeriphCLKConfig+0x176>
 8005578:	4961      	ldr	r1, [pc, #388]	@ (8005700 <HAL_RCCEx_PeriphCLKConfig+0x2ec>)
 800557a:	6a25      	ldr	r5, [r4, #32]
 800557c:	f8d1 2088 	ldr.w	r2, [r1, #136]	@ 0x88
 8005580:	f422 4240 	bic.w	r2, r2, #49152	@ 0xc000
 8005584:	432a      	orrs	r2, r5
 8005586:	f8c1 2088 	str.w	r2, [r1, #136]	@ 0x88
 800558a:	05df      	lsls	r7, r3, #23
 800558c:	d508      	bpl.n	80055a0 <HAL_RCCEx_PeriphCLKConfig+0x18c>
 800558e:	495c      	ldr	r1, [pc, #368]	@ (8005700 <HAL_RCCEx_PeriphCLKConfig+0x2ec>)
 8005590:	6a65      	ldr	r5, [r4, #36]	@ 0x24
 8005592:	f8d1 2088 	ldr.w	r2, [r1, #136]	@ 0x88
 8005596:	f422 3240 	bic.w	r2, r2, #196608	@ 0x30000
 800559a:	432a      	orrs	r2, r5
 800559c:	f8c1 2088 	str.w	r2, [r1, #136]	@ 0x88
 80055a0:	039e      	lsls	r6, r3, #14
 80055a2:	d508      	bpl.n	80055b6 <HAL_RCCEx_PeriphCLKConfig+0x1a2>
 80055a4:	4956      	ldr	r1, [pc, #344]	@ (8005700 <HAL_RCCEx_PeriphCLKConfig+0x2ec>)
 80055a6:	6aa5      	ldr	r5, [r4, #40]	@ 0x28
 80055a8:	f8d1 209c 	ldr.w	r2, [r1, #156]	@ 0x9c
 80055ac:	f022 0203 	bic.w	r2, r2, #3
 80055b0:	432a      	orrs	r2, r5
 80055b2:	f8c1 209c 	str.w	r2, [r1, #156]	@ 0x9c
 80055b6:	059d      	lsls	r5, r3, #22
 80055b8:	d508      	bpl.n	80055cc <HAL_RCCEx_PeriphCLKConfig+0x1b8>
 80055ba:	4951      	ldr	r1, [pc, #324]	@ (8005700 <HAL_RCCEx_PeriphCLKConfig+0x2ec>)
 80055bc:	6ae5      	ldr	r5, [r4, #44]	@ 0x2c
 80055be:	f8d1 2088 	ldr.w	r2, [r1, #136]	@ 0x88
 80055c2:	f422 2240 	bic.w	r2, r2, #786432	@ 0xc0000
 80055c6:	432a      	orrs	r2, r5
 80055c8:	f8c1 2088 	str.w	r2, [r1, #136]	@ 0x88
 80055cc:	0559      	lsls	r1, r3, #21
 80055ce:	d50f      	bpl.n	80055f0 <HAL_RCCEx_PeriphCLKConfig+0x1dc>
 80055d0:	494b      	ldr	r1, [pc, #300]	@ (8005700 <HAL_RCCEx_PeriphCLKConfig+0x2ec>)
 80055d2:	6b25      	ldr	r5, [r4, #48]	@ 0x30
 80055d4:	f8d1 2088 	ldr.w	r2, [r1, #136]	@ 0x88
 80055d8:	f422 1240 	bic.w	r2, r2, #3145728	@ 0x300000
 80055dc:	432a      	orrs	r2, r5
 80055de:	f8c1 2088 	str.w	r2, [r1, #136]	@ 0x88
 80055e2:	f5b5 1f80 	cmp.w	r5, #1048576	@ 0x100000
 80055e6:	bf02      	ittt	eq
 80055e8:	68ca      	ldreq	r2, [r1, #12]
 80055ea:	f442 1280 	orreq.w	r2, r2, #1048576	@ 0x100000
 80055ee:	60ca      	streq	r2, [r1, #12]
 80055f0:	051a      	lsls	r2, r3, #20
 80055f2:	d50f      	bpl.n	8005614 <HAL_RCCEx_PeriphCLKConfig+0x200>
 80055f4:	4942      	ldr	r1, [pc, #264]	@ (8005700 <HAL_RCCEx_PeriphCLKConfig+0x2ec>)
 80055f6:	6b65      	ldr	r5, [r4, #52]	@ 0x34
 80055f8:	f8d1 2088 	ldr.w	r2, [r1, #136]	@ 0x88
 80055fc:	f422 0240 	bic.w	r2, r2, #12582912	@ 0xc00000
 8005600:	432a      	orrs	r2, r5
 8005602:	f8c1 2088 	str.w	r2, [r1, #136]	@ 0x88
 8005606:	f5b5 0f80 	cmp.w	r5, #4194304	@ 0x400000
 800560a:	bf02      	ittt	eq
 800560c:	68ca      	ldreq	r2, [r1, #12]
 800560e:	f442 1280 	orreq.w	r2, r2, #1048576	@ 0x100000
 8005612:	60ca      	streq	r2, [r1, #12]
 8005614:	04df      	lsls	r7, r3, #19
 8005616:	d50f      	bpl.n	8005638 <HAL_RCCEx_PeriphCLKConfig+0x224>
 8005618:	4939      	ldr	r1, [pc, #228]	@ (8005700 <HAL_RCCEx_PeriphCLKConfig+0x2ec>)
 800561a:	6ba5      	ldr	r5, [r4, #56]	@ 0x38
 800561c:	f8d1 2088 	ldr.w	r2, [r1, #136]	@ 0x88
 8005620:	f022 7240 	bic.w	r2, r2, #50331648	@ 0x3000000
 8005624:	432a      	orrs	r2, r5
 8005626:	f8c1 2088 	str.w	r2, [r1, #136]	@ 0x88
 800562a:	f1b5 7f80 	cmp.w	r5, #16777216	@ 0x1000000
 800562e:	bf02      	ittt	eq
 8005630:	68ca      	ldreq	r2, [r1, #12]
 8005632:	f442 1280 	orreq.w	r2, r2, #1048576	@ 0x100000
 8005636:	60ca      	streq	r2, [r1, #12]
 8005638:	049e      	lsls	r6, r3, #18
 800563a:	d50f      	bpl.n	800565c <HAL_RCCEx_PeriphCLKConfig+0x248>
 800563c:	4930      	ldr	r1, [pc, #192]	@ (8005700 <HAL_RCCEx_PeriphCLKConfig+0x2ec>)
 800563e:	6be5      	ldr	r5, [r4, #60]	@ 0x3c
 8005640:	f8d1 2088 	ldr.w	r2, [r1, #136]	@ 0x88
 8005644:	f022 6240 	bic.w	r2, r2, #201326592	@ 0xc000000
 8005648:	432a      	orrs	r2, r5
 800564a:	f8c1 2088 	str.w	r2, [r1, #136]	@ 0x88
 800564e:	f1b5 6f00 	cmp.w	r5, #134217728	@ 0x8000000
 8005652:	bf02      	ittt	eq
 8005654:	68ca      	ldreq	r2, [r1, #12]
 8005656:	f442 1280 	orreq.w	r2, r2, #1048576	@ 0x100000
 800565a:	60ca      	streq	r2, [r1, #12]
 800565c:	045d      	lsls	r5, r3, #17
 800565e:	d50f      	bpl.n	8005680 <HAL_RCCEx_PeriphCLKConfig+0x26c>
 8005660:	4927      	ldr	r1, [pc, #156]	@ (8005700 <HAL_RCCEx_PeriphCLKConfig+0x2ec>)
 8005662:	6c25      	ldr	r5, [r4, #64]	@ 0x40
 8005664:	f8d1 2088 	ldr.w	r2, [r1, #136]	@ 0x88
 8005668:	f022 6240 	bic.w	r2, r2, #201326592	@ 0xc000000
 800566c:	432a      	orrs	r2, r5
 800566e:	f8c1 2088 	str.w	r2, [r1, #136]	@ 0x88
 8005672:	f1b5 6f00 	cmp.w	r5, #134217728	@ 0x8000000
 8005676:	bf02      	ittt	eq
 8005678:	68ca      	ldreq	r2, [r1, #12]
 800567a:	f442 1280 	orreq.w	r2, r2, #1048576	@ 0x100000
 800567e:	60ca      	streq	r2, [r1, #12]
 8005680:	0419      	lsls	r1, r3, #16
 8005682:	d50f      	bpl.n	80056a4 <HAL_RCCEx_PeriphCLKConfig+0x290>
 8005684:	491e      	ldr	r1, [pc, #120]	@ (8005700 <HAL_RCCEx_PeriphCLKConfig+0x2ec>)
 8005686:	6c65      	ldr	r5, [r4, #68]	@ 0x44
 8005688:	f8d1 2088 	ldr.w	r2, [r1, #136]	@ 0x88
 800568c:	f022 5240 	bic.w	r2, r2, #805306368	@ 0x30000000
 8005690:	432a      	orrs	r2, r5
 8005692:	f8c1 2088 	str.w	r2, [r1, #136]	@ 0x88
 8005696:	f1b5 5f80 	cmp.w	r5, #268435456	@ 0x10000000
 800569a:	bf02      	ittt	eq
 800569c:	68ca      	ldreq	r2, [r1, #12]
 800569e:	f442 3280 	orreq.w	r2, r2, #65536	@ 0x10000
 80056a2:	60ca      	streq	r2, [r1, #12]
 80056a4:	03da      	lsls	r2, r3, #15
 80056a6:	d50f      	bpl.n	80056c8 <HAL_RCCEx_PeriphCLKConfig+0x2b4>
 80056a8:	4915      	ldr	r1, [pc, #84]	@ (8005700 <HAL_RCCEx_PeriphCLKConfig+0x2ec>)
 80056aa:	6ca5      	ldr	r5, [r4, #72]	@ 0x48
 80056ac:	f8d1 2088 	ldr.w	r2, [r1, #136]	@ 0x88
 80056b0:	f022 4240 	bic.w	r2, r2, #3221225472	@ 0xc0000000
 80056b4:	432a      	orrs	r2, r5
 80056b6:	f8c1 2088 	str.w	r2, [r1, #136]	@ 0x88
 80056ba:	f1b5 4f80 	cmp.w	r5, #1073741824	@ 0x40000000
 80056be:	bf02      	ittt	eq
 80056c0:	68ca      	ldreq	r2, [r1, #12]
 80056c2:	f442 3280 	orreq.w	r2, r2, #65536	@ 0x10000
 80056c6:	60ca      	streq	r2, [r1, #12]
 80056c8:	035b      	lsls	r3, r3, #13
 80056ca:	d50f      	bpl.n	80056ec <HAL_RCCEx_PeriphCLKConfig+0x2d8>
 80056cc:	4a0c      	ldr	r2, [pc, #48]	@ (8005700 <HAL_RCCEx_PeriphCLKConfig+0x2ec>)
 80056ce:	6ce1      	ldr	r1, [r4, #76]	@ 0x4c
 80056d0:	f8d2 309c 	ldr.w	r3, [r2, #156]	@ 0x9c
 80056d4:	f423 1340 	bic.w	r3, r3, #3145728	@ 0x300000
 80056d8:	430b      	orrs	r3, r1
 80056da:	f5b1 1f00 	cmp.w	r1, #2097152	@ 0x200000
 80056de:	f8c2 309c 	str.w	r3, [r2, #156]	@ 0x9c
 80056e2:	d103      	bne.n	80056ec <HAL_RCCEx_PeriphCLKConfig+0x2d8>
 80056e4:	68d3      	ldr	r3, [r2, #12]
 80056e6:	f443 1380 	orr.w	r3, r3, #1048576	@ 0x100000
 80056ea:	60d3      	str	r3, [r2, #12]
 80056ec:	b002      	add	sp, #8
 80056ee:	e8bd 81f0 	ldmia.w	sp!, {r4, r5, r6, r7, r8, pc}
 80056f2:	f7fe ff87 	bl	8004604 <HAL_GetTick>
 80056f6:	1bc0      	subs	r0, r0, r7
 80056f8:	4540      	cmp	r0, r8
 80056fa:	f67f aecc 	bls.w	8005496 <HAL_RCCEx_PeriphCLKConfig+0x82>
 80056fe:	e6e5      	b.n	80054cc <HAL_RCCEx_PeriphCLKConfig+0xb8>
 8005700:	40021000 	.word	0x40021000

08005704 <SPI_WaitFlagStateUntilTimeout.constprop.0>:
 8005704:	b5f7      	push	{r0, r1, r2, r4, r5, r6, r7, lr}
 8005706:	460e      	mov	r6, r1
 8005708:	4614      	mov	r4, r2
 800570a:	4605      	mov	r5, r0
 800570c:	f7fe ff7a 	bl	8004604 <HAL_GetTick>
 8005710:	4434      	add	r4, r6
 8005712:	1a24      	subs	r4, r4, r0
 8005714:	f7fe ff76 	bl	8004604 <HAL_GetTick>
 8005718:	4b21      	ldr	r3, [pc, #132]	@ (80057a0 <SPI_WaitFlagStateUntilTimeout.constprop.0+0x9c>)
 800571a:	681b      	ldr	r3, [r3, #0]
 800571c:	f3c3 33cb 	ubfx	r3, r3, #15, #12
 8005720:	4607      	mov	r7, r0
 8005722:	4363      	muls	r3, r4
 8005724:	9301      	str	r3, [sp, #4]
 8005726:	682a      	ldr	r2, [r5, #0]
 8005728:	6890      	ldr	r0, [r2, #8]
 800572a:	f010 0080 	ands.w	r0, r0, #128	@ 0x80
 800572e:	d02d      	beq.n	800578c <SPI_WaitFlagStateUntilTimeout.constprop.0+0x88>
 8005730:	1c73      	adds	r3, r6, #1
 8005732:	d0f9      	beq.n	8005728 <SPI_WaitFlagStateUntilTimeout.constprop.0+0x24>
 8005734:	f7fe ff66 	bl	8004604 <HAL_GetTick>
 8005738:	1bc0      	subs	r0, r0, r7
 800573a:	42a0      	cmp	r0, r4
 800573c:	d328      	bcc.n	8005790 <SPI_WaitFlagStateUntilTimeout.constprop.0+0x8c>
 800573e:	682b      	ldr	r3, [r5, #0]
 8005740:	685a      	ldr	r2, [r3, #4]
 8005742:	f022 02e0 	bic.w	r2, r2, #224	@ 0xe0
 8005746:	605a      	str	r2, [r3, #4]
 8005748:	686a      	ldr	r2, [r5, #4]
 800574a:	f5b2 7f82 	cmp.w	r2, #260	@ 0x104
 800574e:	d10a      	bne.n	8005766 <SPI_WaitFlagStateUntilTimeout.constprop.0+0x62>
 8005750:	68aa      	ldr	r2, [r5, #8]
 8005752:	f5b2 4f00 	cmp.w	r2, #32768	@ 0x8000
 8005756:	d002      	beq.n	800575e <SPI_WaitFlagStateUntilTimeout.constprop.0+0x5a>
 8005758:	f5b2 6f80 	cmp.w	r2, #1024	@ 0x400
 800575c:	d103      	bne.n	8005766 <SPI_WaitFlagStateUntilTimeout.constprop.0+0x62>
 800575e:	681a      	ldr	r2, [r3, #0]
 8005760:	f022 0240 	bic.w	r2, r2, #64	@ 0x40
 8005764:	601a      	str	r2, [r3, #0]
 8005766:	6aaa      	ldr	r2, [r5, #40]	@ 0x28
 8005768:	f5b2 5f00 	cmp.w	r2, #8192	@ 0x2000
 800576c:	d107      	bne.n	800577e <SPI_WaitFlagStateUntilTimeout.constprop.0+0x7a>
 800576e:	681a      	ldr	r2, [r3, #0]
 8005770:	f422 5200 	bic.w	r2, r2, #8192	@ 0x2000
 8005774:	601a      	str	r2, [r3, #0]
 8005776:	681a      	ldr	r2, [r3, #0]
 8005778:	f442 5200 	orr.w	r2, r2, #8192	@ 0x2000
 800577c:	601a      	str	r2, [r3, #0]
 800577e:	2301      	movs	r3, #1
 8005780:	f885 305d 	strb.w	r3, [r5, #93]	@ 0x5d
 8005784:	2300      	movs	r3, #0
 8005786:	f885 305c 	strb.w	r3, [r5, #92]	@ 0x5c
 800578a:	2003      	movs	r0, #3
 800578c:	b003      	add	sp, #12
 800578e:	bdf0      	pop	{r4, r5, r6, r7, pc}
 8005790:	9b01      	ldr	r3, [sp, #4]
 8005792:	b113      	cbz	r3, 800579a <SPI_WaitFlagStateUntilTimeout.constprop.0+0x96>
 8005794:	9b01      	ldr	r3, [sp, #4]
 8005796:	3b01      	subs	r3, #1
 8005798:	e7c4      	b.n	8005724 <SPI_WaitFlagStateUntilTimeout.constprop.0+0x20>
 800579a:	461c      	mov	r4, r3
 800579c:	e7c3      	b.n	8005726 <SPI_WaitFlagStateUntilTimeout.constprop.0+0x22>
 800579e:	bf00      	nop
 80057a0:	2000000c 	.word	0x2000000c

080057a4 <SPI_WaitFifoStateUntilTimeout.constprop.0>:
 80057a4:	e92d 43f7 	stmdb	sp!, {r0, r1, r2, r4, r5, r6, r7, r8, r9, lr}
 80057a8:	461d      	mov	r5, r3
 80057aa:	2300      	movs	r3, #0
 80057ac:	4617      	mov	r7, r2
 80057ae:	f88d 3003 	strb.w	r3, [sp, #3]
 80057b2:	4604      	mov	r4, r0
 80057b4:	460e      	mov	r6, r1
 80057b6:	f7fe ff25 	bl	8004604 <HAL_GetTick>
 80057ba:	443d      	add	r5, r7
 80057bc:	1a2d      	subs	r5, r5, r0
 80057be:	f7fe ff21 	bl	8004604 <HAL_GetTick>
 80057c2:	4b28      	ldr	r3, [pc, #160]	@ (8005864 <SPI_WaitFifoStateUntilTimeout.constprop.0+0xc0>)
 80057c4:	f8d4 9000 	ldr.w	r9, [r4]
 80057c8:	681b      	ldr	r3, [r3, #0]
 80057ca:	2223      	movs	r2, #35	@ 0x23
 80057cc:	4353      	muls	r3, r2
 80057ce:	0d1b      	lsrs	r3, r3, #20
 80057d0:	4680      	mov	r8, r0
 80057d2:	436b      	muls	r3, r5
 80057d4:	9301      	str	r3, [sp, #4]
 80057d6:	6822      	ldr	r2, [r4, #0]
 80057d8:	6890      	ldr	r0, [r2, #8]
 80057da:	4030      	ands	r0, r6
 80057dc:	d038      	beq.n	8005850 <SPI_WaitFifoStateUntilTimeout.constprop.0+0xac>
 80057de:	f5b6 6fc0 	cmp.w	r6, #1536	@ 0x600
 80057e2:	bf01      	itttt	eq
 80057e4:	f899 300c 	ldrbeq.w	r3, [r9, #12]
 80057e8:	b2db      	uxtbeq	r3, r3
 80057ea:	f88d 3003 	strbeq.w	r3, [sp, #3]
 80057ee:	f89d 3003 	ldrbeq.w	r3, [sp, #3]
 80057f2:	1c7b      	adds	r3, r7, #1
 80057f4:	d0f0      	beq.n	80057d8 <SPI_WaitFifoStateUntilTimeout.constprop.0+0x34>
 80057f6:	f7fe ff05 	bl	8004604 <HAL_GetTick>
 80057fa:	eba0 0008 	sub.w	r0, r0, r8
 80057fe:	42a8      	cmp	r0, r5
 8005800:	d329      	bcc.n	8005856 <SPI_WaitFifoStateUntilTimeout.constprop.0+0xb2>
 8005802:	6823      	ldr	r3, [r4, #0]
 8005804:	685a      	ldr	r2, [r3, #4]
 8005806:	f022 02e0 	bic.w	r2, r2, #224	@ 0xe0
 800580a:	605a      	str	r2, [r3, #4]
 800580c:	6862      	ldr	r2, [r4, #4]
 800580e:	f5b2 7f82 	cmp.w	r2, #260	@ 0x104
 8005812:	d10a      	bne.n	800582a <SPI_WaitFifoStateUntilTimeout.constprop.0+0x86>
 8005814:	68a2      	ldr	r2, [r4, #8]
 8005816:	f5b2 4f00 	cmp.w	r2, #32768	@ 0x8000
 800581a:	d002      	beq.n	8005822 <SPI_WaitFifoStateUntilTimeout.constprop.0+0x7e>
 800581c:	f5b2 6f80 	cmp.w	r2, #1024	@ 0x400
 8005820:	d103      	bne.n	800582a <SPI_WaitFifoStateUntilTimeout.constprop.0+0x86>
 8005822:	681a      	ldr	r2, [r3, #0]
 8005824:	f022 0240 	bic.w	r2, r2, #64	@ 0x40
 8005828:	601a      	str	r2, [r3, #0]
 800582a:	6aa2      	ldr	r2, [r4, #40]	@ 0x28
 800582c:	f5b2 5f00 	cmp.w	r2, #8192	@ 0x2000
 8005830:	d107      	bne.n	8005842 <SPI_WaitFifoStateUntilTimeout.constprop.0+0x9e>
 8005832:	681a      	ldr	r2, [r3, #0]
 8005834:	f422 5200 	bic.w	r2, r2, #8192	@ 0x2000
 8005838:	601a      	str	r2, [r3, #0]
 800583a:	681a      	ldr	r2, [r3, #0]
 800583c:	f442 5200 	orr.w	r2, r2, #8192	@ 0x2000
 8005840:	601a      	str	r2, [r3, #0]
 8005842:	2301      	movs	r3, #1
 8005844:	f884 305d 	strb.w	r3, [r4, #93]	@ 0x5d
 8005848:	2300      	movs	r3, #0
 800584a:	f884 305c 	strb.w	r3, [r4, #92]	@ 0x5c
 800584e:	2003      	movs	r0, #3
 8005850:	b003      	add	sp, #12
 8005852:	e8bd 83f0 	ldmia.w	sp!, {r4, r5, r6, r7, r8, r9, pc}
 8005856:	9b01      	ldr	r3, [sp, #4]
 8005858:	b113      	cbz	r3, 8005860 <SPI_WaitFifoStateUntilTimeout.constprop.0+0xbc>
 800585a:	9b01      	ldr	r3, [sp, #4]
 800585c:	3b01      	subs	r3, #1
 800585e:	e7b9      	b.n	80057d4 <SPI_WaitFifoStateUntilTimeout.constprop.0+0x30>
 8005860:	461d      	mov	r5, r3
 8005862:	e7b8      	b.n	80057d6 <SPI_WaitFifoStateUntilTimeout.constprop.0+0x32>
 8005864:	2000000c 	.word	0x2000000c

08005868 <SPI_EndRxTxTransaction>:
 8005868:	b570      	push	{r4, r5, r6, lr}
 800586a:	4613      	mov	r3, r2
 800586c:	460d      	mov	r5, r1
 800586e:	4616      	mov	r6, r2
 8005870:	460a      	mov	r2, r1
 8005872:	f44f 51c0 	mov.w	r1, #6144	@ 0x1800
 8005876:	4604      	mov	r4, r0
 8005878:	f7ff ff94 	bl	80057a4 <SPI_WaitFifoStateUntilTimeout.constprop.0>
 800587c:	b128      	cbz	r0, 800588a <SPI_EndRxTxTransaction+0x22>
 800587e:	6e23      	ldr	r3, [r4, #96]	@ 0x60
 8005880:	f043 0320 	orr.w	r3, r3, #32
 8005884:	6623      	str	r3, [r4, #96]	@ 0x60
 8005886:	2003      	movs	r0, #3
 8005888:	bd70      	pop	{r4, r5, r6, pc}
 800588a:	4632      	mov	r2, r6
 800588c:	4629      	mov	r1, r5
 800588e:	4620      	mov	r0, r4
 8005890:	f7ff ff38 	bl	8005704 <SPI_WaitFlagStateUntilTimeout.constprop.0>
 8005894:	2800      	cmp	r0, #0
 8005896:	d1f2      	bne.n	800587e <SPI_EndRxTxTransaction+0x16>
 8005898:	4633      	mov	r3, r6
 800589a:	462a      	mov	r2, r5
 800589c:	f44f 61c0 	mov.w	r1, #1536	@ 0x600
 80058a0:	4620      	mov	r0, r4
 80058a2:	f7ff ff7f 	bl	80057a4 <SPI_WaitFifoStateUntilTimeout.constprop.0>
 80058a6:	2800      	cmp	r0, #0
 80058a8:	d0ee      	beq.n	8005888 <SPI_EndRxTxTransaction+0x20>
 80058aa:	e7e8      	b.n	800587e <SPI_EndRxTxTransaction+0x16>

080058ac <HAL_SPI_Init>:
 80058ac:	b570      	push	{r4, r5, r6, lr}
 80058ae:	4604      	mov	r4, r0
 80058b0:	2800      	cmp	r0, #0
 80058b2:	d067      	beq.n	8005984 <HAL_SPI_Init+0xd8>
 80058b4:	6a43      	ldr	r3, [r0, #36]	@ 0x24
 80058b6:	2b00      	cmp	r3, #0
 80058b8:	d15d      	bne.n	8005976 <HAL_SPI_Init+0xca>
 80058ba:	6842      	ldr	r2, [r0, #4]
 80058bc:	f5b2 7f82 	cmp.w	r2, #260	@ 0x104
 80058c0:	d000      	beq.n	80058c4 <HAL_SPI_Init+0x18>
 80058c2:	61c3      	str	r3, [r0, #28]
 80058c4:	2300      	movs	r3, #0
 80058c6:	62a3      	str	r3, [r4, #40]	@ 0x28
 80058c8:	f894 305d 	ldrb.w	r3, [r4, #93]	@ 0x5d
 80058cc:	f003 02ff 	and.w	r2, r3, #255	@ 0xff
 80058d0:	b923      	cbnz	r3, 80058dc <HAL_SPI_Init+0x30>
 80058d2:	f884 205c 	strb.w	r2, [r4, #92]	@ 0x5c
 80058d6:	4620      	mov	r0, r4
 80058d8:	f7fe fcc8 	bl	800426c <HAL_SPI_MspInit>
 80058dc:	6822      	ldr	r2, [r4, #0]
 80058de:	68e0      	ldr	r0, [r4, #12]
 80058e0:	2302      	movs	r3, #2
 80058e2:	f884 305d 	strb.w	r3, [r4, #93]	@ 0x5d
 80058e6:	6813      	ldr	r3, [r2, #0]
 80058e8:	f5b0 6fe0 	cmp.w	r0, #1792	@ 0x700
 80058ec:	f023 0340 	bic.w	r3, r3, #64	@ 0x40
 80058f0:	6013      	str	r3, [r2, #0]
 80058f2:	f04f 0300 	mov.w	r3, #0
 80058f6:	d942      	bls.n	800597e <HAL_SPI_Init+0xd2>
 80058f8:	461d      	mov	r5, r3
 80058fa:	f5b0 6f70 	cmp.w	r0, #3840	@ 0xf00
 80058fe:	bf18      	it	ne
 8005900:	62a3      	strne	r3, [r4, #40]	@ 0x28
 8005902:	68a6      	ldr	r6, [r4, #8]
 8005904:	6863      	ldr	r3, [r4, #4]
 8005906:	69a1      	ldr	r1, [r4, #24]
 8005908:	f406 4604 	and.w	r6, r6, #33792	@ 0x8400
 800590c:	f403 7382 	and.w	r3, r3, #260	@ 0x104
 8005910:	4333      	orrs	r3, r6
 8005912:	6926      	ldr	r6, [r4, #16]
 8005914:	f006 0602 	and.w	r6, r6, #2
 8005918:	4333      	orrs	r3, r6
 800591a:	6966      	ldr	r6, [r4, #20]
 800591c:	f006 0601 	and.w	r6, r6, #1
 8005920:	4333      	orrs	r3, r6
 8005922:	f401 7600 	and.w	r6, r1, #512	@ 0x200
 8005926:	4333      	orrs	r3, r6
 8005928:	69e6      	ldr	r6, [r4, #28]
 800592a:	f006 0638 	and.w	r6, r6, #56	@ 0x38
 800592e:	4333      	orrs	r3, r6
 8005930:	6a26      	ldr	r6, [r4, #32]
 8005932:	f006 0680 	and.w	r6, r6, #128	@ 0x80
 8005936:	4333      	orrs	r3, r6
 8005938:	6aa6      	ldr	r6, [r4, #40]	@ 0x28
 800593a:	f406 5600 	and.w	r6, r6, #8192	@ 0x2000
 800593e:	4333      	orrs	r3, r6
 8005940:	6013      	str	r3, [r2, #0]
 8005942:	6b66      	ldr	r6, [r4, #52]	@ 0x34
 8005944:	6a63      	ldr	r3, [r4, #36]	@ 0x24
 8005946:	f006 0608 	and.w	r6, r6, #8
 800594a:	f003 0310 	and.w	r3, r3, #16
 800594e:	f400 6070 	and.w	r0, r0, #3840	@ 0xf00
 8005952:	4333      	orrs	r3, r6
 8005954:	0c09      	lsrs	r1, r1, #16
 8005956:	4303      	orrs	r3, r0
 8005958:	f001 0104 	and.w	r1, r1, #4
 800595c:	430b      	orrs	r3, r1
 800595e:	432b      	orrs	r3, r5
 8005960:	6053      	str	r3, [r2, #4]
 8005962:	69d3      	ldr	r3, [r2, #28]
 8005964:	f423 6300 	bic.w	r3, r3, #2048	@ 0x800
 8005968:	61d3      	str	r3, [r2, #28]
 800596a:	2000      	movs	r0, #0
 800596c:	2301      	movs	r3, #1
 800596e:	6620      	str	r0, [r4, #96]	@ 0x60
 8005970:	f884 305d 	strb.w	r3, [r4, #93]	@ 0x5d
 8005974:	bd70      	pop	{r4, r5, r6, pc}
 8005976:	2300      	movs	r3, #0
 8005978:	e9c0 3304 	strd	r3, r3, [r0, #16]
 800597c:	e7a2      	b.n	80058c4 <HAL_SPI_Init+0x18>
 800597e:	f44f 5580 	mov.w	r5, #4096	@ 0x1000
 8005982:	e7bc      	b.n	80058fe <HAL_SPI_Init+0x52>
 8005984:	2001      	movs	r0, #1
 8005986:	e7f5      	b.n	8005974 <HAL_SPI_Init+0xc8>

08005988 <HAL_SPI_Transmit>:
 8005988:	e92d 43f7 	stmdb	sp!, {r0, r1, r2, r4, r5, r6, r7, r8, r9, lr}
 800598c:	4604      	mov	r4, r0
 800598e:	461f      	mov	r7, r3
 8005990:	460d      	mov	r5, r1
 8005992:	4690      	mov	r8, r2
 8005994:	f7fe fe36 	bl	8004604 <HAL_GetTick>
 8005998:	f894 305d 	ldrb.w	r3, [r4, #93]	@ 0x5d
 800599c:	2b01      	cmp	r3, #1
 800599e:	4681      	mov	r9, r0
 80059a0:	b2d8      	uxtb	r0, r3
 80059a2:	f040 80b5 	bne.w	8005b10 <HAL_SPI_Transmit+0x188>
 80059a6:	2d00      	cmp	r5, #0
 80059a8:	d076      	beq.n	8005a98 <HAL_SPI_Transmit+0x110>
 80059aa:	f1b8 0f00 	cmp.w	r8, #0
 80059ae:	d073      	beq.n	8005a98 <HAL_SPI_Transmit+0x110>
 80059b0:	f894 305c 	ldrb.w	r3, [r4, #92]	@ 0x5c
 80059b4:	2b01      	cmp	r3, #1
 80059b6:	f000 80ab 	beq.w	8005b10 <HAL_SPI_Transmit+0x188>
 80059ba:	2303      	movs	r3, #3
 80059bc:	f884 305d 	strb.w	r3, [r4, #93]	@ 0x5d
 80059c0:	2300      	movs	r3, #0
 80059c2:	6623      	str	r3, [r4, #96]	@ 0x60
 80059c4:	e9c4 3313 	strd	r3, r3, [r4, #76]	@ 0x4c
 80059c8:	f8a4 803e 	strh.w	r8, [r4, #62]	@ 0x3e
 80059cc:	6423      	str	r3, [r4, #64]	@ 0x40
 80059ce:	f8a4 3044 	strh.w	r3, [r4, #68]	@ 0x44
 80059d2:	f8a4 3046 	strh.w	r3, [r4, #70]	@ 0x46
 80059d6:	68a3      	ldr	r3, [r4, #8]
 80059d8:	6826      	ldr	r6, [r4, #0]
 80059da:	f884 005c 	strb.w	r0, [r4, #92]	@ 0x5c
 80059de:	f5b3 4f00 	cmp.w	r3, #32768	@ 0x8000
 80059e2:	63a5      	str	r5, [r4, #56]	@ 0x38
 80059e4:	f8a4 803c 	strh.w	r8, [r4, #60]	@ 0x3c
 80059e8:	d107      	bne.n	80059fa <HAL_SPI_Transmit+0x72>
 80059ea:	6833      	ldr	r3, [r6, #0]
 80059ec:	f023 0340 	bic.w	r3, r3, #64	@ 0x40
 80059f0:	6033      	str	r3, [r6, #0]
 80059f2:	6833      	ldr	r3, [r6, #0]
 80059f4:	f443 4380 	orr.w	r3, r3, #16384	@ 0x4000
 80059f8:	6033      	str	r3, [r6, #0]
 80059fa:	6833      	ldr	r3, [r6, #0]
 80059fc:	68e2      	ldr	r2, [r4, #12]
 80059fe:	065b      	lsls	r3, r3, #25
 8005a00:	bf5e      	ittt	pl
 8005a02:	6833      	ldrpl	r3, [r6, #0]
 8005a04:	f043 0340 	orrpl.w	r3, r3, #64	@ 0x40
 8005a08:	6033      	strpl	r3, [r6, #0]
 8005a0a:	f5b2 6fe0 	cmp.w	r2, #1792	@ 0x700
 8005a0e:	6863      	ldr	r3, [r4, #4]
 8005a10:	d945      	bls.n	8005a9e <HAL_SPI_Transmit+0x116>
 8005a12:	b113      	cbz	r3, 8005a1a <HAL_SPI_Transmit+0x92>
 8005a14:	f1b8 0f01 	cmp.w	r8, #1
 8005a18:	d107      	bne.n	8005a2a <HAL_SPI_Transmit+0xa2>
 8005a1a:	f835 3b02 	ldrh.w	r3, [r5], #2
 8005a1e:	60f3      	str	r3, [r6, #12]
 8005a20:	63a5      	str	r5, [r4, #56]	@ 0x38
 8005a22:	8fe3      	ldrh	r3, [r4, #62]	@ 0x3e
 8005a24:	3b01      	subs	r3, #1
 8005a26:	b29b      	uxth	r3, r3
 8005a28:	87e3      	strh	r3, [r4, #62]	@ 0x3e
 8005a2a:	8fe3      	ldrh	r3, [r4, #62]	@ 0x3e
 8005a2c:	b29b      	uxth	r3, r3
 8005a2e:	b9d3      	cbnz	r3, 8005a66 <HAL_SPI_Transmit+0xde>
 8005a30:	464a      	mov	r2, r9
 8005a32:	4639      	mov	r1, r7
 8005a34:	4620      	mov	r0, r4
 8005a36:	f7ff ff17 	bl	8005868 <SPI_EndRxTxTransaction>
 8005a3a:	2800      	cmp	r0, #0
 8005a3c:	d165      	bne.n	8005b0a <HAL_SPI_Transmit+0x182>
 8005a3e:	68a3      	ldr	r3, [r4, #8]
 8005a40:	b933      	cbnz	r3, 8005a50 <HAL_SPI_Transmit+0xc8>
 8005a42:	9301      	str	r3, [sp, #4]
 8005a44:	6823      	ldr	r3, [r4, #0]
 8005a46:	68da      	ldr	r2, [r3, #12]
 8005a48:	9201      	str	r2, [sp, #4]
 8005a4a:	689b      	ldr	r3, [r3, #8]
 8005a4c:	9301      	str	r3, [sp, #4]
 8005a4e:	9b01      	ldr	r3, [sp, #4]
 8005a50:	2301      	movs	r3, #1
 8005a52:	f884 305d 	strb.w	r3, [r4, #93]	@ 0x5d
 8005a56:	6e20      	ldr	r0, [r4, #96]	@ 0x60
 8005a58:	2300      	movs	r3, #0
 8005a5a:	1ac0      	subs	r0, r0, r3
 8005a5c:	f884 305c 	strb.w	r3, [r4, #92]	@ 0x5c
 8005a60:	bf18      	it	ne
 8005a62:	2001      	movne	r0, #1
 8005a64:	e018      	b.n	8005a98 <HAL_SPI_Transmit+0x110>
 8005a66:	6822      	ldr	r2, [r4, #0]
 8005a68:	6893      	ldr	r3, [r2, #8]
 8005a6a:	079d      	lsls	r5, r3, #30
 8005a6c:	d505      	bpl.n	8005a7a <HAL_SPI_Transmit+0xf2>
 8005a6e:	6ba3      	ldr	r3, [r4, #56]	@ 0x38
 8005a70:	f833 1b02 	ldrh.w	r1, [r3], #2
 8005a74:	60d1      	str	r1, [r2, #12]
 8005a76:	63a3      	str	r3, [r4, #56]	@ 0x38
 8005a78:	e7d3      	b.n	8005a22 <HAL_SPI_Transmit+0x9a>
 8005a7a:	f7fe fdc3 	bl	8004604 <HAL_GetTick>
 8005a7e:	eba0 0009 	sub.w	r0, r0, r9
 8005a82:	42b8      	cmp	r0, r7
 8005a84:	d3d1      	bcc.n	8005a2a <HAL_SPI_Transmit+0xa2>
 8005a86:	1c78      	adds	r0, r7, #1
 8005a88:	d0cf      	beq.n	8005a2a <HAL_SPI_Transmit+0xa2>
 8005a8a:	2301      	movs	r3, #1
 8005a8c:	f884 305d 	strb.w	r3, [r4, #93]	@ 0x5d
 8005a90:	2300      	movs	r3, #0
 8005a92:	f884 305c 	strb.w	r3, [r4, #92]	@ 0x5c
 8005a96:	2003      	movs	r0, #3
 8005a98:	b003      	add	sp, #12
 8005a9a:	e8bd 83f0 	ldmia.w	sp!, {r4, r5, r6, r7, r8, r9, pc}
 8005a9e:	b113      	cbz	r3, 8005aa6 <HAL_SPI_Transmit+0x11e>
 8005aa0:	f1b8 0f01 	cmp.w	r8, #1
 8005aa4:	d113      	bne.n	8005ace <HAL_SPI_Transmit+0x146>
 8005aa6:	8fe3      	ldrh	r3, [r4, #62]	@ 0x3e
 8005aa8:	b29b      	uxth	r3, r3
 8005aaa:	2b01      	cmp	r3, #1
 8005aac:	d906      	bls.n	8005abc <HAL_SPI_Transmit+0x134>
 8005aae:	f835 3b02 	ldrh.w	r3, [r5], #2
 8005ab2:	60f3      	str	r3, [r6, #12]
 8005ab4:	63a5      	str	r5, [r4, #56]	@ 0x38
 8005ab6:	8fe3      	ldrh	r3, [r4, #62]	@ 0x3e
 8005ab8:	3b02      	subs	r3, #2
 8005aba:	e006      	b.n	8005aca <HAL_SPI_Transmit+0x142>
 8005abc:	782b      	ldrb	r3, [r5, #0]
 8005abe:	7333      	strb	r3, [r6, #12]
 8005ac0:	6ba3      	ldr	r3, [r4, #56]	@ 0x38
 8005ac2:	3301      	adds	r3, #1
 8005ac4:	63a3      	str	r3, [r4, #56]	@ 0x38
 8005ac6:	8fe3      	ldrh	r3, [r4, #62]	@ 0x3e
 8005ac8:	3b01      	subs	r3, #1
 8005aca:	b29b      	uxth	r3, r3
 8005acc:	87e3      	strh	r3, [r4, #62]	@ 0x3e
 8005ace:	8fe3      	ldrh	r3, [r4, #62]	@ 0x3e
 8005ad0:	b29b      	uxth	r3, r3
 8005ad2:	2b00      	cmp	r3, #0
 8005ad4:	d0ac      	beq.n	8005a30 <HAL_SPI_Transmit+0xa8>
 8005ad6:	6822      	ldr	r2, [r4, #0]
 8005ad8:	6893      	ldr	r3, [r2, #8]
 8005ada:	0799      	lsls	r1, r3, #30
 8005adc:	d50c      	bpl.n	8005af8 <HAL_SPI_Transmit+0x170>
 8005ade:	8fe1      	ldrh	r1, [r4, #62]	@ 0x3e
 8005ae0:	6ba3      	ldr	r3, [r4, #56]	@ 0x38
 8005ae2:	b289      	uxth	r1, r1
 8005ae4:	2901      	cmp	r1, #1
 8005ae6:	d904      	bls.n	8005af2 <HAL_SPI_Transmit+0x16a>
 8005ae8:	f833 1b02 	ldrh.w	r1, [r3], #2
 8005aec:	60d1      	str	r1, [r2, #12]
 8005aee:	63a3      	str	r3, [r4, #56]	@ 0x38
 8005af0:	e7e1      	b.n	8005ab6 <HAL_SPI_Transmit+0x12e>
 8005af2:	781b      	ldrb	r3, [r3, #0]
 8005af4:	7313      	strb	r3, [r2, #12]
 8005af6:	e7e3      	b.n	8005ac0 <HAL_SPI_Transmit+0x138>
 8005af8:	f7fe fd84 	bl	8004604 <HAL_GetTick>
 8005afc:	eba0 0009 	sub.w	r0, r0, r9
 8005b00:	42b8      	cmp	r0, r7
 8005b02:	d3e4      	bcc.n	8005ace <HAL_SPI_Transmit+0x146>
 8005b04:	1c7b      	adds	r3, r7, #1
 8005b06:	d0e2      	beq.n	8005ace <HAL_SPI_Transmit+0x146>
 8005b08:	e7bf      	b.n	8005a8a <HAL_SPI_Transmit+0x102>
 8005b0a:	2320      	movs	r3, #32
 8005b0c:	6623      	str	r3, [r4, #96]	@ 0x60
 8005b0e:	e796      	b.n	8005a3e <HAL_SPI_Transmit+0xb6>
 8005b10:	2002      	movs	r0, #2
 8005b12:	e7c1      	b.n	8005a98 <HAL_SPI_Transmit+0x110>

08005b14 <HAL_SPI_TransmitReceive>:
 8005b14:	e92d 43f8 	stmdb	sp!, {r3, r4, r5, r6, r7, r8, r9, lr}
 8005b18:	4604      	mov	r4, r0
 8005b1a:	460d      	mov	r5, r1
 8005b1c:	4691      	mov	r9, r2
 8005b1e:	461e      	mov	r6, r3
 8005b20:	9f08      	ldr	r7, [sp, #32]
 8005b22:	f7fe fd6f 	bl	8004604 <HAL_GetTick>
 8005b26:	f894 205d 	ldrb.w	r2, [r4, #93]	@ 0x5d
 8005b2a:	6863      	ldr	r3, [r4, #4]
 8005b2c:	2a01      	cmp	r2, #1
 8005b2e:	4680      	mov	r8, r0
 8005b30:	b2d1      	uxtb	r1, r2
 8005b32:	d00a      	beq.n	8005b4a <HAL_SPI_TransmitReceive+0x36>
 8005b34:	f5b3 7f82 	cmp.w	r3, #260	@ 0x104
 8005b38:	f040 811d 	bne.w	8005d76 <HAL_SPI_TransmitReceive+0x262>
 8005b3c:	68a2      	ldr	r2, [r4, #8]
 8005b3e:	2a00      	cmp	r2, #0
 8005b40:	f040 8119 	bne.w	8005d76 <HAL_SPI_TransmitReceive+0x262>
 8005b44:	2904      	cmp	r1, #4
 8005b46:	f040 8116 	bne.w	8005d76 <HAL_SPI_TransmitReceive+0x262>
 8005b4a:	2d00      	cmp	r5, #0
 8005b4c:	d055      	beq.n	8005bfa <HAL_SPI_TransmitReceive+0xe6>
 8005b4e:	f1b9 0f00 	cmp.w	r9, #0
 8005b52:	d052      	beq.n	8005bfa <HAL_SPI_TransmitReceive+0xe6>
 8005b54:	2e00      	cmp	r6, #0
 8005b56:	d050      	beq.n	8005bfa <HAL_SPI_TransmitReceive+0xe6>
 8005b58:	f894 205c 	ldrb.w	r2, [r4, #92]	@ 0x5c
 8005b5c:	2a01      	cmp	r2, #1
 8005b5e:	f000 810a 	beq.w	8005d76 <HAL_SPI_TransmitReceive+0x262>
 8005b62:	2201      	movs	r2, #1
 8005b64:	f884 205c 	strb.w	r2, [r4, #92]	@ 0x5c
 8005b68:	f894 205d 	ldrb.w	r2, [r4, #93]	@ 0x5d
 8005b6c:	68e0      	ldr	r0, [r4, #12]
 8005b6e:	6821      	ldr	r1, [r4, #0]
 8005b70:	f8c4 9040 	str.w	r9, [r4, #64]	@ 0x40
 8005b74:	2a04      	cmp	r2, #4
 8005b76:	bf1c      	itt	ne
 8005b78:	2205      	movne	r2, #5
 8005b7a:	f884 205d 	strbne.w	r2, [r4, #93]	@ 0x5d
 8005b7e:	2200      	movs	r2, #0
 8005b80:	6622      	str	r2, [r4, #96]	@ 0x60
 8005b82:	f5b0 6fe0 	cmp.w	r0, #1792	@ 0x700
 8005b86:	f8a4 6046 	strh.w	r6, [r4, #70]	@ 0x46
 8005b8a:	87e6      	strh	r6, [r4, #62]	@ 0x3e
 8005b8c:	e9c4 2213 	strd	r2, r2, [r4, #76]	@ 0x4c
 8005b90:	f8a4 6044 	strh.w	r6, [r4, #68]	@ 0x44
 8005b94:	684a      	ldr	r2, [r1, #4]
 8005b96:	63a5      	str	r5, [r4, #56]	@ 0x38
 8005b98:	87a6      	strh	r6, [r4, #60]	@ 0x3c
 8005b9a:	d801      	bhi.n	8005ba0 <HAL_SPI_TransmitReceive+0x8c>
 8005b9c:	2e01      	cmp	r6, #1
 8005b9e:	d02e      	beq.n	8005bfe <HAL_SPI_TransmitReceive+0xea>
 8005ba0:	f422 5280 	bic.w	r2, r2, #4096	@ 0x1000
 8005ba4:	604a      	str	r2, [r1, #4]
 8005ba6:	680a      	ldr	r2, [r1, #0]
 8005ba8:	0652      	lsls	r2, r2, #25
 8005baa:	bf5e      	ittt	pl
 8005bac:	680a      	ldrpl	r2, [r1, #0]
 8005bae:	f042 0240 	orrpl.w	r2, r2, #64	@ 0x40
 8005bb2:	600a      	strpl	r2, [r1, #0]
 8005bb4:	f5b0 6fe0 	cmp.w	r0, #1792	@ 0x700
 8005bb8:	d95b      	bls.n	8005c72 <HAL_SPI_TransmitReceive+0x15e>
 8005bba:	b10b      	cbz	r3, 8005bc0 <HAL_SPI_TransmitReceive+0xac>
 8005bbc:	2e01      	cmp	r6, #1
 8005bbe:	d107      	bne.n	8005bd0 <HAL_SPI_TransmitReceive+0xbc>
 8005bc0:	f835 3b02 	ldrh.w	r3, [r5], #2
 8005bc4:	60cb      	str	r3, [r1, #12]
 8005bc6:	8fe3      	ldrh	r3, [r4, #62]	@ 0x3e
 8005bc8:	63a5      	str	r5, [r4, #56]	@ 0x38
 8005bca:	3b01      	subs	r3, #1
 8005bcc:	b29b      	uxth	r3, r3
 8005bce:	87e3      	strh	r3, [r4, #62]	@ 0x3e
 8005bd0:	2501      	movs	r5, #1
 8005bd2:	8fe3      	ldrh	r3, [r4, #62]	@ 0x3e
 8005bd4:	b29b      	uxth	r3, r3
 8005bd6:	b9ab      	cbnz	r3, 8005c04 <HAL_SPI_TransmitReceive+0xf0>
 8005bd8:	f8b4 3046 	ldrh.w	r3, [r4, #70]	@ 0x46
 8005bdc:	b29b      	uxth	r3, r3
 8005bde:	b98b      	cbnz	r3, 8005c04 <HAL_SPI_TransmitReceive+0xf0>
 8005be0:	4642      	mov	r2, r8
 8005be2:	4639      	mov	r1, r7
 8005be4:	4620      	mov	r0, r4
 8005be6:	f7ff fe3f 	bl	8005868 <SPI_EndRxTxTransaction>
 8005bea:	2800      	cmp	r0, #0
 8005bec:	f000 80b9 	beq.w	8005d62 <HAL_SPI_TransmitReceive+0x24e>
 8005bf0:	2320      	movs	r3, #32
 8005bf2:	6623      	str	r3, [r4, #96]	@ 0x60
 8005bf4:	2300      	movs	r3, #0
 8005bf6:	f884 305c 	strb.w	r3, [r4, #92]	@ 0x5c
 8005bfa:	2001      	movs	r0, #1
 8005bfc:	e037      	b.n	8005c6e <HAL_SPI_TransmitReceive+0x15a>
 8005bfe:	f442 5280 	orr.w	r2, r2, #4096	@ 0x1000
 8005c02:	e7cf      	b.n	8005ba4 <HAL_SPI_TransmitReceive+0x90>
 8005c04:	6821      	ldr	r1, [r4, #0]
 8005c06:	688b      	ldr	r3, [r1, #8]
 8005c08:	079e      	lsls	r6, r3, #30
 8005c0a:	d50d      	bpl.n	8005c28 <HAL_SPI_TransmitReceive+0x114>
 8005c0c:	8fe3      	ldrh	r3, [r4, #62]	@ 0x3e
 8005c0e:	b29b      	uxth	r3, r3
 8005c10:	b153      	cbz	r3, 8005c28 <HAL_SPI_TransmitReceive+0x114>
 8005c12:	b145      	cbz	r5, 8005c26 <HAL_SPI_TransmitReceive+0x112>
 8005c14:	6ba3      	ldr	r3, [r4, #56]	@ 0x38
 8005c16:	f833 2b02 	ldrh.w	r2, [r3], #2
 8005c1a:	60ca      	str	r2, [r1, #12]
 8005c1c:	63a3      	str	r3, [r4, #56]	@ 0x38
 8005c1e:	8fe3      	ldrh	r3, [r4, #62]	@ 0x3e
 8005c20:	3b01      	subs	r3, #1
 8005c22:	b29b      	uxth	r3, r3
 8005c24:	87e3      	strh	r3, [r4, #62]	@ 0x3e
 8005c26:	2500      	movs	r5, #0
 8005c28:	688a      	ldr	r2, [r1, #8]
 8005c2a:	f012 0201 	ands.w	r2, r2, #1
 8005c2e:	d00f      	beq.n	8005c50 <HAL_SPI_TransmitReceive+0x13c>
 8005c30:	f8b4 3046 	ldrh.w	r3, [r4, #70]	@ 0x46
 8005c34:	b29b      	uxth	r3, r3
 8005c36:	b15b      	cbz	r3, 8005c50 <HAL_SPI_TransmitReceive+0x13c>
 8005c38:	6c23      	ldr	r3, [r4, #64]	@ 0x40
 8005c3a:	68c9      	ldr	r1, [r1, #12]
 8005c3c:	f823 1b02 	strh.w	r1, [r3], #2
 8005c40:	6423      	str	r3, [r4, #64]	@ 0x40
 8005c42:	f8b4 3046 	ldrh.w	r3, [r4, #70]	@ 0x46
 8005c46:	3b01      	subs	r3, #1
 8005c48:	b29b      	uxth	r3, r3
 8005c4a:	f8a4 3046 	strh.w	r3, [r4, #70]	@ 0x46
 8005c4e:	4615      	mov	r5, r2
 8005c50:	f7fe fcd8 	bl	8004604 <HAL_GetTick>
 8005c54:	eba0 0008 	sub.w	r0, r0, r8
 8005c58:	42b8      	cmp	r0, r7
 8005c5a:	d3ba      	bcc.n	8005bd2 <HAL_SPI_TransmitReceive+0xbe>
 8005c5c:	1c78      	adds	r0, r7, #1
 8005c5e:	d0b8      	beq.n	8005bd2 <HAL_SPI_TransmitReceive+0xbe>
 8005c60:	2301      	movs	r3, #1
 8005c62:	f884 305d 	strb.w	r3, [r4, #93]	@ 0x5d
 8005c66:	2300      	movs	r3, #0
 8005c68:	f884 305c 	strb.w	r3, [r4, #92]	@ 0x5c
 8005c6c:	2003      	movs	r0, #3
 8005c6e:	e8bd 83f8 	ldmia.w	sp!, {r3, r4, r5, r6, r7, r8, r9, pc}
 8005c72:	b10b      	cbz	r3, 8005c78 <HAL_SPI_TransmitReceive+0x164>
 8005c74:	2e01      	cmp	r6, #1
 8005c76:	d10b      	bne.n	8005c90 <HAL_SPI_TransmitReceive+0x17c>
 8005c78:	8fe3      	ldrh	r3, [r4, #62]	@ 0x3e
 8005c7a:	b29b      	uxth	r3, r3
 8005c7c:	2b01      	cmp	r3, #1
 8005c7e:	d909      	bls.n	8005c94 <HAL_SPI_TransmitReceive+0x180>
 8005c80:	f835 3b02 	ldrh.w	r3, [r5], #2
 8005c84:	60cb      	str	r3, [r1, #12]
 8005c86:	8fe3      	ldrh	r3, [r4, #62]	@ 0x3e
 8005c88:	63a5      	str	r5, [r4, #56]	@ 0x38
 8005c8a:	3b02      	subs	r3, #2
 8005c8c:	b29b      	uxth	r3, r3
 8005c8e:	87e3      	strh	r3, [r4, #62]	@ 0x3e
 8005c90:	2501      	movs	r5, #1
 8005c92:	e048      	b.n	8005d26 <HAL_SPI_TransmitReceive+0x212>
 8005c94:	782b      	ldrb	r3, [r5, #0]
 8005c96:	730b      	strb	r3, [r1, #12]
 8005c98:	6ba3      	ldr	r3, [r4, #56]	@ 0x38
 8005c9a:	3301      	adds	r3, #1
 8005c9c:	63a3      	str	r3, [r4, #56]	@ 0x38
 8005c9e:	8fe3      	ldrh	r3, [r4, #62]	@ 0x3e
 8005ca0:	3b01      	subs	r3, #1
 8005ca2:	e7f3      	b.n	8005c8c <HAL_SPI_TransmitReceive+0x178>
 8005ca4:	6822      	ldr	r2, [r4, #0]
 8005ca6:	6893      	ldr	r3, [r2, #8]
 8005ca8:	0799      	lsls	r1, r3, #30
 8005caa:	d511      	bpl.n	8005cd0 <HAL_SPI_TransmitReceive+0x1bc>
 8005cac:	8fe3      	ldrh	r3, [r4, #62]	@ 0x3e
 8005cae:	b29b      	uxth	r3, r3
 8005cb0:	b173      	cbz	r3, 8005cd0 <HAL_SPI_TransmitReceive+0x1bc>
 8005cb2:	b165      	cbz	r5, 8005cce <HAL_SPI_TransmitReceive+0x1ba>
 8005cb4:	8fe1      	ldrh	r1, [r4, #62]	@ 0x3e
 8005cb6:	6ba3      	ldr	r3, [r4, #56]	@ 0x38
 8005cb8:	b289      	uxth	r1, r1
 8005cba:	2901      	cmp	r1, #1
 8005cbc:	d93d      	bls.n	8005d3a <HAL_SPI_TransmitReceive+0x226>
 8005cbe:	f833 1b02 	ldrh.w	r1, [r3], #2
 8005cc2:	60d1      	str	r1, [r2, #12]
 8005cc4:	63a3      	str	r3, [r4, #56]	@ 0x38
 8005cc6:	8fe3      	ldrh	r3, [r4, #62]	@ 0x3e
 8005cc8:	3b02      	subs	r3, #2
 8005cca:	b29b      	uxth	r3, r3
 8005ccc:	87e3      	strh	r3, [r4, #62]	@ 0x3e
 8005cce:	2500      	movs	r5, #0
 8005cd0:	6822      	ldr	r2, [r4, #0]
 8005cd2:	6891      	ldr	r1, [r2, #8]
 8005cd4:	f011 0101 	ands.w	r1, r1, #1
 8005cd8:	d01d      	beq.n	8005d16 <HAL_SPI_TransmitReceive+0x202>
 8005cda:	f8b4 3046 	ldrh.w	r3, [r4, #70]	@ 0x46
 8005cde:	b29b      	uxth	r3, r3
 8005ce0:	b1cb      	cbz	r3, 8005d16 <HAL_SPI_TransmitReceive+0x202>
 8005ce2:	f8b4 0046 	ldrh.w	r0, [r4, #70]	@ 0x46
 8005ce6:	6c23      	ldr	r3, [r4, #64]	@ 0x40
 8005ce8:	b280      	uxth	r0, r0
 8005cea:	2801      	cmp	r0, #1
 8005cec:	d92d      	bls.n	8005d4a <HAL_SPI_TransmitReceive+0x236>
 8005cee:	68d0      	ldr	r0, [r2, #12]
 8005cf0:	f823 0b02 	strh.w	r0, [r3], #2
 8005cf4:	6423      	str	r3, [r4, #64]	@ 0x40
 8005cf6:	f8b4 3046 	ldrh.w	r3, [r4, #70]	@ 0x46
 8005cfa:	3b02      	subs	r3, #2
 8005cfc:	b29b      	uxth	r3, r3
 8005cfe:	f8a4 3046 	strh.w	r3, [r4, #70]	@ 0x46
 8005d02:	f8b4 3046 	ldrh.w	r3, [r4, #70]	@ 0x46
 8005d06:	b29b      	uxth	r3, r3
 8005d08:	2b01      	cmp	r3, #1
 8005d0a:	bf9e      	ittt	ls
 8005d0c:	6853      	ldrls	r3, [r2, #4]
 8005d0e:	f443 5380 	orrls.w	r3, r3, #4096	@ 0x1000
 8005d12:	6053      	strls	r3, [r2, #4]
 8005d14:	460d      	mov	r5, r1
 8005d16:	f7fe fc75 	bl	8004604 <HAL_GetTick>
 8005d1a:	eba0 0008 	sub.w	r0, r0, r8
 8005d1e:	42b8      	cmp	r0, r7
 8005d20:	d301      	bcc.n	8005d26 <HAL_SPI_TransmitReceive+0x212>
 8005d22:	1c7b      	adds	r3, r7, #1
 8005d24:	d19c      	bne.n	8005c60 <HAL_SPI_TransmitReceive+0x14c>
 8005d26:	8fe3      	ldrh	r3, [r4, #62]	@ 0x3e
 8005d28:	b29b      	uxth	r3, r3
 8005d2a:	2b00      	cmp	r3, #0
 8005d2c:	d1ba      	bne.n	8005ca4 <HAL_SPI_TransmitReceive+0x190>
 8005d2e:	f8b4 3046 	ldrh.w	r3, [r4, #70]	@ 0x46
 8005d32:	b29b      	uxth	r3, r3
 8005d34:	2b00      	cmp	r3, #0
 8005d36:	d1b5      	bne.n	8005ca4 <HAL_SPI_TransmitReceive+0x190>
 8005d38:	e752      	b.n	8005be0 <HAL_SPI_TransmitReceive+0xcc>
 8005d3a:	781b      	ldrb	r3, [r3, #0]
 8005d3c:	7313      	strb	r3, [r2, #12]
 8005d3e:	6ba3      	ldr	r3, [r4, #56]	@ 0x38
 8005d40:	3301      	adds	r3, #1
 8005d42:	63a3      	str	r3, [r4, #56]	@ 0x38
 8005d44:	8fe3      	ldrh	r3, [r4, #62]	@ 0x3e
 8005d46:	3b01      	subs	r3, #1
 8005d48:	e7bf      	b.n	8005cca <HAL_SPI_TransmitReceive+0x1b6>
 8005d4a:	7b12      	ldrb	r2, [r2, #12]
 8005d4c:	701a      	strb	r2, [r3, #0]
 8005d4e:	6c23      	ldr	r3, [r4, #64]	@ 0x40
 8005d50:	3301      	adds	r3, #1
 8005d52:	6423      	str	r3, [r4, #64]	@ 0x40
 8005d54:	f8b4 3046 	ldrh.w	r3, [r4, #70]	@ 0x46
 8005d58:	3b01      	subs	r3, #1
 8005d5a:	b29b      	uxth	r3, r3
 8005d5c:	f8a4 3046 	strh.w	r3, [r4, #70]	@ 0x46
 8005d60:	e7d8      	b.n	8005d14 <HAL_SPI_TransmitReceive+0x200>
 8005d62:	2301      	movs	r3, #1
 8005d64:	f884 305d 	strb.w	r3, [r4, #93]	@ 0x5d
 8005d68:	f884 005c 	strb.w	r0, [r4, #92]	@ 0x5c
 8005d6c:	6e20      	ldr	r0, [r4, #96]	@ 0x60
 8005d6e:	3800      	subs	r0, #0
 8005d70:	bf18      	it	ne
 8005d72:	2001      	movne	r0, #1
 8005d74:	e77b      	b.n	8005c6e <HAL_SPI_TransmitReceive+0x15a>
 8005d76:	2002      	movs	r0, #2
 8005d78:	e779      	b.n	8005c6e <HAL_SPI_TransmitReceive+0x15a>
	...

08005d7c <UART_EndRxTransfer>:
 8005d7c:	b510      	push	{r4, lr}
 8005d7e:	6802      	ldr	r2, [r0, #0]
 8005d80:	e852 3f00 	ldrex	r3, [r2]
 8005d84:	f423 7390 	bic.w	r3, r3, #288	@ 0x120
 8005d88:	e842 3100 	strex	r1, r3, [r2]
 8005d8c:	6802      	ldr	r2, [r0, #0]
 8005d8e:	2900      	cmp	r1, #0
 8005d90:	d1f5      	bne.n	8005d7e <UART_EndRxTransfer+0x2>
 8005d92:	4c0f      	ldr	r4, [pc, #60]	@ (8005dd0 <UART_EndRxTransfer+0x54>)
 8005d94:	f102 0308 	add.w	r3, r2, #8
 8005d98:	e853 3f00 	ldrex	r3, [r3]
 8005d9c:	4023      	ands	r3, r4
 8005d9e:	f102 0c08 	add.w	ip, r2, #8
 8005da2:	e84c 3100 	strex	r1, r3, [ip]
 8005da6:	2900      	cmp	r1, #0
 8005da8:	d1f4      	bne.n	8005d94 <UART_EndRxTransfer+0x18>
 8005daa:	6ec3      	ldr	r3, [r0, #108]	@ 0x6c
 8005dac:	2b01      	cmp	r3, #1
 8005dae:	d107      	bne.n	8005dc0 <UART_EndRxTransfer+0x44>
 8005db0:	e852 3f00 	ldrex	r3, [r2]
 8005db4:	f023 0310 	bic.w	r3, r3, #16
 8005db8:	e842 3100 	strex	r1, r3, [r2]
 8005dbc:	2900      	cmp	r1, #0
 8005dbe:	d1f7      	bne.n	8005db0 <UART_EndRxTransfer+0x34>
 8005dc0:	2320      	movs	r3, #32
 8005dc2:	f8c0 308c 	str.w	r3, [r0, #140]	@ 0x8c
 8005dc6:	2300      	movs	r3, #0
 8005dc8:	66c3      	str	r3, [r0, #108]	@ 0x6c
 8005dca:	6743      	str	r3, [r0, #116]	@ 0x74
 8005dcc:	bd10      	pop	{r4, pc}
 8005dce:	bf00      	nop
 8005dd0:	effffffe 	.word	0xeffffffe

08005dd4 <HAL_UART_TxCpltCallback>:
 8005dd4:	4770      	bx	lr

08005dd6 <UART_DMAAbortOnError>:
 8005dd6:	b508      	push	{r3, lr}
 8005dd8:	6a80      	ldr	r0, [r0, #40]	@ 0x28
 8005dda:	f7fb ffd9 	bl	8001d90 <HAL_UART_ErrorCallback>
 8005dde:	bd08      	pop	{r3, pc}

08005de0 <HAL_UARTEx_RxEventCallback>:
 8005de0:	4770      	bx	lr
	...

08005de4 <HAL_UART_IRQHandler>:
 8005de4:	6803      	ldr	r3, [r0, #0]
 8005de6:	69d9      	ldr	r1, [r3, #28]
 8005de8:	681a      	ldr	r2, [r3, #0]
 8005dea:	e92d 41f0 	stmdb	sp!, {r4, r5, r6, r7, r8, lr}
 8005dee:	f640 060f 	movw	r6, #2063	@ 0x80f
 8005df2:	4231      	tst	r1, r6
 8005df4:	689d      	ldr	r5, [r3, #8]
 8005df6:	4604      	mov	r4, r0
 8005df8:	d110      	bne.n	8005e1c <HAL_UART_IRQHandler+0x38>
 8005dfa:	068e      	lsls	r6, r1, #26
 8005dfc:	f140 8097 	bpl.w	8005f2e <HAL_UART_IRQHandler+0x14a>
 8005e00:	f002 0620 	and.w	r6, r2, #32
 8005e04:	f005 5780 	and.w	r7, r5, #268435456	@ 0x10000000
 8005e08:	433e      	orrs	r6, r7
 8005e0a:	f000 8090 	beq.w	8005f2e <HAL_UART_IRQHandler+0x14a>
 8005e0e:	6f43      	ldr	r3, [r0, #116]	@ 0x74
 8005e10:	2b00      	cmp	r3, #0
 8005e12:	f000 8085 	beq.w	8005f20 <HAL_UART_IRQHandler+0x13c>
 8005e16:	e8bd 41f0 	ldmia.w	sp!, {r4, r5, r6, r7, r8, lr}
 8005e1a:	4718      	bx	r3
 8005e1c:	4ea8      	ldr	r6, [pc, #672]	@ (80060c0 <HAL_UART_IRQHandler+0x2dc>)
 8005e1e:	48a9      	ldr	r0, [pc, #676]	@ (80060c4 <HAL_UART_IRQHandler+0x2e0>)
 8005e20:	402e      	ands	r6, r5
 8005e22:	4010      	ands	r0, r2
 8005e24:	4330      	orrs	r0, r6
 8005e26:	f000 8082 	beq.w	8005f2e <HAL_UART_IRQHandler+0x14a>
 8005e2a:	07cf      	lsls	r7, r1, #31
 8005e2c:	d509      	bpl.n	8005e42 <HAL_UART_IRQHandler+0x5e>
 8005e2e:	05d0      	lsls	r0, r2, #23
 8005e30:	d507      	bpl.n	8005e42 <HAL_UART_IRQHandler+0x5e>
 8005e32:	2001      	movs	r0, #1
 8005e34:	6218      	str	r0, [r3, #32]
 8005e36:	f8d4 0090 	ldr.w	r0, [r4, #144]	@ 0x90
 8005e3a:	f040 0001 	orr.w	r0, r0, #1
 8005e3e:	f8c4 0090 	str.w	r0, [r4, #144]	@ 0x90
 8005e42:	078f      	lsls	r7, r1, #30
 8005e44:	d509      	bpl.n	8005e5a <HAL_UART_IRQHandler+0x76>
 8005e46:	07e8      	lsls	r0, r5, #31
 8005e48:	d507      	bpl.n	8005e5a <HAL_UART_IRQHandler+0x76>
 8005e4a:	2002      	movs	r0, #2
 8005e4c:	6218      	str	r0, [r3, #32]
 8005e4e:	f8d4 0090 	ldr.w	r0, [r4, #144]	@ 0x90
 8005e52:	f040 0004 	orr.w	r0, r0, #4
 8005e56:	f8c4 0090 	str.w	r0, [r4, #144]	@ 0x90
 8005e5a:	074f      	lsls	r7, r1, #29
 8005e5c:	d509      	bpl.n	8005e72 <HAL_UART_IRQHandler+0x8e>
 8005e5e:	07e8      	lsls	r0, r5, #31
 8005e60:	d507      	bpl.n	8005e72 <HAL_UART_IRQHandler+0x8e>
 8005e62:	2004      	movs	r0, #4
 8005e64:	6218      	str	r0, [r3, #32]
 8005e66:	f8d4 0090 	ldr.w	r0, [r4, #144]	@ 0x90
 8005e6a:	f040 0002 	orr.w	r0, r0, #2
 8005e6e:	f8c4 0090 	str.w	r0, [r4, #144]	@ 0x90
 8005e72:	070f      	lsls	r7, r1, #28
 8005e74:	d50b      	bpl.n	8005e8e <HAL_UART_IRQHandler+0xaa>
 8005e76:	f002 0020 	and.w	r0, r2, #32
 8005e7a:	4330      	orrs	r0, r6
 8005e7c:	d007      	beq.n	8005e8e <HAL_UART_IRQHandler+0xaa>
 8005e7e:	2008      	movs	r0, #8
 8005e80:	6218      	str	r0, [r3, #32]
 8005e82:	f8d4 0090 	ldr.w	r0, [r4, #144]	@ 0x90
 8005e86:	f040 0008 	orr.w	r0, r0, #8
 8005e8a:	f8c4 0090 	str.w	r0, [r4, #144]	@ 0x90
 8005e8e:	050e      	lsls	r6, r1, #20
 8005e90:	d50a      	bpl.n	8005ea8 <HAL_UART_IRQHandler+0xc4>
 8005e92:	0150      	lsls	r0, r2, #5
 8005e94:	d508      	bpl.n	8005ea8 <HAL_UART_IRQHandler+0xc4>
 8005e96:	f44f 6000 	mov.w	r0, #2048	@ 0x800
 8005e9a:	6218      	str	r0, [r3, #32]
 8005e9c:	f8d4 3090 	ldr.w	r3, [r4, #144]	@ 0x90
 8005ea0:	f043 0320 	orr.w	r3, r3, #32
 8005ea4:	f8c4 3090 	str.w	r3, [r4, #144]	@ 0x90
 8005ea8:	f8d4 3090 	ldr.w	r3, [r4, #144]	@ 0x90
 8005eac:	2b00      	cmp	r3, #0
 8005eae:	d037      	beq.n	8005f20 <HAL_UART_IRQHandler+0x13c>
 8005eb0:	068b      	lsls	r3, r1, #26
 8005eb2:	d509      	bpl.n	8005ec8 <HAL_UART_IRQHandler+0xe4>
 8005eb4:	f002 0220 	and.w	r2, r2, #32
 8005eb8:	f005 5580 	and.w	r5, r5, #268435456	@ 0x10000000
 8005ebc:	432a      	orrs	r2, r5
 8005ebe:	d003      	beq.n	8005ec8 <HAL_UART_IRQHandler+0xe4>
 8005ec0:	6f63      	ldr	r3, [r4, #116]	@ 0x74
 8005ec2:	b10b      	cbz	r3, 8005ec8 <HAL_UART_IRQHandler+0xe4>
 8005ec4:	4620      	mov	r0, r4
 8005ec6:	4798      	blx	r3
 8005ec8:	6826      	ldr	r6, [r4, #0]
 8005eca:	f8d4 2090 	ldr.w	r2, [r4, #144]	@ 0x90
 8005ece:	68b3      	ldr	r3, [r6, #8]
 8005ed0:	f002 0228 	and.w	r2, r2, #40	@ 0x28
 8005ed4:	f003 0340 	and.w	r3, r3, #64	@ 0x40
 8005ed8:	ea53 0502 	orrs.w	r5, r3, r2
 8005edc:	4620      	mov	r0, r4
 8005ede:	d021      	beq.n	8005f24 <HAL_UART_IRQHandler+0x140>
 8005ee0:	f7ff ff4c 	bl	8005d7c <UART_EndRxTransfer>
 8005ee4:	68b3      	ldr	r3, [r6, #8]
 8005ee6:	065f      	lsls	r7, r3, #25
 8005ee8:	d517      	bpl.n	8005f1a <HAL_UART_IRQHandler+0x136>
 8005eea:	6822      	ldr	r2, [r4, #0]
 8005eec:	f102 0308 	add.w	r3, r2, #8
 8005ef0:	e853 3f00 	ldrex	r3, [r3]
 8005ef4:	f023 0340 	bic.w	r3, r3, #64	@ 0x40
 8005ef8:	3208      	adds	r2, #8
 8005efa:	e842 3100 	strex	r1, r3, [r2]
 8005efe:	2900      	cmp	r1, #0
 8005f00:	d1f3      	bne.n	8005eea <HAL_UART_IRQHandler+0x106>
 8005f02:	f8d4 0080 	ldr.w	r0, [r4, #128]	@ 0x80
 8005f06:	b140      	cbz	r0, 8005f1a <HAL_UART_IRQHandler+0x136>
 8005f08:	4b6f      	ldr	r3, [pc, #444]	@ (80060c8 <HAL_UART_IRQHandler+0x2e4>)
 8005f0a:	6383      	str	r3, [r0, #56]	@ 0x38
 8005f0c:	f7fe fc30 	bl	8004770 <HAL_DMA_Abort_IT>
 8005f10:	b130      	cbz	r0, 8005f20 <HAL_UART_IRQHandler+0x13c>
 8005f12:	f8d4 0080 	ldr.w	r0, [r4, #128]	@ 0x80
 8005f16:	6b83      	ldr	r3, [r0, #56]	@ 0x38
 8005f18:	e77d      	b.n	8005e16 <HAL_UART_IRQHandler+0x32>
 8005f1a:	4620      	mov	r0, r4
 8005f1c:	f7fb ff38 	bl	8001d90 <HAL_UART_ErrorCallback>
 8005f20:	e8bd 81f0 	ldmia.w	sp!, {r4, r5, r6, r7, r8, pc}
 8005f24:	f7fb ff34 	bl	8001d90 <HAL_UART_ErrorCallback>
 8005f28:	f8c4 5090 	str.w	r5, [r4, #144]	@ 0x90
 8005f2c:	e7f8      	b.n	8005f20 <HAL_UART_IRQHandler+0x13c>
 8005f2e:	6ee0      	ldr	r0, [r4, #108]	@ 0x6c
 8005f30:	2801      	cmp	r0, #1
 8005f32:	f040 808d 	bne.w	8006050 <HAL_UART_IRQHandler+0x26c>
 8005f36:	06ce      	lsls	r6, r1, #27
 8005f38:	f140 808a 	bpl.w	8006050 <HAL_UART_IRQHandler+0x26c>
 8005f3c:	06d0      	lsls	r0, r2, #27
 8005f3e:	f140 8087 	bpl.w	8006050 <HAL_UART_IRQHandler+0x26c>
 8005f42:	2210      	movs	r2, #16
 8005f44:	621a      	str	r2, [r3, #32]
 8005f46:	6899      	ldr	r1, [r3, #8]
 8005f48:	f8b4 205c 	ldrh.w	r2, [r4, #92]	@ 0x5c
 8005f4c:	0649      	lsls	r1, r1, #25
 8005f4e:	d551      	bpl.n	8005ff4 <HAL_UART_IRQHandler+0x210>
 8005f50:	f8d4 1080 	ldr.w	r1, [r4, #128]	@ 0x80
 8005f54:	6808      	ldr	r0, [r1, #0]
 8005f56:	6841      	ldr	r1, [r0, #4]
 8005f58:	b289      	uxth	r1, r1
 8005f5a:	2900      	cmp	r1, #0
 8005f5c:	d042      	beq.n	8005fe4 <HAL_UART_IRQHandler+0x200>
 8005f5e:	4291      	cmp	r1, r2
 8005f60:	d240      	bcs.n	8005fe4 <HAL_UART_IRQHandler+0x200>
 8005f62:	f8a4 105e 	strh.w	r1, [r4, #94]	@ 0x5e
 8005f66:	6802      	ldr	r2, [r0, #0]
 8005f68:	0692      	lsls	r2, r2, #26
 8005f6a:	d42f      	bmi.n	8005fcc <HAL_UART_IRQHandler+0x1e8>
 8005f6c:	e853 2f00 	ldrex	r2, [r3]
 8005f70:	f422 7280 	bic.w	r2, r2, #256	@ 0x100
 8005f74:	e843 2100 	strex	r1, r2, [r3]
 8005f78:	2900      	cmp	r1, #0
 8005f7a:	d1f7      	bne.n	8005f6c <HAL_UART_IRQHandler+0x188>
 8005f7c:	f103 0208 	add.w	r2, r3, #8
 8005f80:	e852 2f00 	ldrex	r2, [r2]
 8005f84:	f022 0201 	bic.w	r2, r2, #1
 8005f88:	f103 0008 	add.w	r0, r3, #8
 8005f8c:	e840 2100 	strex	r1, r2, [r0]
 8005f90:	2900      	cmp	r1, #0
 8005f92:	d1f3      	bne.n	8005f7c <HAL_UART_IRQHandler+0x198>
 8005f94:	f103 0208 	add.w	r2, r3, #8
 8005f98:	e852 2f00 	ldrex	r2, [r2]
 8005f9c:	f022 0240 	bic.w	r2, r2, #64	@ 0x40
 8005fa0:	f103 0008 	add.w	r0, r3, #8
 8005fa4:	e840 2100 	strex	r1, r2, [r0]
 8005fa8:	2900      	cmp	r1, #0
 8005faa:	d1f3      	bne.n	8005f94 <HAL_UART_IRQHandler+0x1b0>
 8005fac:	2220      	movs	r2, #32
 8005fae:	f8c4 208c 	str.w	r2, [r4, #140]	@ 0x8c
 8005fb2:	66e1      	str	r1, [r4, #108]	@ 0x6c
 8005fb4:	e853 2f00 	ldrex	r2, [r3]
 8005fb8:	f022 0210 	bic.w	r2, r2, #16
 8005fbc:	e843 2100 	strex	r1, r2, [r3]
 8005fc0:	2900      	cmp	r1, #0
 8005fc2:	d1f7      	bne.n	8005fb4 <HAL_UART_IRQHandler+0x1d0>
 8005fc4:	f8d4 0080 	ldr.w	r0, [r4, #128]	@ 0x80
 8005fc8:	f7fe fb9c 	bl	8004704 <HAL_DMA_Abort>
 8005fcc:	2302      	movs	r3, #2
 8005fce:	6723      	str	r3, [r4, #112]	@ 0x70
 8005fd0:	f8b4 305e 	ldrh.w	r3, [r4, #94]	@ 0x5e
 8005fd4:	f8b4 105c 	ldrh.w	r1, [r4, #92]	@ 0x5c
 8005fd8:	1ac9      	subs	r1, r1, r3
 8005fda:	b289      	uxth	r1, r1
 8005fdc:	4620      	mov	r0, r4
 8005fde:	f7ff feff 	bl	8005de0 <HAL_UARTEx_RxEventCallback>
 8005fe2:	e79d      	b.n	8005f20 <HAL_UART_IRQHandler+0x13c>
 8005fe4:	4291      	cmp	r1, r2
 8005fe6:	d19b      	bne.n	8005f20 <HAL_UART_IRQHandler+0x13c>
 8005fe8:	6803      	ldr	r3, [r0, #0]
 8005fea:	069b      	lsls	r3, r3, #26
 8005fec:	d598      	bpl.n	8005f20 <HAL_UART_IRQHandler+0x13c>
 8005fee:	2302      	movs	r3, #2
 8005ff0:	6723      	str	r3, [r4, #112]	@ 0x70
 8005ff2:	e7f3      	b.n	8005fdc <HAL_UART_IRQHandler+0x1f8>
 8005ff4:	f8b4 105e 	ldrh.w	r1, [r4, #94]	@ 0x5e
 8005ff8:	f8b4 005e 	ldrh.w	r0, [r4, #94]	@ 0x5e
 8005ffc:	b280      	uxth	r0, r0
 8005ffe:	b289      	uxth	r1, r1
 8006000:	2800      	cmp	r0, #0
 8006002:	d08d      	beq.n	8005f20 <HAL_UART_IRQHandler+0x13c>
 8006004:	1a52      	subs	r2, r2, r1
 8006006:	b291      	uxth	r1, r2
 8006008:	2900      	cmp	r1, #0
 800600a:	d089      	beq.n	8005f20 <HAL_UART_IRQHandler+0x13c>
 800600c:	e853 2f00 	ldrex	r2, [r3]
 8006010:	f422 7290 	bic.w	r2, r2, #288	@ 0x120
 8006014:	e843 2000 	strex	r0, r2, [r3]
 8006018:	2800      	cmp	r0, #0
 800601a:	d1f7      	bne.n	800600c <HAL_UART_IRQHandler+0x228>
 800601c:	4d2b      	ldr	r5, [pc, #172]	@ (80060cc <HAL_UART_IRQHandler+0x2e8>)
 800601e:	f103 0208 	add.w	r2, r3, #8
 8006022:	e852 2f00 	ldrex	r2, [r2]
 8006026:	402a      	ands	r2, r5
 8006028:	f103 0608 	add.w	r6, r3, #8
 800602c:	e846 2000 	strex	r0, r2, [r6]
 8006030:	2800      	cmp	r0, #0
 8006032:	d1f4      	bne.n	800601e <HAL_UART_IRQHandler+0x23a>
 8006034:	2220      	movs	r2, #32
 8006036:	f8c4 208c 	str.w	r2, [r4, #140]	@ 0x8c
 800603a:	6760      	str	r0, [r4, #116]	@ 0x74
 800603c:	66e0      	str	r0, [r4, #108]	@ 0x6c
 800603e:	e853 2f00 	ldrex	r2, [r3]
 8006042:	f022 0210 	bic.w	r2, r2, #16
 8006046:	e843 2000 	strex	r0, r2, [r3]
 800604a:	2800      	cmp	r0, #0
 800604c:	d1f7      	bne.n	800603e <HAL_UART_IRQHandler+0x25a>
 800604e:	e7ce      	b.n	8005fee <HAL_UART_IRQHandler+0x20a>
 8006050:	02cf      	lsls	r7, r1, #11
 8006052:	d509      	bpl.n	8006068 <HAL_UART_IRQHandler+0x284>
 8006054:	026e      	lsls	r6, r5, #9
 8006056:	d507      	bpl.n	8006068 <HAL_UART_IRQHandler+0x284>
 8006058:	f44f 1280 	mov.w	r2, #1048576	@ 0x100000
 800605c:	4620      	mov	r0, r4
 800605e:	621a      	str	r2, [r3, #32]
 8006060:	e8bd 41f0 	ldmia.w	sp!, {r4, r5, r6, r7, r8, lr}
 8006064:	f000 be1e 	b.w	8006ca4 <HAL_UARTEx_WakeupCallback>
 8006068:	0608      	lsls	r0, r1, #24
 800606a:	d50b      	bpl.n	8006084 <HAL_UART_IRQHandler+0x2a0>
 800606c:	f002 0080 	and.w	r0, r2, #128	@ 0x80
 8006070:	f405 0500 	and.w	r5, r5, #8388608	@ 0x800000
 8006074:	4328      	orrs	r0, r5
 8006076:	d005      	beq.n	8006084 <HAL_UART_IRQHandler+0x2a0>
 8006078:	6fa3      	ldr	r3, [r4, #120]	@ 0x78
 800607a:	2b00      	cmp	r3, #0
 800607c:	f43f af50 	beq.w	8005f20 <HAL_UART_IRQHandler+0x13c>
 8006080:	4620      	mov	r0, r4
 8006082:	e6c8      	b.n	8005e16 <HAL_UART_IRQHandler+0x32>
 8006084:	064f      	lsls	r7, r1, #25
 8006086:	d511      	bpl.n	80060ac <HAL_UART_IRQHandler+0x2c8>
 8006088:	0656      	lsls	r6, r2, #25
 800608a:	d50f      	bpl.n	80060ac <HAL_UART_IRQHandler+0x2c8>
 800608c:	e853 2f00 	ldrex	r2, [r3]
 8006090:	f022 0240 	bic.w	r2, r2, #64	@ 0x40
 8006094:	e843 2100 	strex	r1, r2, [r3]
 8006098:	2900      	cmp	r1, #0
 800609a:	d1f7      	bne.n	800608c <HAL_UART_IRQHandler+0x2a8>
 800609c:	2320      	movs	r3, #32
 800609e:	f8c4 3088 	str.w	r3, [r4, #136]	@ 0x88
 80060a2:	67a1      	str	r1, [r4, #120]	@ 0x78
 80060a4:	4620      	mov	r0, r4
 80060a6:	f7ff fe95 	bl	8005dd4 <HAL_UART_TxCpltCallback>
 80060aa:	e739      	b.n	8005f20 <HAL_UART_IRQHandler+0x13c>
 80060ac:	020d      	lsls	r5, r1, #8
 80060ae:	d50f      	bpl.n	80060d0 <HAL_UART_IRQHandler+0x2ec>
 80060b0:	0050      	lsls	r0, r2, #1
 80060b2:	d50d      	bpl.n	80060d0 <HAL_UART_IRQHandler+0x2ec>
 80060b4:	4620      	mov	r0, r4
 80060b6:	e8bd 41f0 	ldmia.w	sp!, {r4, r5, r6, r7, r8, lr}
 80060ba:	f000 bdf5 	b.w	8006ca8 <HAL_UARTEx_TxFifoEmptyCallback>
 80060be:	bf00      	nop
 80060c0:	10000001 	.word	0x10000001
 80060c4:	04000120 	.word	0x04000120
 80060c8:	08005dd7 	.word	0x08005dd7
 80060cc:	effffffe 	.word	0xeffffffe
 80060d0:	01cb      	lsls	r3, r1, #7
 80060d2:	f57f af25 	bpl.w	8005f20 <HAL_UART_IRQHandler+0x13c>
 80060d6:	2a00      	cmp	r2, #0
 80060d8:	f6bf af22 	bge.w	8005f20 <HAL_UART_IRQHandler+0x13c>
 80060dc:	4620      	mov	r0, r4
 80060de:	e8bd 41f0 	ldmia.w	sp!, {r4, r5, r6, r7, r8, lr}
 80060e2:	f000 bde0 	b.w	8006ca6 <HAL_UARTEx_RxFifoFullCallback>
 80060e6:	bf00      	nop

080060e8 <UART_RxISR_8BIT>:
 80060e8:	f8d0 208c 	ldr.w	r2, [r0, #140]	@ 0x8c
 80060ec:	2a22      	cmp	r2, #34	@ 0x22
 80060ee:	b508      	push	{r3, lr}
 80060f0:	6803      	ldr	r3, [r0, #0]
 80060f2:	d157      	bne.n	80061a4 <UART_RxISR_8BIT+0xbc>
 80060f4:	6a5b      	ldr	r3, [r3, #36]	@ 0x24
 80060f6:	f8b0 1060 	ldrh.w	r1, [r0, #96]	@ 0x60
 80060fa:	6d82      	ldr	r2, [r0, #88]	@ 0x58
 80060fc:	400b      	ands	r3, r1
 80060fe:	7013      	strb	r3, [r2, #0]
 8006100:	6d83      	ldr	r3, [r0, #88]	@ 0x58
 8006102:	3301      	adds	r3, #1
 8006104:	6583      	str	r3, [r0, #88]	@ 0x58
 8006106:	f8b0 305e 	ldrh.w	r3, [r0, #94]	@ 0x5e
 800610a:	3b01      	subs	r3, #1
 800610c:	b29b      	uxth	r3, r3
 800610e:	f8a0 305e 	strh.w	r3, [r0, #94]	@ 0x5e
 8006112:	f8b0 305e 	ldrh.w	r3, [r0, #94]	@ 0x5e
 8006116:	b29b      	uxth	r3, r3
 8006118:	2b00      	cmp	r3, #0
 800611a:	d142      	bne.n	80061a2 <UART_RxISR_8BIT+0xba>
 800611c:	6802      	ldr	r2, [r0, #0]
 800611e:	e852 3f00 	ldrex	r3, [r2]
 8006122:	f423 7390 	bic.w	r3, r3, #288	@ 0x120
 8006126:	e842 3100 	strex	r1, r3, [r2]
 800612a:	6803      	ldr	r3, [r0, #0]
 800612c:	2900      	cmp	r1, #0
 800612e:	d1f5      	bne.n	800611c <UART_RxISR_8BIT+0x34>
 8006130:	f103 0208 	add.w	r2, r3, #8
 8006134:	e852 2f00 	ldrex	r2, [r2]
 8006138:	f022 0201 	bic.w	r2, r2, #1
 800613c:	f103 0c08 	add.w	ip, r3, #8
 8006140:	e84c 2100 	strex	r1, r2, [ip]
 8006144:	2900      	cmp	r1, #0
 8006146:	d1f3      	bne.n	8006130 <UART_RxISR_8BIT+0x48>
 8006148:	2220      	movs	r2, #32
 800614a:	f8c0 208c 	str.w	r2, [r0, #140]	@ 0x8c
 800614e:	4a18      	ldr	r2, [pc, #96]	@ (80061b0 <UART_RxISR_8BIT+0xc8>)
 8006150:	6741      	str	r1, [r0, #116]	@ 0x74
 8006152:	4293      	cmp	r3, r2
 8006154:	6701      	str	r1, [r0, #112]	@ 0x70
 8006156:	d105      	bne.n	8006164 <UART_RxISR_8BIT+0x7c>
 8006158:	6ec2      	ldr	r2, [r0, #108]	@ 0x6c
 800615a:	2a01      	cmp	r2, #1
 800615c:	d00e      	beq.n	800617c <UART_RxISR_8BIT+0x94>
 800615e:	f7fb fde3 	bl	8001d28 <HAL_UART_RxCpltCallback>
 8006162:	e01e      	b.n	80061a2 <UART_RxISR_8BIT+0xba>
 8006164:	685a      	ldr	r2, [r3, #4]
 8006166:	0211      	lsls	r1, r2, #8
 8006168:	d5f6      	bpl.n	8006158 <UART_RxISR_8BIT+0x70>
 800616a:	e853 2f00 	ldrex	r2, [r3]
 800616e:	f022 6280 	bic.w	r2, r2, #67108864	@ 0x4000000
 8006172:	e843 2100 	strex	r1, r2, [r3]
 8006176:	2900      	cmp	r1, #0
 8006178:	d1f7      	bne.n	800616a <UART_RxISR_8BIT+0x82>
 800617a:	e7ed      	b.n	8006158 <UART_RxISR_8BIT+0x70>
 800617c:	2200      	movs	r2, #0
 800617e:	66c2      	str	r2, [r0, #108]	@ 0x6c
 8006180:	e853 2f00 	ldrex	r2, [r3]
 8006184:	f022 0210 	bic.w	r2, r2, #16
 8006188:	e843 2100 	strex	r1, r2, [r3]
 800618c:	2900      	cmp	r1, #0
 800618e:	d1f7      	bne.n	8006180 <UART_RxISR_8BIT+0x98>
 8006190:	69da      	ldr	r2, [r3, #28]
 8006192:	f8b0 105c 	ldrh.w	r1, [r0, #92]	@ 0x5c
 8006196:	06d2      	lsls	r2, r2, #27
 8006198:	bf44      	itt	mi
 800619a:	2210      	movmi	r2, #16
 800619c:	621a      	strmi	r2, [r3, #32]
 800619e:	f7ff fe1f 	bl	8005de0 <HAL_UARTEx_RxEventCallback>
 80061a2:	bd08      	pop	{r3, pc}
 80061a4:	699a      	ldr	r2, [r3, #24]
 80061a6:	f042 0208 	orr.w	r2, r2, #8
 80061aa:	619a      	str	r2, [r3, #24]
 80061ac:	e7f9      	b.n	80061a2 <UART_RxISR_8BIT+0xba>
 80061ae:	bf00      	nop
 80061b0:	40008000 	.word	0x40008000

080061b4 <UART_RxISR_16BIT>:
 80061b4:	f8d0 208c 	ldr.w	r2, [r0, #140]	@ 0x8c
 80061b8:	2a22      	cmp	r2, #34	@ 0x22
 80061ba:	b508      	push	{r3, lr}
 80061bc:	6803      	ldr	r3, [r0, #0]
 80061be:	d154      	bne.n	800626a <UART_RxISR_16BIT+0xb6>
 80061c0:	6a59      	ldr	r1, [r3, #36]	@ 0x24
 80061c2:	f8b0 2060 	ldrh.w	r2, [r0, #96]	@ 0x60
 80061c6:	4011      	ands	r1, r2
 80061c8:	6d82      	ldr	r2, [r0, #88]	@ 0x58
 80061ca:	f822 1b02 	strh.w	r1, [r2], #2
 80061ce:	6582      	str	r2, [r0, #88]	@ 0x58
 80061d0:	f8b0 205e 	ldrh.w	r2, [r0, #94]	@ 0x5e
 80061d4:	3a01      	subs	r2, #1
 80061d6:	b292      	uxth	r2, r2
 80061d8:	f8a0 205e 	strh.w	r2, [r0, #94]	@ 0x5e
 80061dc:	f8b0 205e 	ldrh.w	r2, [r0, #94]	@ 0x5e
 80061e0:	b292      	uxth	r2, r2
 80061e2:	2a00      	cmp	r2, #0
 80061e4:	d140      	bne.n	8006268 <UART_RxISR_16BIT+0xb4>
 80061e6:	e853 2f00 	ldrex	r2, [r3]
 80061ea:	f422 7290 	bic.w	r2, r2, #288	@ 0x120
 80061ee:	e843 2100 	strex	r1, r2, [r3]
 80061f2:	2900      	cmp	r1, #0
 80061f4:	d1f7      	bne.n	80061e6 <UART_RxISR_16BIT+0x32>
 80061f6:	f103 0208 	add.w	r2, r3, #8
 80061fa:	e852 2f00 	ldrex	r2, [r2]
 80061fe:	f022 0201 	bic.w	r2, r2, #1
 8006202:	f103 0c08 	add.w	ip, r3, #8
 8006206:	e84c 2100 	strex	r1, r2, [ip]
 800620a:	2900      	cmp	r1, #0
 800620c:	d1f3      	bne.n	80061f6 <UART_RxISR_16BIT+0x42>
 800620e:	2220      	movs	r2, #32
 8006210:	f8c0 208c 	str.w	r2, [r0, #140]	@ 0x8c
 8006214:	4a17      	ldr	r2, [pc, #92]	@ (8006274 <UART_RxISR_16BIT+0xc0>)
 8006216:	6741      	str	r1, [r0, #116]	@ 0x74
 8006218:	4293      	cmp	r3, r2
 800621a:	6701      	str	r1, [r0, #112]	@ 0x70
 800621c:	d105      	bne.n	800622a <UART_RxISR_16BIT+0x76>
 800621e:	6ec2      	ldr	r2, [r0, #108]	@ 0x6c
 8006220:	2a01      	cmp	r2, #1
 8006222:	d00e      	beq.n	8006242 <UART_RxISR_16BIT+0x8e>
 8006224:	f7fb fd80 	bl	8001d28 <HAL_UART_RxCpltCallback>
 8006228:	e01e      	b.n	8006268 <UART_RxISR_16BIT+0xb4>
 800622a:	685a      	ldr	r2, [r3, #4]
 800622c:	0211      	lsls	r1, r2, #8
 800622e:	d5f6      	bpl.n	800621e <UART_RxISR_16BIT+0x6a>
 8006230:	e853 2f00 	ldrex	r2, [r3]
 8006234:	f022 6280 	bic.w	r2, r2, #67108864	@ 0x4000000
 8006238:	e843 2100 	strex	r1, r2, [r3]
 800623c:	2900      	cmp	r1, #0
 800623e:	d1f7      	bne.n	8006230 <UART_RxISR_16BIT+0x7c>
 8006240:	e7ed      	b.n	800621e <UART_RxISR_16BIT+0x6a>
 8006242:	2200      	movs	r2, #0
 8006244:	66c2      	str	r2, [r0, #108]	@ 0x6c
 8006246:	e853 2f00 	ldrex	r2, [r3]
 800624a:	f022 0210 	bic.w	r2, r2, #16
 800624e:	e843 2100 	strex	r1, r2, [r3]
 8006252:	2900      	cmp	r1, #0
 8006254:	d1f7      	bne.n	8006246 <UART_RxISR_16BIT+0x92>
 8006256:	69da      	ldr	r2, [r3, #28]
 8006258:	f8b0 105c 	ldrh.w	r1, [r0, #92]	@ 0x5c
 800625c:	06d2      	lsls	r2, r2, #27
 800625e:	bf44      	itt	mi
 8006260:	2210      	movmi	r2, #16
 8006262:	621a      	strmi	r2, [r3, #32]
 8006264:	f7ff fdbc 	bl	8005de0 <HAL_UARTEx_RxEventCallback>
 8006268:	bd08      	pop	{r3, pc}
 800626a:	699a      	ldr	r2, [r3, #24]
 800626c:	f042 0208 	orr.w	r2, r2, #8
 8006270:	619a      	str	r2, [r3, #24]
 8006272:	e7f9      	b.n	8006268 <UART_RxISR_16BIT+0xb4>
 8006274:	40008000 	.word	0x40008000

08006278 <UART_RxISR_8BIT_FIFOEN>:
 8006278:	6803      	ldr	r3, [r0, #0]
 800627a:	e92d 47f0 	stmdb	sp!, {r4, r5, r6, r7, r8, r9, sl, lr}
 800627e:	69dd      	ldr	r5, [r3, #28]
 8006280:	f8d3 8000 	ldr.w	r8, [r3]
 8006284:	689e      	ldr	r6, [r3, #8]
 8006286:	f8d0 208c 	ldr.w	r2, [r0, #140]	@ 0x8c
 800628a:	2a22      	cmp	r2, #34	@ 0x22
 800628c:	4604      	mov	r4, r0
 800628e:	f040 80b7 	bne.w	8006400 <UART_RxISR_8BIT_FIFOEN+0x188>
 8006292:	f8b0 3068 	ldrh.w	r3, [r0, #104]	@ 0x68
 8006296:	2b00      	cmp	r3, #0
 8006298:	f000 808d 	beq.w	80063b6 <UART_RxISR_8BIT_FIFOEN+0x13e>
 800629c:	f8b0 7060 	ldrh.w	r7, [r0, #96]	@ 0x60
 80062a0:	f04f 0900 	mov.w	r9, #0
 80062a4:	f006 0601 	and.w	r6, r6, #1
 80062a8:	f04f 0a04 	mov.w	sl, #4
 80062ac:	06ab      	lsls	r3, r5, #26
 80062ae:	f140 8082 	bpl.w	80063b6 <UART_RxISR_8BIT_FIFOEN+0x13e>
 80062b2:	6823      	ldr	r3, [r4, #0]
 80062b4:	6da2      	ldr	r2, [r4, #88]	@ 0x58
 80062b6:	6a5b      	ldr	r3, [r3, #36]	@ 0x24
 80062b8:	403b      	ands	r3, r7
 80062ba:	7013      	strb	r3, [r2, #0]
 80062bc:	6da3      	ldr	r3, [r4, #88]	@ 0x58
 80062be:	3301      	adds	r3, #1
 80062c0:	65a3      	str	r3, [r4, #88]	@ 0x58
 80062c2:	f8b4 305e 	ldrh.w	r3, [r4, #94]	@ 0x5e
 80062c6:	3b01      	subs	r3, #1
 80062c8:	b29b      	uxth	r3, r3
 80062ca:	f8a4 305e 	strh.w	r3, [r4, #94]	@ 0x5e
 80062ce:	6823      	ldr	r3, [r4, #0]
 80062d0:	69dd      	ldr	r5, [r3, #28]
 80062d2:	0768      	lsls	r0, r5, #29
 80062d4:	d02a      	beq.n	800632c <UART_RxISR_8BIT_FIFOEN+0xb4>
 80062d6:	07e9      	lsls	r1, r5, #31
 80062d8:	d50a      	bpl.n	80062f0 <UART_RxISR_8BIT_FIFOEN+0x78>
 80062da:	f418 7f80 	tst.w	r8, #256	@ 0x100
 80062de:	d007      	beq.n	80062f0 <UART_RxISR_8BIT_FIFOEN+0x78>
 80062e0:	2201      	movs	r2, #1
 80062e2:	621a      	str	r2, [r3, #32]
 80062e4:	f8d4 2090 	ldr.w	r2, [r4, #144]	@ 0x90
 80062e8:	f042 0201 	orr.w	r2, r2, #1
 80062ec:	f8c4 2090 	str.w	r2, [r4, #144]	@ 0x90
 80062f0:	07aa      	lsls	r2, r5, #30
 80062f2:	d508      	bpl.n	8006306 <UART_RxISR_8BIT_FIFOEN+0x8e>
 80062f4:	b13e      	cbz	r6, 8006306 <UART_RxISR_8BIT_FIFOEN+0x8e>
 80062f6:	2202      	movs	r2, #2
 80062f8:	621a      	str	r2, [r3, #32]
 80062fa:	f8d4 2090 	ldr.w	r2, [r4, #144]	@ 0x90
 80062fe:	f042 0204 	orr.w	r2, r2, #4
 8006302:	f8c4 2090 	str.w	r2, [r4, #144]	@ 0x90
 8006306:	0768      	lsls	r0, r5, #29
 8006308:	d508      	bpl.n	800631c <UART_RxISR_8BIT_FIFOEN+0xa4>
 800630a:	b13e      	cbz	r6, 800631c <UART_RxISR_8BIT_FIFOEN+0xa4>
 800630c:	f8c3 a020 	str.w	sl, [r3, #32]
 8006310:	f8d4 3090 	ldr.w	r3, [r4, #144]	@ 0x90
 8006314:	f043 0302 	orr.w	r3, r3, #2
 8006318:	f8c4 3090 	str.w	r3, [r4, #144]	@ 0x90
 800631c:	f8d4 3090 	ldr.w	r3, [r4, #144]	@ 0x90
 8006320:	b123      	cbz	r3, 800632c <UART_RxISR_8BIT_FIFOEN+0xb4>
 8006322:	4620      	mov	r0, r4
 8006324:	f7fb fd34 	bl	8001d90 <HAL_UART_ErrorCallback>
 8006328:	f8c4 9090 	str.w	r9, [r4, #144]	@ 0x90
 800632c:	f8b4 305e 	ldrh.w	r3, [r4, #94]	@ 0x5e
 8006330:	b29b      	uxth	r3, r3
 8006332:	2b00      	cmp	r3, #0
 8006334:	d1ba      	bne.n	80062ac <UART_RxISR_8BIT_FIFOEN+0x34>
 8006336:	6822      	ldr	r2, [r4, #0]
 8006338:	e852 3f00 	ldrex	r3, [r2]
 800633c:	f423 7380 	bic.w	r3, r3, #256	@ 0x100
 8006340:	e842 3100 	strex	r1, r3, [r2]
 8006344:	6823      	ldr	r3, [r4, #0]
 8006346:	2900      	cmp	r1, #0
 8006348:	d1f5      	bne.n	8006336 <UART_RxISR_8BIT_FIFOEN+0xbe>
 800634a:	4830      	ldr	r0, [pc, #192]	@ (800640c <UART_RxISR_8BIT_FIFOEN+0x194>)
 800634c:	f103 0208 	add.w	r2, r3, #8
 8006350:	e852 2f00 	ldrex	r2, [r2]
 8006354:	4002      	ands	r2, r0
 8006356:	f103 0508 	add.w	r5, r3, #8
 800635a:	e845 2100 	strex	r1, r2, [r5]
 800635e:	2900      	cmp	r1, #0
 8006360:	d1f4      	bne.n	800634c <UART_RxISR_8BIT_FIFOEN+0xd4>
 8006362:	2220      	movs	r2, #32
 8006364:	f8c4 208c 	str.w	r2, [r4, #140]	@ 0x8c
 8006368:	4a29      	ldr	r2, [pc, #164]	@ (8006410 <UART_RxISR_8BIT_FIFOEN+0x198>)
 800636a:	6761      	str	r1, [r4, #116]	@ 0x74
 800636c:	4293      	cmp	r3, r2
 800636e:	6721      	str	r1, [r4, #112]	@ 0x70
 8006370:	d00a      	beq.n	8006388 <UART_RxISR_8BIT_FIFOEN+0x110>
 8006372:	685a      	ldr	r2, [r3, #4]
 8006374:	0211      	lsls	r1, r2, #8
 8006376:	d507      	bpl.n	8006388 <UART_RxISR_8BIT_FIFOEN+0x110>
 8006378:	e853 2f00 	ldrex	r2, [r3]
 800637c:	f022 6280 	bic.w	r2, r2, #67108864	@ 0x4000000
 8006380:	e843 2100 	strex	r1, r2, [r3]
 8006384:	2900      	cmp	r1, #0
 8006386:	d1f7      	bne.n	8006378 <UART_RxISR_8BIT_FIFOEN+0x100>
 8006388:	6ee2      	ldr	r2, [r4, #108]	@ 0x6c
 800638a:	2a01      	cmp	r2, #1
 800638c:	d134      	bne.n	80063f8 <UART_RxISR_8BIT_FIFOEN+0x180>
 800638e:	2200      	movs	r2, #0
 8006390:	66e2      	str	r2, [r4, #108]	@ 0x6c
 8006392:	e853 2f00 	ldrex	r2, [r3]
 8006396:	f022 0210 	bic.w	r2, r2, #16
 800639a:	e843 2100 	strex	r1, r2, [r3]
 800639e:	2900      	cmp	r1, #0
 80063a0:	d1f7      	bne.n	8006392 <UART_RxISR_8BIT_FIFOEN+0x11a>
 80063a2:	69da      	ldr	r2, [r3, #28]
 80063a4:	f8b4 105c 	ldrh.w	r1, [r4, #92]	@ 0x5c
 80063a8:	06d2      	lsls	r2, r2, #27
 80063aa:	bf44      	itt	mi
 80063ac:	2210      	movmi	r2, #16
 80063ae:	621a      	strmi	r2, [r3, #32]
 80063b0:	4620      	mov	r0, r4
 80063b2:	f7ff fd15 	bl	8005de0 <HAL_UARTEx_RxEventCallback>
 80063b6:	f8b4 305e 	ldrh.w	r3, [r4, #94]	@ 0x5e
 80063ba:	b29b      	uxth	r3, r3
 80063bc:	b1d3      	cbz	r3, 80063f4 <UART_RxISR_8BIT_FIFOEN+0x17c>
 80063be:	f8b4 2068 	ldrh.w	r2, [r4, #104]	@ 0x68
 80063c2:	429a      	cmp	r2, r3
 80063c4:	d916      	bls.n	80063f4 <UART_RxISR_8BIT_FIFOEN+0x17c>
 80063c6:	6822      	ldr	r2, [r4, #0]
 80063c8:	f102 0308 	add.w	r3, r2, #8
 80063cc:	e853 3f00 	ldrex	r3, [r3]
 80063d0:	f023 5380 	bic.w	r3, r3, #268435456	@ 0x10000000
 80063d4:	3208      	adds	r2, #8
 80063d6:	e842 3100 	strex	r1, r3, [r2]
 80063da:	6822      	ldr	r2, [r4, #0]
 80063dc:	2900      	cmp	r1, #0
 80063de:	d1f2      	bne.n	80063c6 <UART_RxISR_8BIT_FIFOEN+0x14e>
 80063e0:	4b0c      	ldr	r3, [pc, #48]	@ (8006414 <UART_RxISR_8BIT_FIFOEN+0x19c>)
 80063e2:	6763      	str	r3, [r4, #116]	@ 0x74
 80063e4:	e852 3f00 	ldrex	r3, [r2]
 80063e8:	f043 0320 	orr.w	r3, r3, #32
 80063ec:	e842 3100 	strex	r1, r3, [r2]
 80063f0:	2900      	cmp	r1, #0
 80063f2:	d1f7      	bne.n	80063e4 <UART_RxISR_8BIT_FIFOEN+0x16c>
 80063f4:	e8bd 87f0 	ldmia.w	sp!, {r4, r5, r6, r7, r8, r9, sl, pc}
 80063f8:	4620      	mov	r0, r4
 80063fa:	f7fb fc95 	bl	8001d28 <HAL_UART_RxCpltCallback>
 80063fe:	e7da      	b.n	80063b6 <UART_RxISR_8BIT_FIFOEN+0x13e>
 8006400:	699a      	ldr	r2, [r3, #24]
 8006402:	f042 0208 	orr.w	r2, r2, #8
 8006406:	619a      	str	r2, [r3, #24]
 8006408:	e7f4      	b.n	80063f4 <UART_RxISR_8BIT_FIFOEN+0x17c>
 800640a:	bf00      	nop
 800640c:	effffffe 	.word	0xeffffffe
 8006410:	40008000 	.word	0x40008000
 8006414:	080060e9 	.word	0x080060e9

08006418 <UART_RxISR_16BIT_FIFOEN>:
 8006418:	6803      	ldr	r3, [r0, #0]
 800641a:	e92d 47f0 	stmdb	sp!, {r4, r5, r6, r7, r8, r9, sl, lr}
 800641e:	69dd      	ldr	r5, [r3, #28]
 8006420:	f8d3 8000 	ldr.w	r8, [r3]
 8006424:	689e      	ldr	r6, [r3, #8]
 8006426:	f8d0 208c 	ldr.w	r2, [r0, #140]	@ 0x8c
 800642a:	2a22      	cmp	r2, #34	@ 0x22
 800642c:	4604      	mov	r4, r0
 800642e:	f040 80b4 	bne.w	800659a <UART_RxISR_16BIT_FIFOEN+0x182>
 8006432:	f8b0 3068 	ldrh.w	r3, [r0, #104]	@ 0x68
 8006436:	2b00      	cmp	r3, #0
 8006438:	f000 808a 	beq.w	8006550 <UART_RxISR_16BIT_FIFOEN+0x138>
 800643c:	f8b0 7060 	ldrh.w	r7, [r0, #96]	@ 0x60
 8006440:	f04f 0900 	mov.w	r9, #0
 8006444:	f006 0601 	and.w	r6, r6, #1
 8006448:	f04f 0a04 	mov.w	sl, #4
 800644c:	06ab      	lsls	r3, r5, #26
 800644e:	d57f      	bpl.n	8006550 <UART_RxISR_16BIT_FIFOEN+0x138>
 8006450:	6823      	ldr	r3, [r4, #0]
 8006452:	6da2      	ldr	r2, [r4, #88]	@ 0x58
 8006454:	6a59      	ldr	r1, [r3, #36]	@ 0x24
 8006456:	4039      	ands	r1, r7
 8006458:	f822 1b02 	strh.w	r1, [r2], #2
 800645c:	65a2      	str	r2, [r4, #88]	@ 0x58
 800645e:	f8b4 205e 	ldrh.w	r2, [r4, #94]	@ 0x5e
 8006462:	3a01      	subs	r2, #1
 8006464:	b292      	uxth	r2, r2
 8006466:	f8a4 205e 	strh.w	r2, [r4, #94]	@ 0x5e
 800646a:	69dd      	ldr	r5, [r3, #28]
 800646c:	0768      	lsls	r0, r5, #29
 800646e:	d02a      	beq.n	80064c6 <UART_RxISR_16BIT_FIFOEN+0xae>
 8006470:	07e9      	lsls	r1, r5, #31
 8006472:	d50a      	bpl.n	800648a <UART_RxISR_16BIT_FIFOEN+0x72>
 8006474:	f418 7f80 	tst.w	r8, #256	@ 0x100
 8006478:	d007      	beq.n	800648a <UART_RxISR_16BIT_FIFOEN+0x72>
 800647a:	2201      	movs	r2, #1
 800647c:	621a      	str	r2, [r3, #32]
 800647e:	f8d4 2090 	ldr.w	r2, [r4, #144]	@ 0x90
 8006482:	f042 0201 	orr.w	r2, r2, #1
 8006486:	f8c4 2090 	str.w	r2, [r4, #144]	@ 0x90
 800648a:	07aa      	lsls	r2, r5, #30
 800648c:	d508      	bpl.n	80064a0 <UART_RxISR_16BIT_FIFOEN+0x88>
 800648e:	b13e      	cbz	r6, 80064a0 <UART_RxISR_16BIT_FIFOEN+0x88>
 8006490:	2202      	movs	r2, #2
 8006492:	621a      	str	r2, [r3, #32]
 8006494:	f8d4 2090 	ldr.w	r2, [r4, #144]	@ 0x90
 8006498:	f042 0204 	orr.w	r2, r2, #4
 800649c:	f8c4 2090 	str.w	r2, [r4, #144]	@ 0x90
 80064a0:	0768      	lsls	r0, r5, #29
 80064a2:	d508      	bpl.n	80064b6 <UART_RxISR_16BIT_FIFOEN+0x9e>
 80064a4:	b13e      	cbz	r6, 80064b6 <UART_RxISR_16BIT_FIFOEN+0x9e>
 80064a6:	f8c3 a020 	str.w	sl, [r3, #32]
 80064aa:	f8d4 3090 	ldr.w	r3, [r4, #144]	@ 0x90
 80064ae:	f043 0302 	orr.w	r3, r3, #2
 80064b2:	f8c4 3090 	str.w	r3, [r4, #144]	@ 0x90
 80064b6:	f8d4 3090 	ldr.w	r3, [r4, #144]	@ 0x90
 80064ba:	b123      	cbz	r3, 80064c6 <UART_RxISR_16BIT_FIFOEN+0xae>
 80064bc:	4620      	mov	r0, r4
 80064be:	f7fb fc67 	bl	8001d90 <HAL_UART_ErrorCallback>
 80064c2:	f8c4 9090 	str.w	r9, [r4, #144]	@ 0x90
 80064c6:	f8b4 305e 	ldrh.w	r3, [r4, #94]	@ 0x5e
 80064ca:	b29b      	uxth	r3, r3
 80064cc:	2b00      	cmp	r3, #0
 80064ce:	d1bd      	bne.n	800644c <UART_RxISR_16BIT_FIFOEN+0x34>
 80064d0:	6822      	ldr	r2, [r4, #0]
 80064d2:	e852 3f00 	ldrex	r3, [r2]
 80064d6:	f423 7380 	bic.w	r3, r3, #256	@ 0x100
 80064da:	e842 3100 	strex	r1, r3, [r2]
 80064de:	6823      	ldr	r3, [r4, #0]
 80064e0:	2900      	cmp	r1, #0
 80064e2:	d1f5      	bne.n	80064d0 <UART_RxISR_16BIT_FIFOEN+0xb8>
 80064e4:	482f      	ldr	r0, [pc, #188]	@ (80065a4 <UART_RxISR_16BIT_FIFOEN+0x18c>)
 80064e6:	f103 0208 	add.w	r2, r3, #8
 80064ea:	e852 2f00 	ldrex	r2, [r2]
 80064ee:	4002      	ands	r2, r0
 80064f0:	f103 0508 	add.w	r5, r3, #8
 80064f4:	e845 2100 	strex	r1, r2, [r5]
 80064f8:	2900      	cmp	r1, #0
 80064fa:	d1f4      	bne.n	80064e6 <UART_RxISR_16BIT_FIFOEN+0xce>
 80064fc:	2220      	movs	r2, #32
 80064fe:	f8c4 208c 	str.w	r2, [r4, #140]	@ 0x8c
 8006502:	4a29      	ldr	r2, [pc, #164]	@ (80065a8 <UART_RxISR_16BIT_FIFOEN+0x190>)
 8006504:	6761      	str	r1, [r4, #116]	@ 0x74
 8006506:	4293      	cmp	r3, r2
 8006508:	6721      	str	r1, [r4, #112]	@ 0x70
 800650a:	d00a      	beq.n	8006522 <UART_RxISR_16BIT_FIFOEN+0x10a>
 800650c:	685a      	ldr	r2, [r3, #4]
 800650e:	0211      	lsls	r1, r2, #8
 8006510:	d507      	bpl.n	8006522 <UART_RxISR_16BIT_FIFOEN+0x10a>
 8006512:	e853 2f00 	ldrex	r2, [r3]
 8006516:	f022 6280 	bic.w	r2, r2, #67108864	@ 0x4000000
 800651a:	e843 2100 	strex	r1, r2, [r3]
 800651e:	2900      	cmp	r1, #0
 8006520:	d1f7      	bne.n	8006512 <UART_RxISR_16BIT_FIFOEN+0xfa>
 8006522:	6ee2      	ldr	r2, [r4, #108]	@ 0x6c
 8006524:	2a01      	cmp	r2, #1
 8006526:	d134      	bne.n	8006592 <UART_RxISR_16BIT_FIFOEN+0x17a>
 8006528:	2200      	movs	r2, #0
 800652a:	66e2      	str	r2, [r4, #108]	@ 0x6c
 800652c:	e853 2f00 	ldrex	r2, [r3]
 8006530:	f022 0210 	bic.w	r2, r2, #16
 8006534:	e843 2100 	strex	r1, r2, [r3]
 8006538:	2900      	cmp	r1, #0
 800653a:	d1f7      	bne.n	800652c <UART_RxISR_16BIT_FIFOEN+0x114>
 800653c:	69da      	ldr	r2, [r3, #28]
 800653e:	f8b4 105c 	ldrh.w	r1, [r4, #92]	@ 0x5c
 8006542:	06d2      	lsls	r2, r2, #27
 8006544:	bf44      	itt	mi
 8006546:	2210      	movmi	r2, #16
 8006548:	621a      	strmi	r2, [r3, #32]
 800654a:	4620      	mov	r0, r4
 800654c:	f7ff fc48 	bl	8005de0 <HAL_UARTEx_RxEventCallback>
 8006550:	f8b4 305e 	ldrh.w	r3, [r4, #94]	@ 0x5e
 8006554:	b29b      	uxth	r3, r3
 8006556:	b1d3      	cbz	r3, 800658e <UART_RxISR_16BIT_FIFOEN+0x176>
 8006558:	f8b4 2068 	ldrh.w	r2, [r4, #104]	@ 0x68
 800655c:	429a      	cmp	r2, r3
 800655e:	d916      	bls.n	800658e <UART_RxISR_16BIT_FIFOEN+0x176>
 8006560:	6822      	ldr	r2, [r4, #0]
 8006562:	f102 0308 	add.w	r3, r2, #8
 8006566:	e853 3f00 	ldrex	r3, [r3]
 800656a:	f023 5380 	bic.w	r3, r3, #268435456	@ 0x10000000
 800656e:	3208      	adds	r2, #8
 8006570:	e842 3100 	strex	r1, r3, [r2]
 8006574:	6822      	ldr	r2, [r4, #0]
 8006576:	2900      	cmp	r1, #0
 8006578:	d1f2      	bne.n	8006560 <UART_RxISR_16BIT_FIFOEN+0x148>
 800657a:	4b0c      	ldr	r3, [pc, #48]	@ (80065ac <UART_RxISR_16BIT_FIFOEN+0x194>)
 800657c:	6763      	str	r3, [r4, #116]	@ 0x74
 800657e:	e852 3f00 	ldrex	r3, [r2]
 8006582:	f043 0320 	orr.w	r3, r3, #32
 8006586:	e842 3100 	strex	r1, r3, [r2]
 800658a:	2900      	cmp	r1, #0
 800658c:	d1f7      	bne.n	800657e <UART_RxISR_16BIT_FIFOEN+0x166>
 800658e:	e8bd 87f0 	ldmia.w	sp!, {r4, r5, r6, r7, r8, r9, sl, pc}
 8006592:	4620      	mov	r0, r4
 8006594:	f7fb fbc8 	bl	8001d28 <HAL_UART_RxCpltCallback>
 8006598:	e7da      	b.n	8006550 <UART_RxISR_16BIT_FIFOEN+0x138>
 800659a:	699a      	ldr	r2, [r3, #24]
 800659c:	f042 0208 	orr.w	r2, r2, #8
 80065a0:	619a      	str	r2, [r3, #24]
 80065a2:	e7f4      	b.n	800658e <UART_RxISR_16BIT_FIFOEN+0x176>
 80065a4:	effffffe 	.word	0xeffffffe
 80065a8:	40008000 	.word	0x40008000
 80065ac:	080061b5 	.word	0x080061b5

080065b0 <UART_SetConfig>:
 80065b0:	b5f8      	push	{r3, r4, r5, r6, r7, lr}
 80065b2:	4604      	mov	r4, r0
 80065b4:	69c0      	ldr	r0, [r0, #28]
 80065b6:	6921      	ldr	r1, [r4, #16]
 80065b8:	68a2      	ldr	r2, [r4, #8]
 80065ba:	6823      	ldr	r3, [r4, #0]
 80065bc:	430a      	orrs	r2, r1
 80065be:	6961      	ldr	r1, [r4, #20]
 80065c0:	681d      	ldr	r5, [r3, #0]
 80065c2:	430a      	orrs	r2, r1
 80065c4:	4984      	ldr	r1, [pc, #528]	@ (80067d8 <UART_SetConfig+0x228>)
 80065c6:	4302      	orrs	r2, r0
 80065c8:	4029      	ands	r1, r5
 80065ca:	430a      	orrs	r2, r1
 80065cc:	601a      	str	r2, [r3, #0]
 80065ce:	685a      	ldr	r2, [r3, #4]
 80065d0:	68e1      	ldr	r1, [r4, #12]
 80065d2:	f422 5240 	bic.w	r2, r2, #12288	@ 0x3000
 80065d6:	430a      	orrs	r2, r1
 80065d8:	605a      	str	r2, [r3, #4]
 80065da:	4a80      	ldr	r2, [pc, #512]	@ (80067dc <UART_SetConfig+0x22c>)
 80065dc:	69a1      	ldr	r1, [r4, #24]
 80065de:	4293      	cmp	r3, r2
 80065e0:	bf1c      	itt	ne
 80065e2:	6a22      	ldrne	r2, [r4, #32]
 80065e4:	4311      	orrne	r1, r2
 80065e6:	689a      	ldr	r2, [r3, #8]
 80065e8:	f022 426e 	bic.w	r2, r2, #3992977408	@ 0xee000000
 80065ec:	f422 6230 	bic.w	r2, r2, #2816	@ 0xb00
 80065f0:	430a      	orrs	r2, r1
 80065f2:	609a      	str	r2, [r3, #8]
 80065f4:	6ada      	ldr	r2, [r3, #44]	@ 0x2c
 80065f6:	6a61      	ldr	r1, [r4, #36]	@ 0x24
 80065f8:	f022 020f 	bic.w	r2, r2, #15
 80065fc:	430a      	orrs	r2, r1
 80065fe:	62da      	str	r2, [r3, #44]	@ 0x2c
 8006600:	4a77      	ldr	r2, [pc, #476]	@ (80067e0 <UART_SetConfig+0x230>)
 8006602:	4293      	cmp	r3, r2
 8006604:	d130      	bne.n	8006668 <UART_SetConfig+0xb8>
 8006606:	4b77      	ldr	r3, [pc, #476]	@ (80067e4 <UART_SetConfig+0x234>)
 8006608:	f8d3 3088 	ldr.w	r3, [r3, #136]	@ 0x88
 800660c:	f003 0303 	and.w	r3, r3, #3
 8006610:	2b02      	cmp	r3, #2
 8006612:	f000 80d8 	beq.w	80067c6 <UART_SetConfig+0x216>
 8006616:	2b03      	cmp	r3, #3
 8006618:	f000 80c8 	beq.w	80067ac <UART_SetConfig+0x1fc>
 800661c:	2b01      	cmp	r3, #1
 800661e:	f000 80cc 	beq.w	80067ba <UART_SetConfig+0x20a>
 8006622:	f5b0 4f00 	cmp.w	r0, #32768	@ 0x8000
 8006626:	f040 80d3 	bne.w	80067d0 <UART_SetConfig+0x220>
 800662a:	f7fe fee1 	bl	80053f0 <HAL_RCC_GetPCLK2Freq>
 800662e:	2800      	cmp	r0, #0
 8006630:	d077      	beq.n	8006722 <UART_SetConfig+0x172>
 8006632:	6861      	ldr	r1, [r4, #4]
 8006634:	4b6c      	ldr	r3, [pc, #432]	@ (80067e8 <UART_SetConfig+0x238>)
 8006636:	6a62      	ldr	r2, [r4, #36]	@ 0x24
 8006638:	f833 2012 	ldrh.w	r2, [r3, r2, lsl #1]
 800663c:	fbb0 f2f2 	udiv	r2, r0, r2
 8006640:	084b      	lsrs	r3, r1, #1
 8006642:	eb03 0342 	add.w	r3, r3, r2, lsl #1
 8006646:	f64f 72ef 	movw	r2, #65519	@ 0xffef
 800664a:	fbb3 f3f1 	udiv	r3, r3, r1
 800664e:	f1a3 0110 	sub.w	r1, r3, #16
 8006652:	4291      	cmp	r1, r2
 8006654:	d820      	bhi.n	8006698 <UART_SetConfig+0xe8>
 8006656:	f023 020f 	bic.w	r2, r3, #15
 800665a:	6821      	ldr	r1, [r4, #0]
 800665c:	b292      	uxth	r2, r2
 800665e:	f3c3 0342 	ubfx	r3, r3, #1, #3
 8006662:	4313      	orrs	r3, r2
 8006664:	60cb      	str	r3, [r1, #12]
 8006666:	e05c      	b.n	8006722 <UART_SetConfig+0x172>
 8006668:	4a60      	ldr	r2, [pc, #384]	@ (80067ec <UART_SetConfig+0x23c>)
 800666a:	4293      	cmp	r3, r2
 800666c:	d116      	bne.n	800669c <UART_SetConfig+0xec>
 800666e:	4b5d      	ldr	r3, [pc, #372]	@ (80067e4 <UART_SetConfig+0x234>)
 8006670:	f8d3 3088 	ldr.w	r3, [r3, #136]	@ 0x88
 8006674:	f003 030c 	and.w	r3, r3, #12
 8006678:	2b08      	cmp	r3, #8
 800667a:	f000 80a4 	beq.w	80067c6 <UART_SetConfig+0x216>
 800667e:	d808      	bhi.n	8006692 <UART_SetConfig+0xe2>
 8006680:	2b00      	cmp	r3, #0
 8006682:	f040 809a 	bne.w	80067ba <UART_SetConfig+0x20a>
 8006686:	f5b0 4f00 	cmp.w	r0, #32768	@ 0x8000
 800668a:	d178      	bne.n	800677e <UART_SetConfig+0x1ce>
 800668c:	f7fe fe9e 	bl	80053cc <HAL_RCC_GetPCLK1Freq>
 8006690:	e7cd      	b.n	800662e <UART_SetConfig+0x7e>
 8006692:	2b0c      	cmp	r3, #12
 8006694:	f000 808a 	beq.w	80067ac <UART_SetConfig+0x1fc>
 8006698:	2001      	movs	r0, #1
 800669a:	e043      	b.n	8006724 <UART_SetConfig+0x174>
 800669c:	4a54      	ldr	r2, [pc, #336]	@ (80067f0 <UART_SetConfig+0x240>)
 800669e:	4293      	cmp	r3, r2
 80066a0:	d10a      	bne.n	80066b8 <UART_SetConfig+0x108>
 80066a2:	4b50      	ldr	r3, [pc, #320]	@ (80067e4 <UART_SetConfig+0x234>)
 80066a4:	f8d3 3088 	ldr.w	r3, [r3, #136]	@ 0x88
 80066a8:	f003 0330 	and.w	r3, r3, #48	@ 0x30
 80066ac:	2b20      	cmp	r3, #32
 80066ae:	f000 808a 	beq.w	80067c6 <UART_SetConfig+0x216>
 80066b2:	d9e5      	bls.n	8006680 <UART_SetConfig+0xd0>
 80066b4:	2b30      	cmp	r3, #48	@ 0x30
 80066b6:	e7ed      	b.n	8006694 <UART_SetConfig+0xe4>
 80066b8:	4a4e      	ldr	r2, [pc, #312]	@ (80067f4 <UART_SetConfig+0x244>)
 80066ba:	4293      	cmp	r3, r2
 80066bc:	d109      	bne.n	80066d2 <UART_SetConfig+0x122>
 80066be:	4b49      	ldr	r3, [pc, #292]	@ (80067e4 <UART_SetConfig+0x234>)
 80066c0:	f8d3 3088 	ldr.w	r3, [r3, #136]	@ 0x88
 80066c4:	f003 03c0 	and.w	r3, r3, #192	@ 0xc0
 80066c8:	2b80      	cmp	r3, #128	@ 0x80
 80066ca:	d07c      	beq.n	80067c6 <UART_SetConfig+0x216>
 80066cc:	d9d8      	bls.n	8006680 <UART_SetConfig+0xd0>
 80066ce:	2bc0      	cmp	r3, #192	@ 0xc0
 80066d0:	e7e0      	b.n	8006694 <UART_SetConfig+0xe4>
 80066d2:	4a49      	ldr	r2, [pc, #292]	@ (80067f8 <UART_SetConfig+0x248>)
 80066d4:	4293      	cmp	r3, r2
 80066d6:	d10b      	bne.n	80066f0 <UART_SetConfig+0x140>
 80066d8:	4b42      	ldr	r3, [pc, #264]	@ (80067e4 <UART_SetConfig+0x234>)
 80066da:	f8d3 3088 	ldr.w	r3, [r3, #136]	@ 0x88
 80066de:	f403 7340 	and.w	r3, r3, #768	@ 0x300
 80066e2:	f5b3 7f00 	cmp.w	r3, #512	@ 0x200
 80066e6:	d06e      	beq.n	80067c6 <UART_SetConfig+0x216>
 80066e8:	d9ca      	bls.n	8006680 <UART_SetConfig+0xd0>
 80066ea:	f5b3 7f40 	cmp.w	r3, #768	@ 0x300
 80066ee:	e7d1      	b.n	8006694 <UART_SetConfig+0xe4>
 80066f0:	4a3a      	ldr	r2, [pc, #232]	@ (80067dc <UART_SetConfig+0x22c>)
 80066f2:	4293      	cmp	r3, r2
 80066f4:	d1d0      	bne.n	8006698 <UART_SetConfig+0xe8>
 80066f6:	4b3b      	ldr	r3, [pc, #236]	@ (80067e4 <UART_SetConfig+0x234>)
 80066f8:	f8d3 3088 	ldr.w	r3, [r3, #136]	@ 0x88
 80066fc:	f403 6340 	and.w	r3, r3, #3072	@ 0xc00
 8006700:	f5b3 6f00 	cmp.w	r3, #2048	@ 0x800
 8006704:	d015      	beq.n	8006732 <UART_SetConfig+0x182>
 8006706:	d803      	bhi.n	8006710 <UART_SetConfig+0x160>
 8006708:	b943      	cbnz	r3, 800671c <UART_SetConfig+0x16c>
 800670a:	f7fe fe5f 	bl	80053cc <HAL_RCC_GetPCLK1Freq>
 800670e:	e007      	b.n	8006720 <UART_SetConfig+0x170>
 8006710:	f5b3 6f40 	cmp.w	r3, #3072	@ 0xc00
 8006714:	d1c0      	bne.n	8006698 <UART_SetConfig+0xe8>
 8006716:	f44f 4000 	mov.w	r0, #32768	@ 0x8000
 800671a:	e00b      	b.n	8006734 <UART_SetConfig+0x184>
 800671c:	f7fe fd26 	bl	800516c <HAL_RCC_GetSysClockFreq>
 8006720:	b940      	cbnz	r0, 8006734 <UART_SetConfig+0x184>
 8006722:	2000      	movs	r0, #0
 8006724:	f04f 1301 	mov.w	r3, #65537	@ 0x10001
 8006728:	66a3      	str	r3, [r4, #104]	@ 0x68
 800672a:	2300      	movs	r3, #0
 800672c:	e9c4 331d 	strd	r3, r3, [r4, #116]	@ 0x74
 8006730:	bdf8      	pop	{r3, r4, r5, r6, r7, pc}
 8006732:	4832      	ldr	r0, [pc, #200]	@ (80067fc <UART_SetConfig+0x24c>)
 8006734:	6865      	ldr	r5, [r4, #4]
 8006736:	4b2c      	ldr	r3, [pc, #176]	@ (80067e8 <UART_SetConfig+0x238>)
 8006738:	6a62      	ldr	r2, [r4, #36]	@ 0x24
 800673a:	eb05 0145 	add.w	r1, r5, r5, lsl #1
 800673e:	f833 2012 	ldrh.w	r2, [r3, r2, lsl #1]
 8006742:	fbb0 f3f2 	udiv	r3, r0, r2
 8006746:	4299      	cmp	r1, r3
 8006748:	d8a6      	bhi.n	8006698 <UART_SetConfig+0xe8>
 800674a:	ebb3 3f05 	cmp.w	r3, r5, lsl #12
 800674e:	d8a3      	bhi.n	8006698 <UART_SetConfig+0xe8>
 8006750:	2300      	movs	r3, #0
 8006752:	4619      	mov	r1, r3
 8006754:	f7fa faaa 	bl	8000cac <__aeabi_uldivmod>
 8006758:	2300      	movs	r3, #0
 800675a:	4619      	mov	r1, r3
 800675c:	4606      	mov	r6, r0
 800675e:	f44f 7780 	mov.w	r7, #256	@ 0x100
 8006762:	0868      	lsrs	r0, r5, #1
 8006764:	462a      	mov	r2, r5
 8006766:	fbe6 0107 	umlal	r0, r1, r6, r7
 800676a:	f7fa fa9f 	bl	8000cac <__aeabi_uldivmod>
 800676e:	4b24      	ldr	r3, [pc, #144]	@ (8006800 <UART_SetConfig+0x250>)
 8006770:	f5a0 7240 	sub.w	r2, r0, #768	@ 0x300
 8006774:	429a      	cmp	r2, r3
 8006776:	d88f      	bhi.n	8006698 <UART_SetConfig+0xe8>
 8006778:	6823      	ldr	r3, [r4, #0]
 800677a:	60d8      	str	r0, [r3, #12]
 800677c:	e7d1      	b.n	8006722 <UART_SetConfig+0x172>
 800677e:	f7fe fe25 	bl	80053cc <HAL_RCC_GetPCLK1Freq>
 8006782:	2800      	cmp	r0, #0
 8006784:	d0cd      	beq.n	8006722 <UART_SetConfig+0x172>
 8006786:	6863      	ldr	r3, [r4, #4]
 8006788:	6a61      	ldr	r1, [r4, #36]	@ 0x24
 800678a:	4a17      	ldr	r2, [pc, #92]	@ (80067e8 <UART_SetConfig+0x238>)
 800678c:	f832 2011 	ldrh.w	r2, [r2, r1, lsl #1]
 8006790:	fbb0 f0f2 	udiv	r0, r0, r2
 8006794:	eb00 0053 	add.w	r0, r0, r3, lsr #1
 8006798:	fbb0 f0f3 	udiv	r0, r0, r3
 800679c:	f64f 73ef 	movw	r3, #65519	@ 0xffef
 80067a0:	f1a0 0210 	sub.w	r2, r0, #16
 80067a4:	e7e6      	b.n	8006774 <UART_SetConfig+0x1c4>
 80067a6:	f7fe fce1 	bl	800516c <HAL_RCC_GetSysClockFreq>
 80067aa:	e7ea      	b.n	8006782 <UART_SetConfig+0x1d2>
 80067ac:	f5b0 4f00 	cmp.w	r0, #32768	@ 0x8000
 80067b0:	f43f af3f 	beq.w	8006632 <UART_SetConfig+0x82>
 80067b4:	f44f 4000 	mov.w	r0, #32768	@ 0x8000
 80067b8:	e7e5      	b.n	8006786 <UART_SetConfig+0x1d6>
 80067ba:	f5b0 4f00 	cmp.w	r0, #32768	@ 0x8000
 80067be:	d1f2      	bne.n	80067a6 <UART_SetConfig+0x1f6>
 80067c0:	f7fe fcd4 	bl	800516c <HAL_RCC_GetSysClockFreq>
 80067c4:	e733      	b.n	800662e <UART_SetConfig+0x7e>
 80067c6:	f5b0 4f00 	cmp.w	r0, #32768	@ 0x8000
 80067ca:	480c      	ldr	r0, [pc, #48]	@ (80067fc <UART_SetConfig+0x24c>)
 80067cc:	d1db      	bne.n	8006786 <UART_SetConfig+0x1d6>
 80067ce:	e730      	b.n	8006632 <UART_SetConfig+0x82>
 80067d0:	f7fe fe0e 	bl	80053f0 <HAL_RCC_GetPCLK2Freq>
 80067d4:	e7d5      	b.n	8006782 <UART_SetConfig+0x1d2>
 80067d6:	bf00      	nop
 80067d8:	cfff69f3 	.word	0xcfff69f3
 80067dc:	40008000 	.word	0x40008000
 80067e0:	40013800 	.word	0x40013800
 80067e4:	40021000 	.word	0x40021000
 80067e8:	0800a5dc 	.word	0x0800a5dc
 80067ec:	40004400 	.word	0x40004400
 80067f0:	40004800 	.word	0x40004800
 80067f4:	40004c00 	.word	0x40004c00
 80067f8:	40005000 	.word	0x40005000
 80067fc:	00f42400 	.word	0x00f42400
 8006800:	000ffcff 	.word	0x000ffcff

08006804 <UART_AdvFeatureConfig>:
 8006804:	6a83      	ldr	r3, [r0, #40]	@ 0x28
 8006806:	071a      	lsls	r2, r3, #28
 8006808:	b510      	push	{r4, lr}
 800680a:	d506      	bpl.n	800681a <UART_AdvFeatureConfig+0x16>
 800680c:	6801      	ldr	r1, [r0, #0]
 800680e:	6b84      	ldr	r4, [r0, #56]	@ 0x38
 8006810:	684a      	ldr	r2, [r1, #4]
 8006812:	f422 4200 	bic.w	r2, r2, #32768	@ 0x8000
 8006816:	4322      	orrs	r2, r4
 8006818:	604a      	str	r2, [r1, #4]
 800681a:	07dc      	lsls	r4, r3, #31
 800681c:	d506      	bpl.n	800682c <UART_AdvFeatureConfig+0x28>
 800681e:	6801      	ldr	r1, [r0, #0]
 8006820:	6ac4      	ldr	r4, [r0, #44]	@ 0x2c
 8006822:	684a      	ldr	r2, [r1, #4]
 8006824:	f422 3200 	bic.w	r2, r2, #131072	@ 0x20000
 8006828:	4322      	orrs	r2, r4
 800682a:	604a      	str	r2, [r1, #4]
 800682c:	0799      	lsls	r1, r3, #30
 800682e:	d506      	bpl.n	800683e <UART_AdvFeatureConfig+0x3a>
 8006830:	6801      	ldr	r1, [r0, #0]
 8006832:	6b04      	ldr	r4, [r0, #48]	@ 0x30
 8006834:	684a      	ldr	r2, [r1, #4]
 8006836:	f422 3280 	bic.w	r2, r2, #65536	@ 0x10000
 800683a:	4322      	orrs	r2, r4
 800683c:	604a      	str	r2, [r1, #4]
 800683e:	075a      	lsls	r2, r3, #29
 8006840:	d506      	bpl.n	8006850 <UART_AdvFeatureConfig+0x4c>
 8006842:	6801      	ldr	r1, [r0, #0]
 8006844:	6b44      	ldr	r4, [r0, #52]	@ 0x34
 8006846:	684a      	ldr	r2, [r1, #4]
 8006848:	f422 2280 	bic.w	r2, r2, #262144	@ 0x40000
 800684c:	4322      	orrs	r2, r4
 800684e:	604a      	str	r2, [r1, #4]
 8006850:	06dc      	lsls	r4, r3, #27
 8006852:	d506      	bpl.n	8006862 <UART_AdvFeatureConfig+0x5e>
 8006854:	6801      	ldr	r1, [r0, #0]
 8006856:	6bc4      	ldr	r4, [r0, #60]	@ 0x3c
 8006858:	688a      	ldr	r2, [r1, #8]
 800685a:	f422 5280 	bic.w	r2, r2, #4096	@ 0x1000
 800685e:	4322      	orrs	r2, r4
 8006860:	608a      	str	r2, [r1, #8]
 8006862:	0699      	lsls	r1, r3, #26
 8006864:	d506      	bpl.n	8006874 <UART_AdvFeatureConfig+0x70>
 8006866:	6801      	ldr	r1, [r0, #0]
 8006868:	6c04      	ldr	r4, [r0, #64]	@ 0x40
 800686a:	688a      	ldr	r2, [r1, #8]
 800686c:	f422 5200 	bic.w	r2, r2, #8192	@ 0x2000
 8006870:	4322      	orrs	r2, r4
 8006872:	608a      	str	r2, [r1, #8]
 8006874:	065a      	lsls	r2, r3, #25
 8006876:	d50f      	bpl.n	8006898 <UART_AdvFeatureConfig+0x94>
 8006878:	6801      	ldr	r1, [r0, #0]
 800687a:	6c44      	ldr	r4, [r0, #68]	@ 0x44
 800687c:	684a      	ldr	r2, [r1, #4]
 800687e:	f422 1280 	bic.w	r2, r2, #1048576	@ 0x100000
 8006882:	4322      	orrs	r2, r4
 8006884:	f5b4 1f80 	cmp.w	r4, #1048576	@ 0x100000
 8006888:	604a      	str	r2, [r1, #4]
 800688a:	d105      	bne.n	8006898 <UART_AdvFeatureConfig+0x94>
 800688c:	684a      	ldr	r2, [r1, #4]
 800688e:	6c84      	ldr	r4, [r0, #72]	@ 0x48
 8006890:	f422 02c0 	bic.w	r2, r2, #6291456	@ 0x600000
 8006894:	4322      	orrs	r2, r4
 8006896:	604a      	str	r2, [r1, #4]
 8006898:	061b      	lsls	r3, r3, #24
 800689a:	d506      	bpl.n	80068aa <UART_AdvFeatureConfig+0xa6>
 800689c:	6802      	ldr	r2, [r0, #0]
 800689e:	6cc1      	ldr	r1, [r0, #76]	@ 0x4c
 80068a0:	6853      	ldr	r3, [r2, #4]
 80068a2:	f423 2300 	bic.w	r3, r3, #524288	@ 0x80000
 80068a6:	430b      	orrs	r3, r1
 80068a8:	6053      	str	r3, [r2, #4]
 80068aa:	bd10      	pop	{r4, pc}

080068ac <UART_WaitOnFlagUntilTimeout>:
 80068ac:	e92d 43f8 	stmdb	sp!, {r3, r4, r5, r6, r7, r8, r9, lr}
 80068b0:	f8dd 9020 	ldr.w	r9, [sp, #32]
 80068b4:	4604      	mov	r4, r0
 80068b6:	460d      	mov	r5, r1
 80068b8:	4617      	mov	r7, r2
 80068ba:	4698      	mov	r8, r3
 80068bc:	6822      	ldr	r2, [r4, #0]
 80068be:	69d3      	ldr	r3, [r2, #28]
 80068c0:	ea35 0303 	bics.w	r3, r5, r3
 80068c4:	bf0c      	ite	eq
 80068c6:	2301      	moveq	r3, #1
 80068c8:	2300      	movne	r3, #0
 80068ca:	42bb      	cmp	r3, r7
 80068cc:	d001      	beq.n	80068d2 <UART_WaitOnFlagUntilTimeout+0x26>
 80068ce:	2000      	movs	r0, #0
 80068d0:	e022      	b.n	8006918 <UART_WaitOnFlagUntilTimeout+0x6c>
 80068d2:	f1b9 3fff 	cmp.w	r9, #4294967295	@ 0xffffffff
 80068d6:	d0f2      	beq.n	80068be <UART_WaitOnFlagUntilTimeout+0x12>
 80068d8:	f7fd fe94 	bl	8004604 <HAL_GetTick>
 80068dc:	eba0 0008 	sub.w	r0, r0, r8
 80068e0:	4548      	cmp	r0, r9
 80068e2:	d829      	bhi.n	8006938 <UART_WaitOnFlagUntilTimeout+0x8c>
 80068e4:	f1b9 0f00 	cmp.w	r9, #0
 80068e8:	d026      	beq.n	8006938 <UART_WaitOnFlagUntilTimeout+0x8c>
 80068ea:	6821      	ldr	r1, [r4, #0]
 80068ec:	680b      	ldr	r3, [r1, #0]
 80068ee:	075a      	lsls	r2, r3, #29
 80068f0:	d5e4      	bpl.n	80068bc <UART_WaitOnFlagUntilTimeout+0x10>
 80068f2:	2d80      	cmp	r5, #128	@ 0x80
 80068f4:	d0e2      	beq.n	80068bc <UART_WaitOnFlagUntilTimeout+0x10>
 80068f6:	2d40      	cmp	r5, #64	@ 0x40
 80068f8:	d0e0      	beq.n	80068bc <UART_WaitOnFlagUntilTimeout+0x10>
 80068fa:	69ce      	ldr	r6, [r1, #28]
 80068fc:	f016 0608 	ands.w	r6, r6, #8
 8006900:	d00c      	beq.n	800691c <UART_WaitOnFlagUntilTimeout+0x70>
 8006902:	2508      	movs	r5, #8
 8006904:	4620      	mov	r0, r4
 8006906:	620d      	str	r5, [r1, #32]
 8006908:	f7ff fa38 	bl	8005d7c <UART_EndRxTransfer>
 800690c:	2300      	movs	r3, #0
 800690e:	f8c4 5090 	str.w	r5, [r4, #144]	@ 0x90
 8006912:	f884 3084 	strb.w	r3, [r4, #132]	@ 0x84
 8006916:	2001      	movs	r0, #1
 8006918:	e8bd 83f8 	ldmia.w	sp!, {r3, r4, r5, r6, r7, r8, r9, pc}
 800691c:	69cb      	ldr	r3, [r1, #28]
 800691e:	051b      	lsls	r3, r3, #20
 8006920:	d5cc      	bpl.n	80068bc <UART_WaitOnFlagUntilTimeout+0x10>
 8006922:	f44f 6300 	mov.w	r3, #2048	@ 0x800
 8006926:	620b      	str	r3, [r1, #32]
 8006928:	4620      	mov	r0, r4
 800692a:	f7ff fa27 	bl	8005d7c <UART_EndRxTransfer>
 800692e:	2320      	movs	r3, #32
 8006930:	f8c4 3090 	str.w	r3, [r4, #144]	@ 0x90
 8006934:	f884 6084 	strb.w	r6, [r4, #132]	@ 0x84
 8006938:	2003      	movs	r0, #3
 800693a:	e7ed      	b.n	8006918 <UART_WaitOnFlagUntilTimeout+0x6c>

0800693c <HAL_UART_Transmit>:
 800693c:	e92d 43f7 	stmdb	sp!, {r0, r1, r2, r4, r5, r6, r7, r8, r9, lr}
 8006940:	4698      	mov	r8, r3
 8006942:	f8d0 3088 	ldr.w	r3, [r0, #136]	@ 0x88
 8006946:	2b20      	cmp	r3, #32
 8006948:	4604      	mov	r4, r0
 800694a:	460e      	mov	r6, r1
 800694c:	4617      	mov	r7, r2
 800694e:	d14e      	bne.n	80069ee <HAL_UART_Transmit+0xb2>
 8006950:	b919      	cbnz	r1, 800695a <HAL_UART_Transmit+0x1e>
 8006952:	2001      	movs	r0, #1
 8006954:	b003      	add	sp, #12
 8006956:	e8bd 83f0 	ldmia.w	sp!, {r4, r5, r6, r7, r8, r9, pc}
 800695a:	2a00      	cmp	r2, #0
 800695c:	d0f9      	beq.n	8006952 <HAL_UART_Transmit+0x16>
 800695e:	2321      	movs	r3, #33	@ 0x21
 8006960:	2500      	movs	r5, #0
 8006962:	f8c0 5090 	str.w	r5, [r0, #144]	@ 0x90
 8006966:	f8c0 3088 	str.w	r3, [r0, #136]	@ 0x88
 800696a:	f7fd fe4b 	bl	8004604 <HAL_GetTick>
 800696e:	68a3      	ldr	r3, [r4, #8]
 8006970:	f8a4 7054 	strh.w	r7, [r4, #84]	@ 0x54
 8006974:	f5b3 5f80 	cmp.w	r3, #4096	@ 0x1000
 8006978:	4681      	mov	r9, r0
 800697a:	f8a4 7056 	strh.w	r7, [r4, #86]	@ 0x56
 800697e:	d103      	bne.n	8006988 <HAL_UART_Transmit+0x4c>
 8006980:	6923      	ldr	r3, [r4, #16]
 8006982:	b90b      	cbnz	r3, 8006988 <HAL_UART_Transmit+0x4c>
 8006984:	4635      	mov	r5, r6
 8006986:	461e      	mov	r6, r3
 8006988:	f8b4 2056 	ldrh.w	r2, [r4, #86]	@ 0x56
 800698c:	f8cd 8000 	str.w	r8, [sp]
 8006990:	b292      	uxth	r2, r2
 8006992:	464b      	mov	r3, r9
 8006994:	b94a      	cbnz	r2, 80069aa <HAL_UART_Transmit+0x6e>
 8006996:	2140      	movs	r1, #64	@ 0x40
 8006998:	4620      	mov	r0, r4
 800699a:	f7ff ff87 	bl	80068ac <UART_WaitOnFlagUntilTimeout>
 800699e:	2320      	movs	r3, #32
 80069a0:	f8c4 3088 	str.w	r3, [r4, #136]	@ 0x88
 80069a4:	2800      	cmp	r0, #0
 80069a6:	d0d5      	beq.n	8006954 <HAL_UART_Transmit+0x18>
 80069a8:	e008      	b.n	80069bc <HAL_UART_Transmit+0x80>
 80069aa:	2200      	movs	r2, #0
 80069ac:	2180      	movs	r1, #128	@ 0x80
 80069ae:	4620      	mov	r0, r4
 80069b0:	f7ff ff7c 	bl	80068ac <UART_WaitOnFlagUntilTimeout>
 80069b4:	b120      	cbz	r0, 80069c0 <HAL_UART_Transmit+0x84>
 80069b6:	2320      	movs	r3, #32
 80069b8:	f8c4 3088 	str.w	r3, [r4, #136]	@ 0x88
 80069bc:	2003      	movs	r0, #3
 80069be:	e7c9      	b.n	8006954 <HAL_UART_Transmit+0x18>
 80069c0:	6822      	ldr	r2, [r4, #0]
 80069c2:	b98e      	cbnz	r6, 80069e8 <HAL_UART_Transmit+0xac>
 80069c4:	f835 3b02 	ldrh.w	r3, [r5], #2
 80069c8:	f3c3 0308 	ubfx	r3, r3, #0, #9
 80069cc:	6293      	str	r3, [r2, #40]	@ 0x28
 80069ce:	f8d4 3088 	ldr.w	r3, [r4, #136]	@ 0x88
 80069d2:	f003 0321 	and.w	r3, r3, #33	@ 0x21
 80069d6:	2b21      	cmp	r3, #33	@ 0x21
 80069d8:	d1bb      	bne.n	8006952 <HAL_UART_Transmit+0x16>
 80069da:	f8b4 2056 	ldrh.w	r2, [r4, #86]	@ 0x56
 80069de:	3a01      	subs	r2, #1
 80069e0:	b292      	uxth	r2, r2
 80069e2:	f8a4 2056 	strh.w	r2, [r4, #86]	@ 0x56
 80069e6:	e7cf      	b.n	8006988 <HAL_UART_Transmit+0x4c>
 80069e8:	f816 3b01 	ldrb.w	r3, [r6], #1
 80069ec:	e7ee      	b.n	80069cc <HAL_UART_Transmit+0x90>
 80069ee:	2002      	movs	r0, #2
 80069f0:	e7b0      	b.n	8006954 <HAL_UART_Transmit+0x18>

080069f2 <UART_CheckIdleState>:
 80069f2:	b573      	push	{r0, r1, r4, r5, r6, lr}
 80069f4:	4604      	mov	r4, r0
 80069f6:	2600      	movs	r6, #0
 80069f8:	f8c0 6090 	str.w	r6, [r0, #144]	@ 0x90
 80069fc:	f7fd fe02 	bl	8004604 <HAL_GetTick>
 8006a00:	6823      	ldr	r3, [r4, #0]
 8006a02:	681b      	ldr	r3, [r3, #0]
 8006a04:	071a      	lsls	r2, r3, #28
 8006a06:	4605      	mov	r5, r0
 8006a08:	d51c      	bpl.n	8006a44 <UART_CheckIdleState+0x52>
 8006a0a:	f06f 437e 	mvn.w	r3, #4261412864	@ 0xfe000000
 8006a0e:	9300      	str	r3, [sp, #0]
 8006a10:	4632      	mov	r2, r6
 8006a12:	4603      	mov	r3, r0
 8006a14:	f44f 1100 	mov.w	r1, #2097152	@ 0x200000
 8006a18:	4620      	mov	r0, r4
 8006a1a:	f7ff ff47 	bl	80068ac <UART_WaitOnFlagUntilTimeout>
 8006a1e:	b188      	cbz	r0, 8006a44 <UART_CheckIdleState+0x52>
 8006a20:	6822      	ldr	r2, [r4, #0]
 8006a22:	e852 3f00 	ldrex	r3, [r2]
 8006a26:	f023 0380 	bic.w	r3, r3, #128	@ 0x80
 8006a2a:	e842 3100 	strex	r1, r3, [r2]
 8006a2e:	2900      	cmp	r1, #0
 8006a30:	d1f6      	bne.n	8006a20 <UART_CheckIdleState+0x2e>
 8006a32:	2320      	movs	r3, #32
 8006a34:	f8c4 3088 	str.w	r3, [r4, #136]	@ 0x88
 8006a38:	2003      	movs	r0, #3
 8006a3a:	2300      	movs	r3, #0
 8006a3c:	f884 3084 	strb.w	r3, [r4, #132]	@ 0x84
 8006a40:	b002      	add	sp, #8
 8006a42:	bd70      	pop	{r4, r5, r6, pc}
 8006a44:	6823      	ldr	r3, [r4, #0]
 8006a46:	681b      	ldr	r3, [r3, #0]
 8006a48:	075b      	lsls	r3, r3, #29
 8006a4a:	d524      	bpl.n	8006a96 <UART_CheckIdleState+0xa4>
 8006a4c:	f06f 437e 	mvn.w	r3, #4261412864	@ 0xfe000000
 8006a50:	9300      	str	r3, [sp, #0]
 8006a52:	2200      	movs	r2, #0
 8006a54:	462b      	mov	r3, r5
 8006a56:	f44f 0180 	mov.w	r1, #4194304	@ 0x400000
 8006a5a:	4620      	mov	r0, r4
 8006a5c:	f7ff ff26 	bl	80068ac <UART_WaitOnFlagUntilTimeout>
 8006a60:	b1c8      	cbz	r0, 8006a96 <UART_CheckIdleState+0xa4>
 8006a62:	6822      	ldr	r2, [r4, #0]
 8006a64:	e852 3f00 	ldrex	r3, [r2]
 8006a68:	f423 7390 	bic.w	r3, r3, #288	@ 0x120
 8006a6c:	e842 3100 	strex	r1, r3, [r2]
 8006a70:	6822      	ldr	r2, [r4, #0]
 8006a72:	2900      	cmp	r1, #0
 8006a74:	d1f5      	bne.n	8006a62 <UART_CheckIdleState+0x70>
 8006a76:	f102 0308 	add.w	r3, r2, #8
 8006a7a:	e853 3f00 	ldrex	r3, [r3]
 8006a7e:	f023 0301 	bic.w	r3, r3, #1
 8006a82:	f102 0008 	add.w	r0, r2, #8
 8006a86:	e840 3100 	strex	r1, r3, [r0]
 8006a8a:	2900      	cmp	r1, #0
 8006a8c:	d1f3      	bne.n	8006a76 <UART_CheckIdleState+0x84>
 8006a8e:	2320      	movs	r3, #32
 8006a90:	f8c4 308c 	str.w	r3, [r4, #140]	@ 0x8c
 8006a94:	e7d0      	b.n	8006a38 <UART_CheckIdleState+0x46>
 8006a96:	2320      	movs	r3, #32
 8006a98:	2000      	movs	r0, #0
 8006a9a:	f8c4 3088 	str.w	r3, [r4, #136]	@ 0x88
 8006a9e:	f8c4 308c 	str.w	r3, [r4, #140]	@ 0x8c
 8006aa2:	66e0      	str	r0, [r4, #108]	@ 0x6c
 8006aa4:	6720      	str	r0, [r4, #112]	@ 0x70
 8006aa6:	e7c8      	b.n	8006a3a <UART_CheckIdleState+0x48>

08006aa8 <HAL_UART_Init>:
 8006aa8:	b510      	push	{r4, lr}
 8006aaa:	4604      	mov	r4, r0
 8006aac:	b350      	cbz	r0, 8006b04 <HAL_UART_Init+0x5c>
 8006aae:	f8d0 3088 	ldr.w	r3, [r0, #136]	@ 0x88
 8006ab2:	b91b      	cbnz	r3, 8006abc <HAL_UART_Init+0x14>
 8006ab4:	f880 3084 	strb.w	r3, [r0, #132]	@ 0x84
 8006ab8:	f7fd fcf0 	bl	800449c <HAL_UART_MspInit>
 8006abc:	6822      	ldr	r2, [r4, #0]
 8006abe:	2324      	movs	r3, #36	@ 0x24
 8006ac0:	f8c4 3088 	str.w	r3, [r4, #136]	@ 0x88
 8006ac4:	6813      	ldr	r3, [r2, #0]
 8006ac6:	f023 0301 	bic.w	r3, r3, #1
 8006aca:	6013      	str	r3, [r2, #0]
 8006acc:	6aa3      	ldr	r3, [r4, #40]	@ 0x28
 8006ace:	b113      	cbz	r3, 8006ad6 <HAL_UART_Init+0x2e>
 8006ad0:	4620      	mov	r0, r4
 8006ad2:	f7ff fe97 	bl	8006804 <UART_AdvFeatureConfig>
 8006ad6:	4620      	mov	r0, r4
 8006ad8:	f7ff fd6a 	bl	80065b0 <UART_SetConfig>
 8006adc:	2801      	cmp	r0, #1
 8006ade:	d011      	beq.n	8006b04 <HAL_UART_Init+0x5c>
 8006ae0:	6823      	ldr	r3, [r4, #0]
 8006ae2:	685a      	ldr	r2, [r3, #4]
 8006ae4:	f422 4290 	bic.w	r2, r2, #18432	@ 0x4800
 8006ae8:	605a      	str	r2, [r3, #4]
 8006aea:	689a      	ldr	r2, [r3, #8]
 8006aec:	f022 022a 	bic.w	r2, r2, #42	@ 0x2a
 8006af0:	609a      	str	r2, [r3, #8]
 8006af2:	681a      	ldr	r2, [r3, #0]
 8006af4:	f042 0201 	orr.w	r2, r2, #1
 8006af8:	4620      	mov	r0, r4
 8006afa:	601a      	str	r2, [r3, #0]
 8006afc:	e8bd 4010 	ldmia.w	sp!, {r4, lr}
 8006b00:	f7ff bf77 	b.w	80069f2 <UART_CheckIdleState>
 8006b04:	2001      	movs	r0, #1
 8006b06:	bd10      	pop	{r4, pc}

08006b08 <UART_Start_Receive_IT>:
 8006b08:	b530      	push	{r4, r5, lr}
 8006b0a:	6581      	str	r1, [r0, #88]	@ 0x58
 8006b0c:	6881      	ldr	r1, [r0, #8]
 8006b0e:	f8a0 205c 	strh.w	r2, [r0, #92]	@ 0x5c
 8006b12:	2300      	movs	r3, #0
 8006b14:	f5b1 5f80 	cmp.w	r1, #4096	@ 0x1000
 8006b18:	f8a0 205e 	strh.w	r2, [r0, #94]	@ 0x5e
 8006b1c:	6743      	str	r3, [r0, #116]	@ 0x74
 8006b1e:	d131      	bne.n	8006b84 <UART_Start_Receive_IT+0x7c>
 8006b20:	6903      	ldr	r3, [r0, #16]
 8006b22:	2b00      	cmp	r3, #0
 8006b24:	f240 13ff 	movw	r3, #511	@ 0x1ff
 8006b28:	bf18      	it	ne
 8006b2a:	23ff      	movne	r3, #255	@ 0xff
 8006b2c:	f8a0 3060 	strh.w	r3, [r0, #96]	@ 0x60
 8006b30:	2300      	movs	r3, #0
 8006b32:	f8c0 3090 	str.w	r3, [r0, #144]	@ 0x90
 8006b36:	2322      	movs	r3, #34	@ 0x22
 8006b38:	f8c0 308c 	str.w	r3, [r0, #140]	@ 0x8c
 8006b3c:	6801      	ldr	r1, [r0, #0]
 8006b3e:	f101 0308 	add.w	r3, r1, #8
 8006b42:	e853 3f00 	ldrex	r3, [r3]
 8006b46:	f043 0301 	orr.w	r3, r3, #1
 8006b4a:	3108      	adds	r1, #8
 8006b4c:	e841 3400 	strex	r4, r3, [r1]
 8006b50:	6803      	ldr	r3, [r0, #0]
 8006b52:	2c00      	cmp	r4, #0
 8006b54:	d1f2      	bne.n	8006b3c <UART_Start_Receive_IT+0x34>
 8006b56:	6e45      	ldr	r5, [r0, #100]	@ 0x64
 8006b58:	6884      	ldr	r4, [r0, #8]
 8006b5a:	6901      	ldr	r1, [r0, #16]
 8006b5c:	f1b5 5f00 	cmp.w	r5, #536870912	@ 0x20000000
 8006b60:	d135      	bne.n	8006bce <UART_Start_Receive_IT+0xc6>
 8006b62:	f8b0 5068 	ldrh.w	r5, [r0, #104]	@ 0x68
 8006b66:	4295      	cmp	r5, r2
 8006b68:	d831      	bhi.n	8006bce <UART_Start_Receive_IT+0xc6>
 8006b6a:	f5b4 5f80 	cmp.w	r4, #4096	@ 0x1000
 8006b6e:	d129      	bne.n	8006bc4 <UART_Start_Receive_IT+0xbc>
 8006b70:	b1c1      	cbz	r1, 8006ba4 <UART_Start_Receive_IT+0x9c>
 8006b72:	4a26      	ldr	r2, [pc, #152]	@ (8006c0c <UART_Start_Receive_IT+0x104>)
 8006b74:	6742      	str	r2, [r0, #116]	@ 0x74
 8006b76:	e853 2f00 	ldrex	r2, [r3]
 8006b7a:	f442 7280 	orr.w	r2, r2, #256	@ 0x100
 8006b7e:	e843 2100 	strex	r1, r2, [r3]
 8006b82:	e021      	b.n	8006bc8 <UART_Start_Receive_IT+0xc0>
 8006b84:	b929      	cbnz	r1, 8006b92 <UART_Start_Receive_IT+0x8a>
 8006b86:	6903      	ldr	r3, [r0, #16]
 8006b88:	2b00      	cmp	r3, #0
 8006b8a:	bf0c      	ite	eq
 8006b8c:	23ff      	moveq	r3, #255	@ 0xff
 8006b8e:	237f      	movne	r3, #127	@ 0x7f
 8006b90:	e7cc      	b.n	8006b2c <UART_Start_Receive_IT+0x24>
 8006b92:	f1b1 5f80 	cmp.w	r1, #268435456	@ 0x10000000
 8006b96:	d1c9      	bne.n	8006b2c <UART_Start_Receive_IT+0x24>
 8006b98:	6903      	ldr	r3, [r0, #16]
 8006b9a:	2b00      	cmp	r3, #0
 8006b9c:	bf0c      	ite	eq
 8006b9e:	237f      	moveq	r3, #127	@ 0x7f
 8006ba0:	233f      	movne	r3, #63	@ 0x3f
 8006ba2:	e7c3      	b.n	8006b2c <UART_Start_Receive_IT+0x24>
 8006ba4:	4a1a      	ldr	r2, [pc, #104]	@ (8006c10 <UART_Start_Receive_IT+0x108>)
 8006ba6:	6742      	str	r2, [r0, #116]	@ 0x74
 8006ba8:	f103 0208 	add.w	r2, r3, #8
 8006bac:	e852 2f00 	ldrex	r2, [r2]
 8006bb0:	f042 5280 	orr.w	r2, r2, #268435456	@ 0x10000000
 8006bb4:	f103 0008 	add.w	r0, r3, #8
 8006bb8:	e840 2100 	strex	r1, r2, [r0]
 8006bbc:	2900      	cmp	r1, #0
 8006bbe:	d1f3      	bne.n	8006ba8 <UART_Start_Receive_IT+0xa0>
 8006bc0:	2000      	movs	r0, #0
 8006bc2:	bd30      	pop	{r4, r5, pc}
 8006bc4:	4a11      	ldr	r2, [pc, #68]	@ (8006c0c <UART_Start_Receive_IT+0x104>)
 8006bc6:	6742      	str	r2, [r0, #116]	@ 0x74
 8006bc8:	2900      	cmp	r1, #0
 8006bca:	d1d4      	bne.n	8006b76 <UART_Start_Receive_IT+0x6e>
 8006bcc:	e7ec      	b.n	8006ba8 <UART_Start_Receive_IT+0xa0>
 8006bce:	f5b4 5f80 	cmp.w	r4, #4096	@ 0x1000
 8006bd2:	d116      	bne.n	8006c02 <UART_Start_Receive_IT+0xfa>
 8006bd4:	b151      	cbz	r1, 8006bec <UART_Start_Receive_IT+0xe4>
 8006bd6:	4a0f      	ldr	r2, [pc, #60]	@ (8006c14 <UART_Start_Receive_IT+0x10c>)
 8006bd8:	6742      	str	r2, [r0, #116]	@ 0x74
 8006bda:	e853 2f00 	ldrex	r2, [r3]
 8006bde:	f442 7290 	orr.w	r2, r2, #288	@ 0x120
 8006be2:	e843 2100 	strex	r1, r2, [r3]
 8006be6:	2900      	cmp	r1, #0
 8006be8:	d1f7      	bne.n	8006bda <UART_Start_Receive_IT+0xd2>
 8006bea:	e7e9      	b.n	8006bc0 <UART_Start_Receive_IT+0xb8>
 8006bec:	4a0a      	ldr	r2, [pc, #40]	@ (8006c18 <UART_Start_Receive_IT+0x110>)
 8006bee:	6742      	str	r2, [r0, #116]	@ 0x74
 8006bf0:	e853 2f00 	ldrex	r2, [r3]
 8006bf4:	f042 0220 	orr.w	r2, r2, #32
 8006bf8:	e843 2100 	strex	r1, r2, [r3]
 8006bfc:	2900      	cmp	r1, #0
 8006bfe:	d1f7      	bne.n	8006bf0 <UART_Start_Receive_IT+0xe8>
 8006c00:	e7de      	b.n	8006bc0 <UART_Start_Receive_IT+0xb8>
 8006c02:	4a04      	ldr	r2, [pc, #16]	@ (8006c14 <UART_Start_Receive_IT+0x10c>)
 8006c04:	6742      	str	r2, [r0, #116]	@ 0x74
 8006c06:	2900      	cmp	r1, #0
 8006c08:	d1e7      	bne.n	8006bda <UART_Start_Receive_IT+0xd2>
 8006c0a:	e7f1      	b.n	8006bf0 <UART_Start_Receive_IT+0xe8>
 8006c0c:	08006279 	.word	0x08006279
 8006c10:	08006419 	.word	0x08006419
 8006c14:	080060e9 	.word	0x080060e9
 8006c18:	080061b5 	.word	0x080061b5

08006c1c <HAL_UART_Receive_IT>:
 8006c1c:	b538      	push	{r3, r4, r5, lr}
 8006c1e:	f8d0 308c 	ldr.w	r3, [r0, #140]	@ 0x8c
 8006c22:	2b20      	cmp	r3, #32
 8006c24:	d116      	bne.n	8006c54 <HAL_UART_Receive_IT+0x38>
 8006c26:	b1b9      	cbz	r1, 8006c58 <HAL_UART_Receive_IT+0x3c>
 8006c28:	b1b2      	cbz	r2, 8006c58 <HAL_UART_Receive_IT+0x3c>
 8006c2a:	2300      	movs	r3, #0
 8006c2c:	6804      	ldr	r4, [r0, #0]
 8006c2e:	66c3      	str	r3, [r0, #108]	@ 0x6c
 8006c30:	4b0a      	ldr	r3, [pc, #40]	@ (8006c5c <HAL_UART_Receive_IT+0x40>)
 8006c32:	429c      	cmp	r4, r3
 8006c34:	d00a      	beq.n	8006c4c <HAL_UART_Receive_IT+0x30>
 8006c36:	6863      	ldr	r3, [r4, #4]
 8006c38:	021b      	lsls	r3, r3, #8
 8006c3a:	d507      	bpl.n	8006c4c <HAL_UART_Receive_IT+0x30>
 8006c3c:	e854 3f00 	ldrex	r3, [r4]
 8006c40:	f043 6380 	orr.w	r3, r3, #67108864	@ 0x4000000
 8006c44:	e844 3500 	strex	r5, r3, [r4]
 8006c48:	2d00      	cmp	r5, #0
 8006c4a:	d1f7      	bne.n	8006c3c <HAL_UART_Receive_IT+0x20>
 8006c4c:	f7ff ff5c 	bl	8006b08 <UART_Start_Receive_IT>
 8006c50:	2000      	movs	r0, #0
 8006c52:	bd38      	pop	{r3, r4, r5, pc}
 8006c54:	2002      	movs	r0, #2
 8006c56:	e7fc      	b.n	8006c52 <HAL_UART_Receive_IT+0x36>
 8006c58:	2001      	movs	r0, #1
 8006c5a:	e7fa      	b.n	8006c52 <HAL_UART_Receive_IT+0x36>
 8006c5c:	40008000 	.word	0x40008000

08006c60 <UARTEx_SetNbDataToProcess>:
 8006c60:	6e43      	ldr	r3, [r0, #100]	@ 0x64
 8006c62:	b530      	push	{r4, r5, lr}
 8006c64:	b92b      	cbnz	r3, 8006c72 <UARTEx_SetNbDataToProcess+0x12>
 8006c66:	2301      	movs	r3, #1
 8006c68:	f8a0 306a 	strh.w	r3, [r0, #106]	@ 0x6a
 8006c6c:	f8a0 3068 	strh.w	r3, [r0, #104]	@ 0x68
 8006c70:	bd30      	pop	{r4, r5, pc}
 8006c72:	6803      	ldr	r3, [r0, #0]
 8006c74:	4d09      	ldr	r5, [pc, #36]	@ (8006c9c <UARTEx_SetNbDataToProcess+0x3c>)
 8006c76:	689a      	ldr	r2, [r3, #8]
 8006c78:	6899      	ldr	r1, [r3, #8]
 8006c7a:	4c09      	ldr	r4, [pc, #36]	@ (8006ca0 <UARTEx_SetNbDataToProcess+0x40>)
 8006c7c:	0f49      	lsrs	r1, r1, #29
 8006c7e:	f3c2 6242 	ubfx	r2, r2, #25, #3
 8006c82:	5c6b      	ldrb	r3, [r5, r1]
 8006c84:	5c61      	ldrb	r1, [r4, r1]
 8006c86:	00db      	lsls	r3, r3, #3
 8006c88:	fbb3 f3f1 	udiv	r3, r3, r1
 8006c8c:	f8a0 306a 	strh.w	r3, [r0, #106]	@ 0x6a
 8006c90:	5cab      	ldrb	r3, [r5, r2]
 8006c92:	5ca2      	ldrb	r2, [r4, r2]
 8006c94:	00db      	lsls	r3, r3, #3
 8006c96:	fbb3 f3f2 	udiv	r3, r3, r2
 8006c9a:	e7e7      	b.n	8006c6c <UARTEx_SetNbDataToProcess+0xc>
 8006c9c:	0800a5fc 	.word	0x0800a5fc
 8006ca0:	0800a5f4 	.word	0x0800a5f4

08006ca4 <HAL_UARTEx_WakeupCallback>:
 8006ca4:	4770      	bx	lr

08006ca6 <HAL_UARTEx_RxFifoFullCallback>:
 8006ca6:	4770      	bx	lr

08006ca8 <HAL_UARTEx_TxFifoEmptyCallback>:
 8006ca8:	4770      	bx	lr

08006caa <HAL_UARTEx_DisableFifoMode>:
 8006caa:	f890 3084 	ldrb.w	r3, [r0, #132]	@ 0x84
 8006cae:	2b01      	cmp	r3, #1
 8006cb0:	d014      	beq.n	8006cdc <HAL_UARTEx_DisableFifoMode+0x32>
 8006cb2:	6802      	ldr	r2, [r0, #0]
 8006cb4:	2324      	movs	r3, #36	@ 0x24
 8006cb6:	f8c0 3088 	str.w	r3, [r0, #136]	@ 0x88
 8006cba:	6811      	ldr	r1, [r2, #0]
 8006cbc:	6813      	ldr	r3, [r2, #0]
 8006cbe:	f023 0301 	bic.w	r3, r3, #1
 8006cc2:	6013      	str	r3, [r2, #0]
 8006cc4:	f021 5100 	bic.w	r1, r1, #536870912	@ 0x20000000
 8006cc8:	2300      	movs	r3, #0
 8006cca:	6643      	str	r3, [r0, #100]	@ 0x64
 8006ccc:	6011      	str	r1, [r2, #0]
 8006cce:	2220      	movs	r2, #32
 8006cd0:	f8c0 2088 	str.w	r2, [r0, #136]	@ 0x88
 8006cd4:	f880 3084 	strb.w	r3, [r0, #132]	@ 0x84
 8006cd8:	4618      	mov	r0, r3
 8006cda:	4770      	bx	lr
 8006cdc:	2002      	movs	r0, #2
 8006cde:	4770      	bx	lr

08006ce0 <HAL_UARTEx_SetTxFifoThreshold>:
 8006ce0:	b570      	push	{r4, r5, r6, lr}
 8006ce2:	f890 3084 	ldrb.w	r3, [r0, #132]	@ 0x84
 8006ce6:	2b01      	cmp	r3, #1
 8006ce8:	4604      	mov	r4, r0
 8006cea:	d017      	beq.n	8006d1c <HAL_UARTEx_SetTxFifoThreshold+0x3c>
 8006cec:	6805      	ldr	r5, [r0, #0]
 8006cee:	2324      	movs	r3, #36	@ 0x24
 8006cf0:	f8c0 3088 	str.w	r3, [r0, #136]	@ 0x88
 8006cf4:	682e      	ldr	r6, [r5, #0]
 8006cf6:	682b      	ldr	r3, [r5, #0]
 8006cf8:	f023 0301 	bic.w	r3, r3, #1
 8006cfc:	602b      	str	r3, [r5, #0]
 8006cfe:	68ab      	ldr	r3, [r5, #8]
 8006d00:	f023 4360 	bic.w	r3, r3, #3758096384	@ 0xe0000000
 8006d04:	4319      	orrs	r1, r3
 8006d06:	60a9      	str	r1, [r5, #8]
 8006d08:	f7ff ffaa 	bl	8006c60 <UARTEx_SetNbDataToProcess>
 8006d0c:	2320      	movs	r3, #32
 8006d0e:	602e      	str	r6, [r5, #0]
 8006d10:	f8c0 3088 	str.w	r3, [r0, #136]	@ 0x88
 8006d14:	2000      	movs	r0, #0
 8006d16:	f884 0084 	strb.w	r0, [r4, #132]	@ 0x84
 8006d1a:	bd70      	pop	{r4, r5, r6, pc}
 8006d1c:	2002      	movs	r0, #2
 8006d1e:	e7fc      	b.n	8006d1a <HAL_UARTEx_SetTxFifoThreshold+0x3a>

08006d20 <HAL_UARTEx_SetRxFifoThreshold>:
 8006d20:	b570      	push	{r4, r5, r6, lr}
 8006d22:	f890 3084 	ldrb.w	r3, [r0, #132]	@ 0x84
 8006d26:	2b01      	cmp	r3, #1
 8006d28:	4604      	mov	r4, r0
 8006d2a:	d017      	beq.n	8006d5c <HAL_UARTEx_SetRxFifoThreshold+0x3c>
 8006d2c:	6805      	ldr	r5, [r0, #0]
 8006d2e:	2324      	movs	r3, #36	@ 0x24
 8006d30:	f8c0 3088 	str.w	r3, [r0, #136]	@ 0x88
 8006d34:	682e      	ldr	r6, [r5, #0]
 8006d36:	682b      	ldr	r3, [r5, #0]
 8006d38:	f023 0301 	bic.w	r3, r3, #1
 8006d3c:	602b      	str	r3, [r5, #0]
 8006d3e:	68ab      	ldr	r3, [r5, #8]
 8006d40:	f023 6360 	bic.w	r3, r3, #234881024	@ 0xe000000
 8006d44:	4319      	orrs	r1, r3
 8006d46:	60a9      	str	r1, [r5, #8]
 8006d48:	f7ff ff8a 	bl	8006c60 <UARTEx_SetNbDataToProcess>
 8006d4c:	2320      	movs	r3, #32
 8006d4e:	602e      	str	r6, [r5, #0]
 8006d50:	f8c0 3088 	str.w	r3, [r0, #136]	@ 0x88
 8006d54:	2000      	movs	r0, #0
 8006d56:	f884 0084 	strb.w	r0, [r4, #132]	@ 0x84
 8006d5a:	bd70      	pop	{r4, r5, r6, pc}
 8006d5c:	2002      	movs	r0, #2
 8006d5e:	e7fc      	b.n	8006d5a <HAL_UARTEx_SetRxFifoThreshold+0x3a>

08006d60 <atof>:
 8006d60:	2100      	movs	r1, #0
 8006d62:	f000 bea5 	b.w	8007ab0 <strtod>

08006d66 <atoi>:
 8006d66:	220a      	movs	r2, #10
 8006d68:	2100      	movs	r1, #0
 8006d6a:	f000 bf27 	b.w	8007bbc <strtol>
	...

08006d70 <std>:
 8006d70:	2300      	movs	r3, #0
 8006d72:	b510      	push	{r4, lr}
 8006d74:	4604      	mov	r4, r0
 8006d76:	e9c0 3300 	strd	r3, r3, [r0]
 8006d7a:	e9c0 3304 	strd	r3, r3, [r0, #16]
 8006d7e:	6083      	str	r3, [r0, #8]
 8006d80:	8181      	strh	r1, [r0, #12]
 8006d82:	6643      	str	r3, [r0, #100]	@ 0x64
 8006d84:	81c2      	strh	r2, [r0, #14]
 8006d86:	6183      	str	r3, [r0, #24]
 8006d88:	4619      	mov	r1, r3
 8006d8a:	2208      	movs	r2, #8
 8006d8c:	305c      	adds	r0, #92	@ 0x5c
 8006d8e:	f000 ff3d 	bl	8007c0c <memset>
 8006d92:	4b0d      	ldr	r3, [pc, #52]	@ (8006dc8 <std+0x58>)
 8006d94:	6263      	str	r3, [r4, #36]	@ 0x24
 8006d96:	4b0d      	ldr	r3, [pc, #52]	@ (8006dcc <std+0x5c>)
 8006d98:	62a3      	str	r3, [r4, #40]	@ 0x28
 8006d9a:	4b0d      	ldr	r3, [pc, #52]	@ (8006dd0 <std+0x60>)
 8006d9c:	62e3      	str	r3, [r4, #44]	@ 0x2c
 8006d9e:	4b0d      	ldr	r3, [pc, #52]	@ (8006dd4 <std+0x64>)
 8006da0:	6323      	str	r3, [r4, #48]	@ 0x30
 8006da2:	4b0d      	ldr	r3, [pc, #52]	@ (8006dd8 <std+0x68>)
 8006da4:	6224      	str	r4, [r4, #32]
 8006da6:	429c      	cmp	r4, r3
 8006da8:	d006      	beq.n	8006db8 <std+0x48>
 8006daa:	f103 0268 	add.w	r2, r3, #104	@ 0x68
 8006dae:	4294      	cmp	r4, r2
 8006db0:	d002      	beq.n	8006db8 <std+0x48>
 8006db2:	33d0      	adds	r3, #208	@ 0xd0
 8006db4:	429c      	cmp	r4, r3
 8006db6:	d105      	bne.n	8006dc4 <std+0x54>
 8006db8:	f104 0058 	add.w	r0, r4, #88	@ 0x58
 8006dbc:	e8bd 4010 	ldmia.w	sp!, {r4, lr}
 8006dc0:	f000 bf88 	b.w	8007cd4 <__retarget_lock_init_recursive>
 8006dc4:	bd10      	pop	{r4, pc}
 8006dc6:	bf00      	nop
 8006dc8:	08008fc5 	.word	0x08008fc5
 8006dcc:	08008fe7 	.word	0x08008fe7
 8006dd0:	0800901f 	.word	0x0800901f
 8006dd4:	08009045 	.word	0x08009045
 8006dd8:	2000077c 	.word	0x2000077c

08006ddc <stdio_exit_handler>:
 8006ddc:	4a02      	ldr	r2, [pc, #8]	@ (8006de8 <stdio_exit_handler+0xc>)
 8006dde:	4903      	ldr	r1, [pc, #12]	@ (8006dec <stdio_exit_handler+0x10>)
 8006de0:	4803      	ldr	r0, [pc, #12]	@ (8006df0 <stdio_exit_handler+0x14>)
 8006de2:	f000 bef5 	b.w	8007bd0 <_fwalk_sglue>
 8006de6:	bf00      	nop
 8006de8:	20000018 	.word	0x20000018
 8006dec:	080085ed 	.word	0x080085ed
 8006df0:	20000194 	.word	0x20000194

08006df4 <cleanup_stdio>:
 8006df4:	6841      	ldr	r1, [r0, #4]
 8006df6:	4b0c      	ldr	r3, [pc, #48]	@ (8006e28 <cleanup_stdio+0x34>)
 8006df8:	4299      	cmp	r1, r3
 8006dfa:	b510      	push	{r4, lr}
 8006dfc:	4604      	mov	r4, r0
 8006dfe:	d001      	beq.n	8006e04 <cleanup_stdio+0x10>
 8006e00:	f001 fbf4 	bl	80085ec <_fflush_r>
 8006e04:	68a1      	ldr	r1, [r4, #8]
 8006e06:	4b09      	ldr	r3, [pc, #36]	@ (8006e2c <cleanup_stdio+0x38>)
 8006e08:	4299      	cmp	r1, r3
 8006e0a:	d002      	beq.n	8006e12 <cleanup_stdio+0x1e>
 8006e0c:	4620      	mov	r0, r4
 8006e0e:	f001 fbed 	bl	80085ec <_fflush_r>
 8006e12:	68e1      	ldr	r1, [r4, #12]
 8006e14:	4b06      	ldr	r3, [pc, #24]	@ (8006e30 <cleanup_stdio+0x3c>)
 8006e16:	4299      	cmp	r1, r3
 8006e18:	d004      	beq.n	8006e24 <cleanup_stdio+0x30>
 8006e1a:	4620      	mov	r0, r4
 8006e1c:	e8bd 4010 	ldmia.w	sp!, {r4, lr}
 8006e20:	f001 bbe4 	b.w	80085ec <_fflush_r>
 8006e24:	bd10      	pop	{r4, pc}
 8006e26:	bf00      	nop
 8006e28:	2000077c 	.word	0x2000077c
 8006e2c:	200007e4 	.word	0x200007e4
 8006e30:	2000084c 	.word	0x2000084c

08006e34 <global_stdio_init.part.0>:
 8006e34:	4b0c      	ldr	r3, [pc, #48]	@ (8006e68 <global_stdio_init.part.0+0x34>)
 8006e36:	4a0d      	ldr	r2, [pc, #52]	@ (8006e6c <global_stdio_init.part.0+0x38>)
 8006e38:	480d      	ldr	r0, [pc, #52]	@ (8006e70 <global_stdio_init.part.0+0x3c>)
 8006e3a:	b510      	push	{r4, lr}
 8006e3c:	2104      	movs	r1, #4
 8006e3e:	601a      	str	r2, [r3, #0]
 8006e40:	2200      	movs	r2, #0
 8006e42:	f7ff ff95 	bl	8006d70 <std>
 8006e46:	4b0a      	ldr	r3, [pc, #40]	@ (8006e70 <global_stdio_init.part.0+0x3c>)
 8006e48:	2201      	movs	r2, #1
 8006e4a:	461c      	mov	r4, r3
 8006e4c:	2109      	movs	r1, #9
 8006e4e:	f103 0068 	add.w	r0, r3, #104	@ 0x68
 8006e52:	f7ff ff8d 	bl	8006d70 <std>
 8006e56:	f104 00d0 	add.w	r0, r4, #208	@ 0xd0
 8006e5a:	2202      	movs	r2, #2
 8006e5c:	e8bd 4010 	ldmia.w	sp!, {r4, lr}
 8006e60:	2112      	movs	r1, #18
 8006e62:	f7ff bf85 	b.w	8006d70 <std>
 8006e66:	bf00      	nop
 8006e68:	200008b4 	.word	0x200008b4
 8006e6c:	08006ddd 	.word	0x08006ddd
 8006e70:	2000077c 	.word	0x2000077c

08006e74 <__sfp_lock_acquire>:
 8006e74:	4801      	ldr	r0, [pc, #4]	@ (8006e7c <__sfp_lock_acquire+0x8>)
 8006e76:	f000 bf2e 	b.w	8007cd6 <__retarget_lock_acquire_recursive>
 8006e7a:	bf00      	nop
 8006e7c:	200008b9 	.word	0x200008b9

08006e80 <__sfp_lock_release>:
 8006e80:	4801      	ldr	r0, [pc, #4]	@ (8006e88 <__sfp_lock_release+0x8>)
 8006e82:	f000 bf29 	b.w	8007cd8 <__retarget_lock_release_recursive>
 8006e86:	bf00      	nop
 8006e88:	200008b9 	.word	0x200008b9

08006e8c <__sinit>:
 8006e8c:	b510      	push	{r4, lr}
 8006e8e:	4604      	mov	r4, r0
 8006e90:	f7ff fff0 	bl	8006e74 <__sfp_lock_acquire>
 8006e94:	6a23      	ldr	r3, [r4, #32]
 8006e96:	b11b      	cbz	r3, 8006ea0 <__sinit+0x14>
 8006e98:	e8bd 4010 	ldmia.w	sp!, {r4, lr}
 8006e9c:	f7ff bff0 	b.w	8006e80 <__sfp_lock_release>
 8006ea0:	4b04      	ldr	r3, [pc, #16]	@ (8006eb4 <__sinit+0x28>)
 8006ea2:	6223      	str	r3, [r4, #32]
 8006ea4:	4b04      	ldr	r3, [pc, #16]	@ (8006eb8 <__sinit+0x2c>)
 8006ea6:	681b      	ldr	r3, [r3, #0]
 8006ea8:	2b00      	cmp	r3, #0
 8006eaa:	d1f5      	bne.n	8006e98 <__sinit+0xc>
 8006eac:	f7ff ffc2 	bl	8006e34 <global_stdio_init.part.0>
 8006eb0:	e7f2      	b.n	8006e98 <__sinit+0xc>
 8006eb2:	bf00      	nop
 8006eb4:	08006df5 	.word	0x08006df5
 8006eb8:	200008b4 	.word	0x200008b4

08006ebc <sulp>:
 8006ebc:	b570      	push	{r4, r5, r6, lr}
 8006ebe:	4604      	mov	r4, r0
 8006ec0:	460d      	mov	r5, r1
 8006ec2:	ec45 4b10 	vmov	d0, r4, r5
 8006ec6:	4616      	mov	r6, r2
 8006ec8:	f001 ff3e 	bl	8008d48 <__ulp>
 8006ecc:	ec51 0b10 	vmov	r0, r1, d0
 8006ed0:	b17e      	cbz	r6, 8006ef2 <sulp+0x36>
 8006ed2:	f3c5 530a 	ubfx	r3, r5, #20, #11
 8006ed6:	f1c3 036b 	rsb	r3, r3, #107	@ 0x6b
 8006eda:	2b00      	cmp	r3, #0
 8006edc:	dd09      	ble.n	8006ef2 <sulp+0x36>
 8006ede:	051b      	lsls	r3, r3, #20
 8006ee0:	f103 557f 	add.w	r5, r3, #1069547520	@ 0x3fc00000
 8006ee4:	2400      	movs	r4, #0
 8006ee6:	f505 1540 	add.w	r5, r5, #3145728	@ 0x300000
 8006eea:	4622      	mov	r2, r4
 8006eec:	462b      	mov	r3, r5
 8006eee:	f7f9 fbab 	bl	8000648 <__aeabi_dmul>
 8006ef2:	ec41 0b10 	vmov	d0, r0, r1
 8006ef6:	bd70      	pop	{r4, r5, r6, pc}

08006ef8 <_strtod_l>:
 8006ef8:	e92d 4ff0 	stmdb	sp!, {r4, r5, r6, r7, r8, r9, sl, fp, lr}
 8006efc:	b09d      	sub	sp, #116	@ 0x74
 8006efe:	460e      	mov	r6, r1
 8006f00:	9215      	str	r2, [sp, #84]	@ 0x54
 8006f02:	2200      	movs	r2, #0
 8006f04:	9004      	str	r0, [sp, #16]
 8006f06:	9218      	str	r2, [sp, #96]	@ 0x60
 8006f08:	f04f 0800 	mov.w	r8, #0
 8006f0c:	f04f 0900 	mov.w	r9, #0
 8006f10:	9117      	str	r1, [sp, #92]	@ 0x5c
 8006f12:	780a      	ldrb	r2, [r1, #0]
 8006f14:	2a2b      	cmp	r2, #43	@ 0x2b
 8006f16:	460d      	mov	r5, r1
 8006f18:	f101 0101 	add.w	r1, r1, #1
 8006f1c:	d01d      	beq.n	8006f5a <_strtod_l+0x62>
 8006f1e:	d80b      	bhi.n	8006f38 <_strtod_l+0x40>
 8006f20:	2a0d      	cmp	r2, #13
 8006f22:	d806      	bhi.n	8006f32 <_strtod_l+0x3a>
 8006f24:	2a08      	cmp	r2, #8
 8006f26:	d8f3      	bhi.n	8006f10 <_strtod_l+0x18>
 8006f28:	b17a      	cbz	r2, 8006f4a <_strtod_l+0x52>
 8006f2a:	2300      	movs	r3, #0
 8006f2c:	930b      	str	r3, [sp, #44]	@ 0x2c
 8006f2e:	469a      	mov	sl, r3
 8006f30:	e083      	b.n	800703a <_strtod_l+0x142>
 8006f32:	2a20      	cmp	r2, #32
 8006f34:	d0ec      	beq.n	8006f10 <_strtod_l+0x18>
 8006f36:	e7f8      	b.n	8006f2a <_strtod_l+0x32>
 8006f38:	2a2d      	cmp	r2, #45	@ 0x2d
 8006f3a:	d110      	bne.n	8006f5e <_strtod_l+0x66>
 8006f3c:	2201      	movs	r2, #1
 8006f3e:	1c69      	adds	r1, r5, #1
 8006f40:	9117      	str	r1, [sp, #92]	@ 0x5c
 8006f42:	920b      	str	r2, [sp, #44]	@ 0x2c
 8006f44:	786a      	ldrb	r2, [r5, #1]
 8006f46:	2a00      	cmp	r2, #0
 8006f48:	d137      	bne.n	8006fba <_strtod_l+0xc2>
 8006f4a:	9b15      	ldr	r3, [sp, #84]	@ 0x54
 8006f4c:	9617      	str	r6, [sp, #92]	@ 0x5c
 8006f4e:	2b00      	cmp	r3, #0
 8006f50:	f040 8595 	bne.w	8007a7e <_strtod_l+0xb86>
 8006f54:	4642      	mov	r2, r8
 8006f56:	464b      	mov	r3, r9
 8006f58:	e02a      	b.n	8006fb0 <_strtod_l+0xb8>
 8006f5a:	2200      	movs	r2, #0
 8006f5c:	e7ef      	b.n	8006f3e <_strtod_l+0x46>
 8006f5e:	2100      	movs	r1, #0
 8006f60:	910b      	str	r1, [sp, #44]	@ 0x2c
 8006f62:	2a30      	cmp	r2, #48	@ 0x30
 8006f64:	f040 809b 	bne.w	800709e <_strtod_l+0x1a6>
 8006f68:	786a      	ldrb	r2, [r5, #1]
 8006f6a:	f002 02df 	and.w	r2, r2, #223	@ 0xdf
 8006f6e:	2a58      	cmp	r2, #88	@ 0x58
 8006f70:	d15a      	bne.n	8007028 <_strtod_l+0x130>
 8006f72:	9302      	str	r3, [sp, #8]
 8006f74:	9b0b      	ldr	r3, [sp, #44]	@ 0x2c
 8006f76:	9301      	str	r3, [sp, #4]
 8006f78:	ab18      	add	r3, sp, #96	@ 0x60
 8006f7a:	9300      	str	r3, [sp, #0]
 8006f7c:	4a81      	ldr	r2, [pc, #516]	@ (8007184 <_strtod_l+0x28c>)
 8006f7e:	9804      	ldr	r0, [sp, #16]
 8006f80:	ab19      	add	r3, sp, #100	@ 0x64
 8006f82:	a917      	add	r1, sp, #92	@ 0x5c
 8006f84:	f000 ff28 	bl	8007dd8 <__gethex>
 8006f88:	f010 060f 	ands.w	r6, r0, #15
 8006f8c:	4604      	mov	r4, r0
 8006f8e:	d005      	beq.n	8006f9c <_strtod_l+0xa4>
 8006f90:	2e06      	cmp	r6, #6
 8006f92:	d114      	bne.n	8006fbe <_strtod_l+0xc6>
 8006f94:	3501      	adds	r5, #1
 8006f96:	2300      	movs	r3, #0
 8006f98:	9517      	str	r5, [sp, #92]	@ 0x5c
 8006f9a:	930b      	str	r3, [sp, #44]	@ 0x2c
 8006f9c:	9b15      	ldr	r3, [sp, #84]	@ 0x54
 8006f9e:	2b00      	cmp	r3, #0
 8006fa0:	f040 856f 	bne.w	8007a82 <_strtod_l+0xb8a>
 8006fa4:	9b0b      	ldr	r3, [sp, #44]	@ 0x2c
 8006fa6:	2b00      	cmp	r3, #0
 8006fa8:	d0d4      	beq.n	8006f54 <_strtod_l+0x5c>
 8006faa:	4642      	mov	r2, r8
 8006fac:	f109 4300 	add.w	r3, r9, #2147483648	@ 0x80000000
 8006fb0:	ec43 2b10 	vmov	d0, r2, r3
 8006fb4:	b01d      	add	sp, #116	@ 0x74
 8006fb6:	e8bd 8ff0 	ldmia.w	sp!, {r4, r5, r6, r7, r8, r9, sl, fp, pc}
 8006fba:	460d      	mov	r5, r1
 8006fbc:	e7d1      	b.n	8006f62 <_strtod_l+0x6a>
 8006fbe:	9a18      	ldr	r2, [sp, #96]	@ 0x60
 8006fc0:	b13a      	cbz	r2, 8006fd2 <_strtod_l+0xda>
 8006fc2:	2135      	movs	r1, #53	@ 0x35
 8006fc4:	a81a      	add	r0, sp, #104	@ 0x68
 8006fc6:	f001 ffb9 	bl	8008f3c <__copybits>
 8006fca:	9918      	ldr	r1, [sp, #96]	@ 0x60
 8006fcc:	9804      	ldr	r0, [sp, #16]
 8006fce:	f001 fb7f 	bl	80086d0 <_Bfree>
 8006fd2:	3e01      	subs	r6, #1
 8006fd4:	2e04      	cmp	r6, #4
 8006fd6:	d806      	bhi.n	8006fe6 <_strtod_l+0xee>
 8006fd8:	e8df f006 	tbb	[pc, r6]
 8006fdc:	211e0314 	.word	0x211e0314
 8006fe0:	14          	.byte	0x14
 8006fe1:	00          	.byte	0x00
 8006fe2:	e9dd 891a 	ldrd	r8, r9, [sp, #104]	@ 0x68
 8006fe6:	05e0      	lsls	r0, r4, #23
 8006fe8:	bf48      	it	mi
 8006fea:	f049 4900 	orrmi.w	r9, r9, #2147483648	@ 0x80000000
 8006fee:	f029 4300 	bic.w	r3, r9, #2147483648	@ 0x80000000
 8006ff2:	0d1b      	lsrs	r3, r3, #20
 8006ff4:	051b      	lsls	r3, r3, #20
 8006ff6:	2b00      	cmp	r3, #0
 8006ff8:	d1d0      	bne.n	8006f9c <_strtod_l+0xa4>
 8006ffa:	f000 fe41 	bl	8007c80 <__errno>
 8006ffe:	2322      	movs	r3, #34	@ 0x22
 8007000:	6003      	str	r3, [r0, #0]
 8007002:	e7cb      	b.n	8006f9c <_strtod_l+0xa4>
 8007004:	e9dd 831a 	ldrd	r8, r3, [sp, #104]	@ 0x68
 8007008:	9a19      	ldr	r2, [sp, #100]	@ 0x64
 800700a:	f423 1380 	bic.w	r3, r3, #1048576	@ 0x100000
 800700e:	f202 4233 	addw	r2, r2, #1075	@ 0x433
 8007012:	ea43 5902 	orr.w	r9, r3, r2, lsl #20
 8007016:	e7e6      	b.n	8006fe6 <_strtod_l+0xee>
 8007018:	f8df 9170 	ldr.w	r9, [pc, #368]	@ 800718c <_strtod_l+0x294>
 800701c:	e7e3      	b.n	8006fe6 <_strtod_l+0xee>
 800701e:	f06f 4900 	mvn.w	r9, #2147483648	@ 0x80000000
 8007022:	f04f 38ff 	mov.w	r8, #4294967295	@ 0xffffffff
 8007026:	e7de      	b.n	8006fe6 <_strtod_l+0xee>
 8007028:	3501      	adds	r5, #1
 800702a:	9517      	str	r5, [sp, #92]	@ 0x5c
 800702c:	782b      	ldrb	r3, [r5, #0]
 800702e:	2b30      	cmp	r3, #48	@ 0x30
 8007030:	d0fa      	beq.n	8007028 <_strtod_l+0x130>
 8007032:	2b00      	cmp	r3, #0
 8007034:	d0b2      	beq.n	8006f9c <_strtod_l+0xa4>
 8007036:	f04f 0a01 	mov.w	sl, #1
 800703a:	2700      	movs	r7, #0
 800703c:	462b      	mov	r3, r5
 800703e:	970e      	str	r7, [sp, #56]	@ 0x38
 8007040:	46bb      	mov	fp, r7
 8007042:	210a      	movs	r1, #10
 8007044:	4618      	mov	r0, r3
 8007046:	f813 4b01 	ldrb.w	r4, [r3], #1
 800704a:	f1a4 0230 	sub.w	r2, r4, #48	@ 0x30
 800704e:	2a09      	cmp	r2, #9
 8007050:	d928      	bls.n	80070a4 <_strtod_l+0x1ac>
 8007052:	494d      	ldr	r1, [pc, #308]	@ (8007188 <_strtod_l+0x290>)
 8007054:	2201      	movs	r2, #1
 8007056:	f000 fdee 	bl	8007c36 <strncmp>
 800705a:	2800      	cmp	r0, #0
 800705c:	d034      	beq.n	80070c8 <_strtod_l+0x1d0>
 800705e:	2000      	movs	r0, #0
 8007060:	e9cd 0006 	strd	r0, r0, [sp, #24]
 8007064:	4622      	mov	r2, r4
 8007066:	465c      	mov	r4, fp
 8007068:	2a65      	cmp	r2, #101	@ 0x65
 800706a:	d001      	beq.n	8007070 <_strtod_l+0x178>
 800706c:	2a45      	cmp	r2, #69	@ 0x45
 800706e:	d114      	bne.n	800709a <_strtod_l+0x1a2>
 8007070:	b924      	cbnz	r4, 800707c <_strtod_l+0x184>
 8007072:	ea5a 0300 	orrs.w	r3, sl, r0
 8007076:	f43f af68 	beq.w	8006f4a <_strtod_l+0x52>
 800707a:	2400      	movs	r4, #0
 800707c:	9e17      	ldr	r6, [sp, #92]	@ 0x5c
 800707e:	1c73      	adds	r3, r6, #1
 8007080:	9317      	str	r3, [sp, #92]	@ 0x5c
 8007082:	7872      	ldrb	r2, [r6, #1]
 8007084:	2a2b      	cmp	r2, #43	@ 0x2b
 8007086:	d073      	beq.n	8007170 <_strtod_l+0x278>
 8007088:	2a2d      	cmp	r2, #45	@ 0x2d
 800708a:	d077      	beq.n	800717c <_strtod_l+0x284>
 800708c:	f04f 0c00 	mov.w	ip, #0
 8007090:	f1a2 0330 	sub.w	r3, r2, #48	@ 0x30
 8007094:	2b09      	cmp	r3, #9
 8007096:	d97f      	bls.n	8007198 <_strtod_l+0x2a0>
 8007098:	9617      	str	r6, [sp, #92]	@ 0x5c
 800709a:	2300      	movs	r3, #0
 800709c:	e09e      	b.n	80071dc <_strtod_l+0x2e4>
 800709e:	f04f 0a00 	mov.w	sl, #0
 80070a2:	e7ca      	b.n	800703a <_strtod_l+0x142>
 80070a4:	f1bb 0f08 	cmp.w	fp, #8
 80070a8:	bfd8      	it	le
 80070aa:	9a0e      	ldrle	r2, [sp, #56]	@ 0x38
 80070ac:	9317      	str	r3, [sp, #92]	@ 0x5c
 80070ae:	bfdb      	ittet	le
 80070b0:	fb01 4202 	mlale	r2, r1, r2, r4
 80070b4:	3a30      	suble	r2, #48	@ 0x30
 80070b6:	fb01 4207 	mlagt	r2, r1, r7, r4
 80070ba:	920e      	strle	r2, [sp, #56]	@ 0x38
 80070bc:	bfc8      	it	gt
 80070be:	f1a2 0730 	subgt.w	r7, r2, #48	@ 0x30
 80070c2:	f10b 0b01 	add.w	fp, fp, #1
 80070c6:	e7bd      	b.n	8007044 <_strtod_l+0x14c>
 80070c8:	9b17      	ldr	r3, [sp, #92]	@ 0x5c
 80070ca:	1c5a      	adds	r2, r3, #1
 80070cc:	9217      	str	r2, [sp, #92]	@ 0x5c
 80070ce:	785a      	ldrb	r2, [r3, #1]
 80070d0:	f1bb 0f00 	cmp.w	fp, #0
 80070d4:	d033      	beq.n	800713e <_strtod_l+0x246>
 80070d6:	9006      	str	r0, [sp, #24]
 80070d8:	465c      	mov	r4, fp
 80070da:	f1a2 0330 	sub.w	r3, r2, #48	@ 0x30
 80070de:	2b09      	cmp	r3, #9
 80070e0:	d912      	bls.n	8007108 <_strtod_l+0x210>
 80070e2:	2301      	movs	r3, #1
 80070e4:	9307      	str	r3, [sp, #28]
 80070e6:	e7bf      	b.n	8007068 <_strtod_l+0x170>
 80070e8:	9b17      	ldr	r3, [sp, #92]	@ 0x5c
 80070ea:	1c5a      	adds	r2, r3, #1
 80070ec:	9217      	str	r2, [sp, #92]	@ 0x5c
 80070ee:	785a      	ldrb	r2, [r3, #1]
 80070f0:	3001      	adds	r0, #1
 80070f2:	2a30      	cmp	r2, #48	@ 0x30
 80070f4:	d0f8      	beq.n	80070e8 <_strtod_l+0x1f0>
 80070f6:	f1a2 0331 	sub.w	r3, r2, #49	@ 0x31
 80070fa:	2b08      	cmp	r3, #8
 80070fc:	f200 84c6 	bhi.w	8007a8c <_strtod_l+0xb94>
 8007100:	9006      	str	r0, [sp, #24]
 8007102:	9d17      	ldr	r5, [sp, #92]	@ 0x5c
 8007104:	2000      	movs	r0, #0
 8007106:	4604      	mov	r4, r0
 8007108:	3a30      	subs	r2, #48	@ 0x30
 800710a:	f100 0301 	add.w	r3, r0, #1
 800710e:	d010      	beq.n	8007132 <_strtod_l+0x23a>
 8007110:	9906      	ldr	r1, [sp, #24]
 8007112:	4419      	add	r1, r3
 8007114:	9106      	str	r1, [sp, #24]
 8007116:	4420      	add	r0, r4
 8007118:	230a      	movs	r3, #10
 800711a:	42a0      	cmp	r0, r4
 800711c:	d111      	bne.n	8007142 <_strtod_l+0x24a>
 800711e:	2808      	cmp	r0, #8
 8007120:	f100 0401 	add.w	r4, r0, #1
 8007124:	dc19      	bgt.n	800715a <_strtod_l+0x262>
 8007126:	990e      	ldr	r1, [sp, #56]	@ 0x38
 8007128:	230a      	movs	r3, #10
 800712a:	fb03 2301 	mla	r3, r3, r1, r2
 800712e:	930e      	str	r3, [sp, #56]	@ 0x38
 8007130:	2300      	movs	r3, #0
 8007132:	9a17      	ldr	r2, [sp, #92]	@ 0x5c
 8007134:	1c51      	adds	r1, r2, #1
 8007136:	9117      	str	r1, [sp, #92]	@ 0x5c
 8007138:	7852      	ldrb	r2, [r2, #1]
 800713a:	4618      	mov	r0, r3
 800713c:	e7cd      	b.n	80070da <_strtod_l+0x1e2>
 800713e:	4658      	mov	r0, fp
 8007140:	e7d7      	b.n	80070f2 <_strtod_l+0x1fa>
 8007142:	2c08      	cmp	r4, #8
 8007144:	f104 0401 	add.w	r4, r4, #1
 8007148:	dc03      	bgt.n	8007152 <_strtod_l+0x25a>
 800714a:	990e      	ldr	r1, [sp, #56]	@ 0x38
 800714c:	4359      	muls	r1, r3
 800714e:	910e      	str	r1, [sp, #56]	@ 0x38
 8007150:	e7e3      	b.n	800711a <_strtod_l+0x222>
 8007152:	2c10      	cmp	r4, #16
 8007154:	bfd8      	it	le
 8007156:	435f      	mulle	r7, r3
 8007158:	e7df      	b.n	800711a <_strtod_l+0x222>
 800715a:	280f      	cmp	r0, #15
 800715c:	bfdc      	itt	le
 800715e:	230a      	movle	r3, #10
 8007160:	fb03 2707 	mlale	r7, r3, r7, r2
 8007164:	e7e4      	b.n	8007130 <_strtod_l+0x238>
 8007166:	2100      	movs	r1, #0
 8007168:	2301      	movs	r3, #1
 800716a:	e9cd 1306 	strd	r1, r3, [sp, #24]
 800716e:	e780      	b.n	8007072 <_strtod_l+0x17a>
 8007170:	f04f 0c00 	mov.w	ip, #0
 8007174:	1cb3      	adds	r3, r6, #2
 8007176:	9317      	str	r3, [sp, #92]	@ 0x5c
 8007178:	78b2      	ldrb	r2, [r6, #2]
 800717a:	e789      	b.n	8007090 <_strtod_l+0x198>
 800717c:	f04f 0c01 	mov.w	ip, #1
 8007180:	e7f8      	b.n	8007174 <_strtod_l+0x27c>
 8007182:	bf00      	nop
 8007184:	0800a618 	.word	0x0800a618
 8007188:	0800a3e8 	.word	0x0800a3e8
 800718c:	7ff00000 	.word	0x7ff00000
 8007190:	9b17      	ldr	r3, [sp, #92]	@ 0x5c
 8007192:	1c5a      	adds	r2, r3, #1
 8007194:	9217      	str	r2, [sp, #92]	@ 0x5c
 8007196:	785a      	ldrb	r2, [r3, #1]
 8007198:	2a30      	cmp	r2, #48	@ 0x30
 800719a:	d0f9      	beq.n	8007190 <_strtod_l+0x298>
 800719c:	f1a2 0331 	sub.w	r3, r2, #49	@ 0x31
 80071a0:	2b08      	cmp	r3, #8
 80071a2:	f63f af7a 	bhi.w	800709a <_strtod_l+0x1a2>
 80071a6:	9b17      	ldr	r3, [sp, #92]	@ 0x5c
 80071a8:	9305      	str	r3, [sp, #20]
 80071aa:	f1a2 0e30 	sub.w	lr, r2, #48	@ 0x30
 80071ae:	3301      	adds	r3, #1
 80071b0:	9317      	str	r3, [sp, #92]	@ 0x5c
 80071b2:	781a      	ldrb	r2, [r3, #0]
 80071b4:	f1a2 0130 	sub.w	r1, r2, #48	@ 0x30
 80071b8:	2909      	cmp	r1, #9
 80071ba:	d93c      	bls.n	8007236 <_strtod_l+0x33e>
 80071bc:	9905      	ldr	r1, [sp, #20]
 80071be:	1a5b      	subs	r3, r3, r1
 80071c0:	2b08      	cmp	r3, #8
 80071c2:	f644 631f 	movw	r3, #19999	@ 0x4e1f
 80071c6:	dc3c      	bgt.n	8007242 <_strtod_l+0x34a>
 80071c8:	459e      	cmp	lr, r3
 80071ca:	4671      	mov	r1, lr
 80071cc:	bfa8      	it	ge
 80071ce:	4619      	movge	r1, r3
 80071d0:	9105      	str	r1, [sp, #20]
 80071d2:	f1bc 0f00 	cmp.w	ip, #0
 80071d6:	d002      	beq.n	80071de <_strtod_l+0x2e6>
 80071d8:	9b05      	ldr	r3, [sp, #20]
 80071da:	425b      	negs	r3, r3
 80071dc:	9305      	str	r3, [sp, #20]
 80071de:	2c00      	cmp	r4, #0
 80071e0:	d150      	bne.n	8007284 <_strtod_l+0x38c>
 80071e2:	ea5a 0000 	orrs.w	r0, sl, r0
 80071e6:	f47f aed9 	bne.w	8006f9c <_strtod_l+0xa4>
 80071ea:	9b07      	ldr	r3, [sp, #28]
 80071ec:	2b00      	cmp	r3, #0
 80071ee:	f47f aeac 	bne.w	8006f4a <_strtod_l+0x52>
 80071f2:	2a69      	cmp	r2, #105	@ 0x69
 80071f4:	d029      	beq.n	800724a <_strtod_l+0x352>
 80071f6:	dc26      	bgt.n	8007246 <_strtod_l+0x34e>
 80071f8:	2a49      	cmp	r2, #73	@ 0x49
 80071fa:	d026      	beq.n	800724a <_strtod_l+0x352>
 80071fc:	2a4e      	cmp	r2, #78	@ 0x4e
 80071fe:	f47f aea4 	bne.w	8006f4a <_strtod_l+0x52>
 8007202:	49a1      	ldr	r1, [pc, #644]	@ (8007488 <_strtod_l+0x590>)
 8007204:	a817      	add	r0, sp, #92	@ 0x5c
 8007206:	f001 f809 	bl	800821c <__match>
 800720a:	2800      	cmp	r0, #0
 800720c:	f43f ae9d 	beq.w	8006f4a <_strtod_l+0x52>
 8007210:	9b17      	ldr	r3, [sp, #92]	@ 0x5c
 8007212:	781b      	ldrb	r3, [r3, #0]
 8007214:	2b28      	cmp	r3, #40	@ 0x28
 8007216:	d12f      	bne.n	8007278 <_strtod_l+0x380>
 8007218:	499c      	ldr	r1, [pc, #624]	@ (800748c <_strtod_l+0x594>)
 800721a:	aa1a      	add	r2, sp, #104	@ 0x68
 800721c:	a817      	add	r0, sp, #92	@ 0x5c
 800721e:	f001 f811 	bl	8008244 <__hexnan>
 8007222:	2805      	cmp	r0, #5
 8007224:	d128      	bne.n	8007278 <_strtod_l+0x380>
 8007226:	9b1b      	ldr	r3, [sp, #108]	@ 0x6c
 8007228:	f8dd 8068 	ldr.w	r8, [sp, #104]	@ 0x68
 800722c:	f043 49ff 	orr.w	r9, r3, #2139095040	@ 0x7f800000
 8007230:	f449 09e0 	orr.w	r9, r9, #7340032	@ 0x700000
 8007234:	e6b2      	b.n	8006f9c <_strtod_l+0xa4>
 8007236:	210a      	movs	r1, #10
 8007238:	fb01 220e 	mla	r2, r1, lr, r2
 800723c:	f1a2 0e30 	sub.w	lr, r2, #48	@ 0x30
 8007240:	e7b5      	b.n	80071ae <_strtod_l+0x2b6>
 8007242:	9305      	str	r3, [sp, #20]
 8007244:	e7c5      	b.n	80071d2 <_strtod_l+0x2da>
 8007246:	2a6e      	cmp	r2, #110	@ 0x6e
 8007248:	e7d9      	b.n	80071fe <_strtod_l+0x306>
 800724a:	4991      	ldr	r1, [pc, #580]	@ (8007490 <_strtod_l+0x598>)
 800724c:	a817      	add	r0, sp, #92	@ 0x5c
 800724e:	f000 ffe5 	bl	800821c <__match>
 8007252:	2800      	cmp	r0, #0
 8007254:	f43f ae79 	beq.w	8006f4a <_strtod_l+0x52>
 8007258:	9b17      	ldr	r3, [sp, #92]	@ 0x5c
 800725a:	498e      	ldr	r1, [pc, #568]	@ (8007494 <_strtod_l+0x59c>)
 800725c:	3b01      	subs	r3, #1
 800725e:	a817      	add	r0, sp, #92	@ 0x5c
 8007260:	9317      	str	r3, [sp, #92]	@ 0x5c
 8007262:	f000 ffdb 	bl	800821c <__match>
 8007266:	b910      	cbnz	r0, 800726e <_strtod_l+0x376>
 8007268:	9b17      	ldr	r3, [sp, #92]	@ 0x5c
 800726a:	3301      	adds	r3, #1
 800726c:	9317      	str	r3, [sp, #92]	@ 0x5c
 800726e:	f8df 9234 	ldr.w	r9, [pc, #564]	@ 80074a4 <_strtod_l+0x5ac>
 8007272:	f04f 0800 	mov.w	r8, #0
 8007276:	e691      	b.n	8006f9c <_strtod_l+0xa4>
 8007278:	4887      	ldr	r0, [pc, #540]	@ (8007498 <_strtod_l+0x5a0>)
 800727a:	f000 fd3d 	bl	8007cf8 <nan>
 800727e:	ec59 8b10 	vmov	r8, r9, d0
 8007282:	e68b      	b.n	8006f9c <_strtod_l+0xa4>
 8007284:	e9dd 3205 	ldrd	r3, r2, [sp, #20]
 8007288:	980e      	ldr	r0, [sp, #56]	@ 0x38
 800728a:	1a9b      	subs	r3, r3, r2
 800728c:	f1bb 0f00 	cmp.w	fp, #0
 8007290:	bf08      	it	eq
 8007292:	46a3      	moveq	fp, r4
 8007294:	2c10      	cmp	r4, #16
 8007296:	930a      	str	r3, [sp, #40]	@ 0x28
 8007298:	46a2      	mov	sl, r4
 800729a:	bfa8      	it	ge
 800729c:	f04f 0a10 	movge.w	sl, #16
 80072a0:	f7f9 f958 	bl	8000554 <__aeabi_ui2d>
 80072a4:	2c09      	cmp	r4, #9
 80072a6:	4680      	mov	r8, r0
 80072a8:	4689      	mov	r9, r1
 80072aa:	dc13      	bgt.n	80072d4 <_strtod_l+0x3dc>
 80072ac:	9b0a      	ldr	r3, [sp, #40]	@ 0x28
 80072ae:	2b00      	cmp	r3, #0
 80072b0:	f43f ae74 	beq.w	8006f9c <_strtod_l+0xa4>
 80072b4:	9b0a      	ldr	r3, [sp, #40]	@ 0x28
 80072b6:	dd73      	ble.n	80073a0 <_strtod_l+0x4a8>
 80072b8:	2b16      	cmp	r3, #22
 80072ba:	dc5a      	bgt.n	8007372 <_strtod_l+0x47a>
 80072bc:	4977      	ldr	r1, [pc, #476]	@ (800749c <_strtod_l+0x5a4>)
 80072be:	eb01 01c3 	add.w	r1, r1, r3, lsl #3
 80072c2:	e9d1 0100 	ldrd	r0, r1, [r1]
 80072c6:	4642      	mov	r2, r8
 80072c8:	464b      	mov	r3, r9
 80072ca:	f7f9 f9bd 	bl	8000648 <__aeabi_dmul>
 80072ce:	4680      	mov	r8, r0
 80072d0:	4689      	mov	r9, r1
 80072d2:	e663      	b.n	8006f9c <_strtod_l+0xa4>
 80072d4:	4b71      	ldr	r3, [pc, #452]	@ (800749c <_strtod_l+0x5a4>)
 80072d6:	eb03 03ca 	add.w	r3, r3, sl, lsl #3
 80072da:	e953 2312 	ldrd	r2, r3, [r3, #-72]	@ 0x48
 80072de:	f7f9 f9b3 	bl	8000648 <__aeabi_dmul>
 80072e2:	4680      	mov	r8, r0
 80072e4:	4638      	mov	r0, r7
 80072e6:	4689      	mov	r9, r1
 80072e8:	f7f9 f934 	bl	8000554 <__aeabi_ui2d>
 80072ec:	4602      	mov	r2, r0
 80072ee:	460b      	mov	r3, r1
 80072f0:	4640      	mov	r0, r8
 80072f2:	4649      	mov	r1, r9
 80072f4:	f7f8 fff2 	bl	80002dc <__adddf3>
 80072f8:	2c0f      	cmp	r4, #15
 80072fa:	4680      	mov	r8, r0
 80072fc:	4689      	mov	r9, r1
 80072fe:	ddd5      	ble.n	80072ac <_strtod_l+0x3b4>
 8007300:	9b0a      	ldr	r3, [sp, #40]	@ 0x28
 8007302:	eba4 0a0a 	sub.w	sl, r4, sl
 8007306:	449a      	add	sl, r3
 8007308:	f1ba 0f00 	cmp.w	sl, #0
 800730c:	f340 8097 	ble.w	800743e <_strtod_l+0x546>
 8007310:	f02a 060f 	bic.w	r6, sl, #15
 8007314:	f01a 0a0f 	ands.w	sl, sl, #15
 8007318:	d151      	bne.n	80073be <_strtod_l+0x4c6>
 800731a:	f5b6 7f9a 	cmp.w	r6, #308	@ 0x134
 800731e:	dc5e      	bgt.n	80073de <_strtod_l+0x4e6>
 8007320:	2300      	movs	r3, #0
 8007322:	f8df a17c 	ldr.w	sl, [pc, #380]	@ 80074a0 <_strtod_l+0x5a8>
 8007326:	1136      	asrs	r6, r6, #4
 8007328:	4640      	mov	r0, r8
 800732a:	4649      	mov	r1, r9
 800732c:	461f      	mov	r7, r3
 800732e:	2e01      	cmp	r6, #1
 8007330:	d179      	bne.n	8007426 <_strtod_l+0x52e>
 8007332:	b10b      	cbz	r3, 8007338 <_strtod_l+0x440>
 8007334:	4680      	mov	r8, r0
 8007336:	4689      	mov	r9, r1
 8007338:	4959      	ldr	r1, [pc, #356]	@ (80074a0 <_strtod_l+0x5a8>)
 800733a:	f1a9 7954 	sub.w	r9, r9, #55574528	@ 0x3500000
 800733e:	eb01 01c7 	add.w	r1, r1, r7, lsl #3
 8007342:	4642      	mov	r2, r8
 8007344:	464b      	mov	r3, r9
 8007346:	e9d1 0100 	ldrd	r0, r1, [r1]
 800734a:	f7f9 f97d 	bl	8000648 <__aeabi_dmul>
 800734e:	4b55      	ldr	r3, [pc, #340]	@ (80074a4 <_strtod_l+0x5ac>)
 8007350:	460a      	mov	r2, r1
 8007352:	400b      	ands	r3, r1
 8007354:	4954      	ldr	r1, [pc, #336]	@ (80074a8 <_strtod_l+0x5b0>)
 8007356:	428b      	cmp	r3, r1
 8007358:	4680      	mov	r8, r0
 800735a:	d840      	bhi.n	80073de <_strtod_l+0x4e6>
 800735c:	f5a1 1180 	sub.w	r1, r1, #1048576	@ 0x100000
 8007360:	428b      	cmp	r3, r1
 8007362:	bf86      	itte	hi
 8007364:	f8df 9144 	ldrhi.w	r9, [pc, #324]	@ 80074ac <_strtod_l+0x5b4>
 8007368:	f04f 38ff 	movhi.w	r8, #4294967295	@ 0xffffffff
 800736c:	f102 7954 	addls.w	r9, r2, #55574528	@ 0x3500000
 8007370:	e032      	b.n	80073d8 <_strtod_l+0x4e0>
 8007372:	9a0a      	ldr	r2, [sp, #40]	@ 0x28
 8007374:	f1c4 0325 	rsb	r3, r4, #37	@ 0x25
 8007378:	4293      	cmp	r3, r2
 800737a:	dbc1      	blt.n	8007300 <_strtod_l+0x408>
 800737c:	4d47      	ldr	r5, [pc, #284]	@ (800749c <_strtod_l+0x5a4>)
 800737e:	f1c4 040f 	rsb	r4, r4, #15
 8007382:	eb05 01c4 	add.w	r1, r5, r4, lsl #3
 8007386:	4642      	mov	r2, r8
 8007388:	464b      	mov	r3, r9
 800738a:	e9d1 0100 	ldrd	r0, r1, [r1]
 800738e:	f7f9 f95b 	bl	8000648 <__aeabi_dmul>
 8007392:	9b0a      	ldr	r3, [sp, #40]	@ 0x28
 8007394:	1b1c      	subs	r4, r3, r4
 8007396:	eb05 05c4 	add.w	r5, r5, r4, lsl #3
 800739a:	e9d5 2300 	ldrd	r2, r3, [r5]
 800739e:	e794      	b.n	80072ca <_strtod_l+0x3d2>
 80073a0:	3316      	adds	r3, #22
 80073a2:	dbad      	blt.n	8007300 <_strtod_l+0x408>
 80073a4:	e9dd 2305 	ldrd	r2, r3, [sp, #20]
 80073a8:	1a9a      	subs	r2, r3, r2
 80073aa:	4b3c      	ldr	r3, [pc, #240]	@ (800749c <_strtod_l+0x5a4>)
 80073ac:	eb03 03c2 	add.w	r3, r3, r2, lsl #3
 80073b0:	e9d3 2300 	ldrd	r2, r3, [r3]
 80073b4:	4640      	mov	r0, r8
 80073b6:	4649      	mov	r1, r9
 80073b8:	f7f9 fa70 	bl	800089c <__aeabi_ddiv>
 80073bc:	e787      	b.n	80072ce <_strtod_l+0x3d6>
 80073be:	4937      	ldr	r1, [pc, #220]	@ (800749c <_strtod_l+0x5a4>)
 80073c0:	eb01 01ca 	add.w	r1, r1, sl, lsl #3
 80073c4:	4642      	mov	r2, r8
 80073c6:	464b      	mov	r3, r9
 80073c8:	e9d1 0100 	ldrd	r0, r1, [r1]
 80073cc:	f7f9 f93c 	bl	8000648 <__aeabi_dmul>
 80073d0:	4680      	mov	r8, r0
 80073d2:	4689      	mov	r9, r1
 80073d4:	2e00      	cmp	r6, #0
 80073d6:	d1a0      	bne.n	800731a <_strtod_l+0x422>
 80073d8:	2300      	movs	r3, #0
 80073da:	9307      	str	r3, [sp, #28]
 80073dc:	e0a0      	b.n	8007520 <_strtod_l+0x628>
 80073de:	2400      	movs	r4, #0
 80073e0:	9405      	str	r4, [sp, #20]
 80073e2:	940e      	str	r4, [sp, #56]	@ 0x38
 80073e4:	9406      	str	r4, [sp, #24]
 80073e6:	9a04      	ldr	r2, [sp, #16]
 80073e8:	f8df 90b8 	ldr.w	r9, [pc, #184]	@ 80074a4 <_strtod_l+0x5ac>
 80073ec:	2322      	movs	r3, #34	@ 0x22
 80073ee:	6013      	str	r3, [r2, #0]
 80073f0:	f04f 0800 	mov.w	r8, #0
 80073f4:	9b0e      	ldr	r3, [sp, #56]	@ 0x38
 80073f6:	2b00      	cmp	r3, #0
 80073f8:	f43f add0 	beq.w	8006f9c <_strtod_l+0xa4>
 80073fc:	9918      	ldr	r1, [sp, #96]	@ 0x60
 80073fe:	9804      	ldr	r0, [sp, #16]
 8007400:	f001 f966 	bl	80086d0 <_Bfree>
 8007404:	9906      	ldr	r1, [sp, #24]
 8007406:	9804      	ldr	r0, [sp, #16]
 8007408:	f001 f962 	bl	80086d0 <_Bfree>
 800740c:	e9dd 0104 	ldrd	r0, r1, [sp, #16]
 8007410:	f001 f95e 	bl	80086d0 <_Bfree>
 8007414:	990e      	ldr	r1, [sp, #56]	@ 0x38
 8007416:	9804      	ldr	r0, [sp, #16]
 8007418:	f001 f95a 	bl	80086d0 <_Bfree>
 800741c:	9804      	ldr	r0, [sp, #16]
 800741e:	4621      	mov	r1, r4
 8007420:	f001 f956 	bl	80086d0 <_Bfree>
 8007424:	e5ba      	b.n	8006f9c <_strtod_l+0xa4>
 8007426:	07f2      	lsls	r2, r6, #31
 8007428:	d504      	bpl.n	8007434 <_strtod_l+0x53c>
 800742a:	e9da 2300 	ldrd	r2, r3, [sl]
 800742e:	f7f9 f90b 	bl	8000648 <__aeabi_dmul>
 8007432:	2301      	movs	r3, #1
 8007434:	3701      	adds	r7, #1
 8007436:	1076      	asrs	r6, r6, #1
 8007438:	f10a 0a08 	add.w	sl, sl, #8
 800743c:	e777      	b.n	800732e <_strtod_l+0x436>
 800743e:	d0cb      	beq.n	80073d8 <_strtod_l+0x4e0>
 8007440:	f1ca 0a00 	rsb	sl, sl, #0
 8007444:	ea4f 162a 	mov.w	r6, sl, asr #4
 8007448:	f01a 0a0f 	ands.w	sl, sl, #15
 800744c:	d10d      	bne.n	800746a <_strtod_l+0x572>
 800744e:	2e1f      	cmp	r6, #31
 8007450:	dd2e      	ble.n	80074b0 <_strtod_l+0x5b8>
 8007452:	2400      	movs	r4, #0
 8007454:	9405      	str	r4, [sp, #20]
 8007456:	940e      	str	r4, [sp, #56]	@ 0x38
 8007458:	9406      	str	r4, [sp, #24]
 800745a:	9a04      	ldr	r2, [sp, #16]
 800745c:	2322      	movs	r3, #34	@ 0x22
 800745e:	f04f 0800 	mov.w	r8, #0
 8007462:	f04f 0900 	mov.w	r9, #0
 8007466:	6013      	str	r3, [r2, #0]
 8007468:	e7c4      	b.n	80073f4 <_strtod_l+0x4fc>
 800746a:	4b0c      	ldr	r3, [pc, #48]	@ (800749c <_strtod_l+0x5a4>)
 800746c:	eb03 03ca 	add.w	r3, r3, sl, lsl #3
 8007470:	4640      	mov	r0, r8
 8007472:	4649      	mov	r1, r9
 8007474:	e9d3 2300 	ldrd	r2, r3, [r3]
 8007478:	f7f9 fa10 	bl	800089c <__aeabi_ddiv>
 800747c:	4680      	mov	r8, r0
 800747e:	4689      	mov	r9, r1
 8007480:	2e00      	cmp	r6, #0
 8007482:	d0a9      	beq.n	80073d8 <_strtod_l+0x4e0>
 8007484:	e7e3      	b.n	800744e <_strtod_l+0x556>
 8007486:	bf00      	nop
 8007488:	0800a3f3 	.word	0x0800a3f3
 800748c:	0800a604 	.word	0x0800a604
 8007490:	0800a3ea 	.word	0x0800a3ea
 8007494:	0800a3ed 	.word	0x0800a3ed
 8007498:	0800a518 	.word	0x0800a518
 800749c:	0800a790 	.word	0x0800a790
 80074a0:	0800a768 	.word	0x0800a768
 80074a4:	7ff00000 	.word	0x7ff00000
 80074a8:	7ca00000 	.word	0x7ca00000
 80074ac:	7fefffff 	.word	0x7fefffff
 80074b0:	f016 0310 	ands.w	r3, r6, #16
 80074b4:	bf18      	it	ne
 80074b6:	236a      	movne	r3, #106	@ 0x6a
 80074b8:	4f76      	ldr	r7, [pc, #472]	@ (8007694 <_strtod_l+0x79c>)
 80074ba:	9307      	str	r3, [sp, #28]
 80074bc:	4640      	mov	r0, r8
 80074be:	4649      	mov	r1, r9
 80074c0:	2300      	movs	r3, #0
 80074c2:	07f2      	lsls	r2, r6, #31
 80074c4:	d504      	bpl.n	80074d0 <_strtod_l+0x5d8>
 80074c6:	e9d7 2300 	ldrd	r2, r3, [r7]
 80074ca:	f7f9 f8bd 	bl	8000648 <__aeabi_dmul>
 80074ce:	2301      	movs	r3, #1
 80074d0:	1076      	asrs	r6, r6, #1
 80074d2:	f107 0708 	add.w	r7, r7, #8
 80074d6:	d1f4      	bne.n	80074c2 <_strtod_l+0x5ca>
 80074d8:	b10b      	cbz	r3, 80074de <_strtod_l+0x5e6>
 80074da:	4680      	mov	r8, r0
 80074dc:	4689      	mov	r9, r1
 80074de:	9b07      	ldr	r3, [sp, #28]
 80074e0:	b1b3      	cbz	r3, 8007510 <_strtod_l+0x618>
 80074e2:	f3c9 520a 	ubfx	r2, r9, #20, #11
 80074e6:	f1c2 036b 	rsb	r3, r2, #107	@ 0x6b
 80074ea:	2b00      	cmp	r3, #0
 80074ec:	4649      	mov	r1, r9
 80074ee:	dd0f      	ble.n	8007510 <_strtod_l+0x618>
 80074f0:	2b1f      	cmp	r3, #31
 80074f2:	dd57      	ble.n	80075a4 <_strtod_l+0x6ac>
 80074f4:	2b34      	cmp	r3, #52	@ 0x34
 80074f6:	bfde      	ittt	le
 80074f8:	f04f 33ff 	movle.w	r3, #4294967295	@ 0xffffffff
 80074fc:	f1c2 024b 	rsble	r2, r2, #75	@ 0x4b
 8007500:	4093      	lslle	r3, r2
 8007502:	f04f 0800 	mov.w	r8, #0
 8007506:	bfcc      	ite	gt
 8007508:	f04f 795c 	movgt.w	r9, #57671680	@ 0x3700000
 800750c:	ea03 0901 	andle.w	r9, r3, r1
 8007510:	2200      	movs	r2, #0
 8007512:	2300      	movs	r3, #0
 8007514:	4640      	mov	r0, r8
 8007516:	4649      	mov	r1, r9
 8007518:	f7f9 fafe 	bl	8000b18 <__aeabi_dcmpeq>
 800751c:	2800      	cmp	r0, #0
 800751e:	d198      	bne.n	8007452 <_strtod_l+0x55a>
 8007520:	9b0e      	ldr	r3, [sp, #56]	@ 0x38
 8007522:	9300      	str	r3, [sp, #0]
 8007524:	9804      	ldr	r0, [sp, #16]
 8007526:	4623      	mov	r3, r4
 8007528:	465a      	mov	r2, fp
 800752a:	4629      	mov	r1, r5
 800752c:	f001 f938 	bl	80087a0 <__s2b>
 8007530:	900e      	str	r0, [sp, #56]	@ 0x38
 8007532:	2800      	cmp	r0, #0
 8007534:	f43f af53 	beq.w	80073de <_strtod_l+0x4e6>
 8007538:	e9dd 2305 	ldrd	r2, r3, [sp, #20]
 800753c:	1a9b      	subs	r3, r3, r2
 800753e:	9a0a      	ldr	r2, [sp, #40]	@ 0x28
 8007540:	2a00      	cmp	r2, #0
 8007542:	bfa8      	it	ge
 8007544:	2300      	movge	r3, #0
 8007546:	9312      	str	r3, [sp, #72]	@ 0x48
 8007548:	2400      	movs	r4, #0
 800754a:	ea22 73e2 	bic.w	r3, r2, r2, asr #31
 800754e:	9314      	str	r3, [sp, #80]	@ 0x50
 8007550:	9405      	str	r4, [sp, #20]
 8007552:	9b0e      	ldr	r3, [sp, #56]	@ 0x38
 8007554:	9804      	ldr	r0, [sp, #16]
 8007556:	6859      	ldr	r1, [r3, #4]
 8007558:	f001 f87c 	bl	8008654 <_Balloc>
 800755c:	9006      	str	r0, [sp, #24]
 800755e:	2800      	cmp	r0, #0
 8007560:	f43f af41 	beq.w	80073e6 <_strtod_l+0x4ee>
 8007564:	9b0e      	ldr	r3, [sp, #56]	@ 0x38
 8007566:	691a      	ldr	r2, [r3, #16]
 8007568:	3202      	adds	r2, #2
 800756a:	f103 010c 	add.w	r1, r3, #12
 800756e:	0092      	lsls	r2, r2, #2
 8007570:	300c      	adds	r0, #12
 8007572:	f000 fbb2 	bl	8007cda <memcpy>
 8007576:	ec49 8b10 	vmov	d0, r8, r9
 800757a:	9804      	ldr	r0, [sp, #16]
 800757c:	aa1a      	add	r2, sp, #104	@ 0x68
 800757e:	a919      	add	r1, sp, #100	@ 0x64
 8007580:	e9cd 890c 	strd	r8, r9, [sp, #48]	@ 0x30
 8007584:	f001 fc50 	bl	8008e28 <__d2b>
 8007588:	9018      	str	r0, [sp, #96]	@ 0x60
 800758a:	2800      	cmp	r0, #0
 800758c:	f43f af2b 	beq.w	80073e6 <_strtod_l+0x4ee>
 8007590:	9804      	ldr	r0, [sp, #16]
 8007592:	2101      	movs	r1, #1
 8007594:	f001 f99a 	bl	80088cc <__i2b>
 8007598:	9005      	str	r0, [sp, #20]
 800759a:	4603      	mov	r3, r0
 800759c:	b948      	cbnz	r0, 80075b2 <_strtod_l+0x6ba>
 800759e:	2300      	movs	r3, #0
 80075a0:	9305      	str	r3, [sp, #20]
 80075a2:	e720      	b.n	80073e6 <_strtod_l+0x4ee>
 80075a4:	f04f 32ff 	mov.w	r2, #4294967295	@ 0xffffffff
 80075a8:	fa02 f303 	lsl.w	r3, r2, r3
 80075ac:	ea03 0808 	and.w	r8, r3, r8
 80075b0:	e7ae      	b.n	8007510 <_strtod_l+0x618>
 80075b2:	9d19      	ldr	r5, [sp, #100]	@ 0x64
 80075b4:	9a1a      	ldr	r2, [sp, #104]	@ 0x68
 80075b6:	2d00      	cmp	r5, #0
 80075b8:	bfab      	itete	ge
 80075ba:	9b12      	ldrge	r3, [sp, #72]	@ 0x48
 80075bc:	9b14      	ldrlt	r3, [sp, #80]	@ 0x50
 80075be:	9e14      	ldrge	r6, [sp, #80]	@ 0x50
 80075c0:	9f12      	ldrlt	r7, [sp, #72]	@ 0x48
 80075c2:	bfac      	ite	ge
 80075c4:	18ef      	addge	r7, r5, r3
 80075c6:	1b5e      	sublt	r6, r3, r5
 80075c8:	9b07      	ldr	r3, [sp, #28]
 80075ca:	1aed      	subs	r5, r5, r3
 80075cc:	4415      	add	r5, r2
 80075ce:	4b32      	ldr	r3, [pc, #200]	@ (8007698 <_strtod_l+0x7a0>)
 80075d0:	3d01      	subs	r5, #1
 80075d2:	429d      	cmp	r5, r3
 80075d4:	f1c2 0236 	rsb	r2, r2, #54	@ 0x36
 80075d8:	da4f      	bge.n	800767a <_strtod_l+0x782>
 80075da:	1b5b      	subs	r3, r3, r5
 80075dc:	2b1f      	cmp	r3, #31
 80075de:	eba2 0203 	sub.w	r2, r2, r3
 80075e2:	f04f 0101 	mov.w	r1, #1
 80075e6:	dc3c      	bgt.n	8007662 <_strtod_l+0x76a>
 80075e8:	fa01 fa03 	lsl.w	sl, r1, r3
 80075ec:	f04f 0b00 	mov.w	fp, #0
 80075f0:	18bd      	adds	r5, r7, r2
 80075f2:	9b07      	ldr	r3, [sp, #28]
 80075f4:	42af      	cmp	r7, r5
 80075f6:	4416      	add	r6, r2
 80075f8:	441e      	add	r6, r3
 80075fa:	463b      	mov	r3, r7
 80075fc:	bfa8      	it	ge
 80075fe:	462b      	movge	r3, r5
 8007600:	42b3      	cmp	r3, r6
 8007602:	bfa8      	it	ge
 8007604:	4633      	movge	r3, r6
 8007606:	2b00      	cmp	r3, #0
 8007608:	bfc2      	ittt	gt
 800760a:	1aed      	subgt	r5, r5, r3
 800760c:	1af6      	subgt	r6, r6, r3
 800760e:	1aff      	subgt	r7, r7, r3
 8007610:	9b12      	ldr	r3, [sp, #72]	@ 0x48
 8007612:	2b00      	cmp	r3, #0
 8007614:	dd16      	ble.n	8007644 <_strtod_l+0x74c>
 8007616:	e9dd 0104 	ldrd	r0, r1, [sp, #16]
 800761a:	461a      	mov	r2, r3
 800761c:	f001 fa16 	bl	8008a4c <__pow5mult>
 8007620:	9005      	str	r0, [sp, #20]
 8007622:	2800      	cmp	r0, #0
 8007624:	d0bb      	beq.n	800759e <_strtod_l+0x6a6>
 8007626:	4601      	mov	r1, r0
 8007628:	9a18      	ldr	r2, [sp, #96]	@ 0x60
 800762a:	9804      	ldr	r0, [sp, #16]
 800762c:	f001 f964 	bl	80088f8 <__multiply>
 8007630:	900f      	str	r0, [sp, #60]	@ 0x3c
 8007632:	2800      	cmp	r0, #0
 8007634:	f43f aed7 	beq.w	80073e6 <_strtod_l+0x4ee>
 8007638:	9918      	ldr	r1, [sp, #96]	@ 0x60
 800763a:	9804      	ldr	r0, [sp, #16]
 800763c:	f001 f848 	bl	80086d0 <_Bfree>
 8007640:	9b0f      	ldr	r3, [sp, #60]	@ 0x3c
 8007642:	9318      	str	r3, [sp, #96]	@ 0x60
 8007644:	2d00      	cmp	r5, #0
 8007646:	dc1b      	bgt.n	8007680 <_strtod_l+0x788>
 8007648:	9b0a      	ldr	r3, [sp, #40]	@ 0x28
 800764a:	2b00      	cmp	r3, #0
 800764c:	dd26      	ble.n	800769c <_strtod_l+0x7a4>
 800764e:	9a14      	ldr	r2, [sp, #80]	@ 0x50
 8007650:	9906      	ldr	r1, [sp, #24]
 8007652:	9804      	ldr	r0, [sp, #16]
 8007654:	f001 f9fa 	bl	8008a4c <__pow5mult>
 8007658:	9006      	str	r0, [sp, #24]
 800765a:	b9f8      	cbnz	r0, 800769c <_strtod_l+0x7a4>
 800765c:	2300      	movs	r3, #0
 800765e:	9306      	str	r3, [sp, #24]
 8007660:	e6c1      	b.n	80073e6 <_strtod_l+0x4ee>
 8007662:	f1c5 457f 	rsb	r5, r5, #4278190080	@ 0xff000000
 8007666:	f505 057f 	add.w	r5, r5, #16711680	@ 0xff0000
 800766a:	f505 457b 	add.w	r5, r5, #64256	@ 0xfb00
 800766e:	35e2      	adds	r5, #226	@ 0xe2
 8007670:	fa01 fb05 	lsl.w	fp, r1, r5
 8007674:	f04f 0a01 	mov.w	sl, #1
 8007678:	e7ba      	b.n	80075f0 <_strtod_l+0x6f8>
 800767a:	f04f 0b00 	mov.w	fp, #0
 800767e:	e7f9      	b.n	8007674 <_strtod_l+0x77c>
 8007680:	9918      	ldr	r1, [sp, #96]	@ 0x60
 8007682:	9804      	ldr	r0, [sp, #16]
 8007684:	462a      	mov	r2, r5
 8007686:	f001 fa3d 	bl	8008b04 <__lshift>
 800768a:	9018      	str	r0, [sp, #96]	@ 0x60
 800768c:	2800      	cmp	r0, #0
 800768e:	d1db      	bne.n	8007648 <_strtod_l+0x750>
 8007690:	e6a9      	b.n	80073e6 <_strtod_l+0x4ee>
 8007692:	bf00      	nop
 8007694:	0800a630 	.word	0x0800a630
 8007698:	fffffc02 	.word	0xfffffc02
 800769c:	2e00      	cmp	r6, #0
 800769e:	dd07      	ble.n	80076b0 <_strtod_l+0x7b8>
 80076a0:	9906      	ldr	r1, [sp, #24]
 80076a2:	9804      	ldr	r0, [sp, #16]
 80076a4:	4632      	mov	r2, r6
 80076a6:	f001 fa2d 	bl	8008b04 <__lshift>
 80076aa:	9006      	str	r0, [sp, #24]
 80076ac:	2800      	cmp	r0, #0
 80076ae:	d0d5      	beq.n	800765c <_strtod_l+0x764>
 80076b0:	2f00      	cmp	r7, #0
 80076b2:	dd08      	ble.n	80076c6 <_strtod_l+0x7ce>
 80076b4:	e9dd 0104 	ldrd	r0, r1, [sp, #16]
 80076b8:	463a      	mov	r2, r7
 80076ba:	f001 fa23 	bl	8008b04 <__lshift>
 80076be:	9005      	str	r0, [sp, #20]
 80076c0:	2800      	cmp	r0, #0
 80076c2:	f43f ae90 	beq.w	80073e6 <_strtod_l+0x4ee>
 80076c6:	9a06      	ldr	r2, [sp, #24]
 80076c8:	9918      	ldr	r1, [sp, #96]	@ 0x60
 80076ca:	9804      	ldr	r0, [sp, #16]
 80076cc:	f001 faa4 	bl	8008c18 <__mdiff>
 80076d0:	4604      	mov	r4, r0
 80076d2:	2800      	cmp	r0, #0
 80076d4:	f43f ae87 	beq.w	80073e6 <_strtod_l+0x4ee>
 80076d8:	68c3      	ldr	r3, [r0, #12]
 80076da:	930f      	str	r3, [sp, #60]	@ 0x3c
 80076dc:	2300      	movs	r3, #0
 80076de:	9905      	ldr	r1, [sp, #20]
 80076e0:	60c3      	str	r3, [r0, #12]
 80076e2:	f001 fa7d 	bl	8008be0 <__mcmp>
 80076e6:	2800      	cmp	r0, #0
 80076e8:	da3c      	bge.n	8007764 <_strtod_l+0x86c>
 80076ea:	9b0f      	ldr	r3, [sp, #60]	@ 0x3c
 80076ec:	ea53 0308 	orrs.w	r3, r3, r8
 80076f0:	d15e      	bne.n	80077b0 <_strtod_l+0x8b8>
 80076f2:	f3c9 0313 	ubfx	r3, r9, #0, #20
 80076f6:	464d      	mov	r5, r9
 80076f8:	2b00      	cmp	r3, #0
 80076fa:	d159      	bne.n	80077b0 <_strtod_l+0x8b8>
 80076fc:	f029 4300 	bic.w	r3, r9, #2147483648	@ 0x80000000
 8007700:	0d1b      	lsrs	r3, r3, #20
 8007702:	051b      	lsls	r3, r3, #20
 8007704:	f1b3 6fd6 	cmp.w	r3, #112197632	@ 0x6b00000
 8007708:	d952      	bls.n	80077b0 <_strtod_l+0x8b8>
 800770a:	6963      	ldr	r3, [r4, #20]
 800770c:	b913      	cbnz	r3, 8007714 <_strtod_l+0x81c>
 800770e:	6923      	ldr	r3, [r4, #16]
 8007710:	2b01      	cmp	r3, #1
 8007712:	dd4d      	ble.n	80077b0 <_strtod_l+0x8b8>
 8007714:	4621      	mov	r1, r4
 8007716:	2201      	movs	r2, #1
 8007718:	9804      	ldr	r0, [sp, #16]
 800771a:	f001 f9f3 	bl	8008b04 <__lshift>
 800771e:	9905      	ldr	r1, [sp, #20]
 8007720:	4604      	mov	r4, r0
 8007722:	f001 fa5d 	bl	8008be0 <__mcmp>
 8007726:	2800      	cmp	r0, #0
 8007728:	dd42      	ble.n	80077b0 <_strtod_l+0x8b8>
 800772a:	4bad      	ldr	r3, [pc, #692]	@ (80079e0 <_strtod_l+0xae8>)
 800772c:	9a07      	ldr	r2, [sp, #28]
 800772e:	402b      	ands	r3, r5
 8007730:	2a00      	cmp	r2, #0
 8007732:	d05f      	beq.n	80077f4 <_strtod_l+0x8fc>
 8007734:	f1b3 6fd6 	cmp.w	r3, #112197632	@ 0x6b00000
 8007738:	d85c      	bhi.n	80077f4 <_strtod_l+0x8fc>
 800773a:	f1b3 7f5c 	cmp.w	r3, #57671680	@ 0x3700000
 800773e:	f67f ae8c 	bls.w	800745a <_strtod_l+0x562>
 8007742:	4ba8      	ldr	r3, [pc, #672]	@ (80079e4 <_strtod_l+0xaec>)
 8007744:	4640      	mov	r0, r8
 8007746:	4649      	mov	r1, r9
 8007748:	2200      	movs	r2, #0
 800774a:	f7f8 ff7d 	bl	8000648 <__aeabi_dmul>
 800774e:	4ba4      	ldr	r3, [pc, #656]	@ (80079e0 <_strtod_l+0xae8>)
 8007750:	400b      	ands	r3, r1
 8007752:	4680      	mov	r8, r0
 8007754:	4689      	mov	r9, r1
 8007756:	2b00      	cmp	r3, #0
 8007758:	f47f ae50 	bne.w	80073fc <_strtod_l+0x504>
 800775c:	9a04      	ldr	r2, [sp, #16]
 800775e:	2322      	movs	r3, #34	@ 0x22
 8007760:	6013      	str	r3, [r2, #0]
 8007762:	e64b      	b.n	80073fc <_strtod_l+0x504>
 8007764:	464d      	mov	r5, r9
 8007766:	d162      	bne.n	800782e <_strtod_l+0x936>
 8007768:	9a0f      	ldr	r2, [sp, #60]	@ 0x3c
 800776a:	f3c9 0313 	ubfx	r3, r9, #0, #20
 800776e:	b342      	cbz	r2, 80077c2 <_strtod_l+0x8ca>
 8007770:	4a9d      	ldr	r2, [pc, #628]	@ (80079e8 <_strtod_l+0xaf0>)
 8007772:	4293      	cmp	r3, r2
 8007774:	d128      	bne.n	80077c8 <_strtod_l+0x8d0>
 8007776:	9b07      	ldr	r3, [sp, #28]
 8007778:	4641      	mov	r1, r8
 800777a:	b1eb      	cbz	r3, 80077b8 <_strtod_l+0x8c0>
 800777c:	4b98      	ldr	r3, [pc, #608]	@ (80079e0 <_strtod_l+0xae8>)
 800777e:	402b      	ands	r3, r5
 8007780:	f1b3 6fd4 	cmp.w	r3, #111149056	@ 0x6a00000
 8007784:	f04f 32ff 	mov.w	r2, #4294967295	@ 0xffffffff
 8007788:	d819      	bhi.n	80077be <_strtod_l+0x8c6>
 800778a:	0d1b      	lsrs	r3, r3, #20
 800778c:	f1c3 036b 	rsb	r3, r3, #107	@ 0x6b
 8007790:	fa02 f303 	lsl.w	r3, r2, r3
 8007794:	4299      	cmp	r1, r3
 8007796:	d117      	bne.n	80077c8 <_strtod_l+0x8d0>
 8007798:	4b94      	ldr	r3, [pc, #592]	@ (80079ec <_strtod_l+0xaf4>)
 800779a:	429d      	cmp	r5, r3
 800779c:	d102      	bne.n	80077a4 <_strtod_l+0x8ac>
 800779e:	3101      	adds	r1, #1
 80077a0:	f43f ae21 	beq.w	80073e6 <_strtod_l+0x4ee>
 80077a4:	4b8e      	ldr	r3, [pc, #568]	@ (80079e0 <_strtod_l+0xae8>)
 80077a6:	402b      	ands	r3, r5
 80077a8:	f503 1980 	add.w	r9, r3, #1048576	@ 0x100000
 80077ac:	f04f 0800 	mov.w	r8, #0
 80077b0:	9b07      	ldr	r3, [sp, #28]
 80077b2:	2b00      	cmp	r3, #0
 80077b4:	d1c5      	bne.n	8007742 <_strtod_l+0x84a>
 80077b6:	e621      	b.n	80073fc <_strtod_l+0x504>
 80077b8:	f04f 33ff 	mov.w	r3, #4294967295	@ 0xffffffff
 80077bc:	e7ea      	b.n	8007794 <_strtod_l+0x89c>
 80077be:	4613      	mov	r3, r2
 80077c0:	e7e8      	b.n	8007794 <_strtod_l+0x89c>
 80077c2:	ea53 0308 	orrs.w	r3, r3, r8
 80077c6:	d0b0      	beq.n	800772a <_strtod_l+0x832>
 80077c8:	f1bb 0f00 	cmp.w	fp, #0
 80077cc:	d01b      	beq.n	8007806 <_strtod_l+0x90e>
 80077ce:	ea1b 0f05 	tst.w	fp, r5
 80077d2:	d0ed      	beq.n	80077b0 <_strtod_l+0x8b8>
 80077d4:	9b0f      	ldr	r3, [sp, #60]	@ 0x3c
 80077d6:	9a07      	ldr	r2, [sp, #28]
 80077d8:	4640      	mov	r0, r8
 80077da:	4649      	mov	r1, r9
 80077dc:	b1b3      	cbz	r3, 800780c <_strtod_l+0x914>
 80077de:	f7ff fb6d 	bl	8006ebc <sulp>
 80077e2:	e9dd 010c 	ldrd	r0, r1, [sp, #48]	@ 0x30
 80077e6:	ec53 2b10 	vmov	r2, r3, d0
 80077ea:	f7f8 fd77 	bl	80002dc <__adddf3>
 80077ee:	4680      	mov	r8, r0
 80077f0:	4689      	mov	r9, r1
 80077f2:	e7dd      	b.n	80077b0 <_strtod_l+0x8b8>
 80077f4:	f5a3 1380 	sub.w	r3, r3, #1048576	@ 0x100000
 80077f8:	ea6f 5913 	mvn.w	r9, r3, lsr #20
 80077fc:	ea6f 5909 	mvn.w	r9, r9, lsl #20
 8007800:	f04f 38ff 	mov.w	r8, #4294967295	@ 0xffffffff
 8007804:	e7d4      	b.n	80077b0 <_strtod_l+0x8b8>
 8007806:	ea1a 0f08 	tst.w	sl, r8
 800780a:	e7e2      	b.n	80077d2 <_strtod_l+0x8da>
 800780c:	f7ff fb56 	bl	8006ebc <sulp>
 8007810:	e9dd 010c 	ldrd	r0, r1, [sp, #48]	@ 0x30
 8007814:	ec53 2b10 	vmov	r2, r3, d0
 8007818:	f7f8 fd5e 	bl	80002d8 <__aeabi_dsub>
 800781c:	2200      	movs	r2, #0
 800781e:	2300      	movs	r3, #0
 8007820:	4680      	mov	r8, r0
 8007822:	4689      	mov	r9, r1
 8007824:	f7f9 f978 	bl	8000b18 <__aeabi_dcmpeq>
 8007828:	2800      	cmp	r0, #0
 800782a:	d0c1      	beq.n	80077b0 <_strtod_l+0x8b8>
 800782c:	e615      	b.n	800745a <_strtod_l+0x562>
 800782e:	9905      	ldr	r1, [sp, #20]
 8007830:	4620      	mov	r0, r4
 8007832:	f001 fb51 	bl	8008ed8 <__ratio>
 8007836:	ec57 6b10 	vmov	r6, r7, d0
 800783a:	2200      	movs	r2, #0
 800783c:	f04f 4380 	mov.w	r3, #1073741824	@ 0x40000000
 8007840:	4630      	mov	r0, r6
 8007842:	4639      	mov	r1, r7
 8007844:	f7f9 f97c 	bl	8000b40 <__aeabi_dcmple>
 8007848:	2800      	cmp	r0, #0
 800784a:	d070      	beq.n	800792e <_strtod_l+0xa36>
 800784c:	9b0f      	ldr	r3, [sp, #60]	@ 0x3c
 800784e:	2b00      	cmp	r3, #0
 8007850:	d17b      	bne.n	800794a <_strtod_l+0xa52>
 8007852:	f1b8 0f00 	cmp.w	r8, #0
 8007856:	d156      	bne.n	8007906 <_strtod_l+0xa0e>
 8007858:	f3c9 0313 	ubfx	r3, r9, #0, #20
 800785c:	2b00      	cmp	r3, #0
 800785e:	d158      	bne.n	8007912 <_strtod_l+0xa1a>
 8007860:	4b63      	ldr	r3, [pc, #396]	@ (80079f0 <_strtod_l+0xaf8>)
 8007862:	2200      	movs	r2, #0
 8007864:	4630      	mov	r0, r6
 8007866:	4639      	mov	r1, r7
 8007868:	f7f9 f960 	bl	8000b2c <__aeabi_dcmplt>
 800786c:	2800      	cmp	r0, #0
 800786e:	d159      	bne.n	8007924 <_strtod_l+0xa2c>
 8007870:	4b60      	ldr	r3, [pc, #384]	@ (80079f4 <_strtod_l+0xafc>)
 8007872:	2200      	movs	r2, #0
 8007874:	4630      	mov	r0, r6
 8007876:	4639      	mov	r1, r7
 8007878:	f7f8 fee6 	bl	8000648 <__aeabi_dmul>
 800787c:	4682      	mov	sl, r0
 800787e:	468b      	mov	fp, r1
 8007880:	f10b 4300 	add.w	r3, fp, #2147483648	@ 0x80000000
 8007884:	f8cd a020 	str.w	sl, [sp, #32]
 8007888:	9309      	str	r3, [sp, #36]	@ 0x24
 800788a:	4b55      	ldr	r3, [pc, #340]	@ (80079e0 <_strtod_l+0xae8>)
 800788c:	4a54      	ldr	r2, [pc, #336]	@ (80079e0 <_strtod_l+0xae8>)
 800788e:	402b      	ands	r3, r5
 8007890:	9313      	str	r3, [sp, #76]	@ 0x4c
 8007892:	4b59      	ldr	r3, [pc, #356]	@ (80079f8 <_strtod_l+0xb00>)
 8007894:	402a      	ands	r2, r5
 8007896:	429a      	cmp	r2, r3
 8007898:	e9dd 6708 	ldrd	r6, r7, [sp, #32]
 800789c:	f040 80b0 	bne.w	8007a00 <_strtod_l+0xb08>
 80078a0:	f1a5 7954 	sub.w	r9, r5, #55574528	@ 0x3500000
 80078a4:	ec49 8b10 	vmov	d0, r8, r9
 80078a8:	f001 fa4e 	bl	8008d48 <__ulp>
 80078ac:	e9dd 2308 	ldrd	r2, r3, [sp, #32]
 80078b0:	ec51 0b10 	vmov	r0, r1, d0
 80078b4:	f7f8 fec8 	bl	8000648 <__aeabi_dmul>
 80078b8:	4642      	mov	r2, r8
 80078ba:	464b      	mov	r3, r9
 80078bc:	f7f8 fd0e 	bl	80002dc <__adddf3>
 80078c0:	4d47      	ldr	r5, [pc, #284]	@ (80079e0 <_strtod_l+0xae8>)
 80078c2:	4a4e      	ldr	r2, [pc, #312]	@ (80079fc <_strtod_l+0xb04>)
 80078c4:	400d      	ands	r5, r1
 80078c6:	4295      	cmp	r5, r2
 80078c8:	4680      	mov	r8, r0
 80078ca:	d945      	bls.n	8007958 <_strtod_l+0xa60>
 80078cc:	9a0d      	ldr	r2, [sp, #52]	@ 0x34
 80078ce:	4b47      	ldr	r3, [pc, #284]	@ (80079ec <_strtod_l+0xaf4>)
 80078d0:	429a      	cmp	r2, r3
 80078d2:	d103      	bne.n	80078dc <_strtod_l+0x9e4>
 80078d4:	9b0c      	ldr	r3, [sp, #48]	@ 0x30
 80078d6:	3301      	adds	r3, #1
 80078d8:	f43f ad85 	beq.w	80073e6 <_strtod_l+0x4ee>
 80078dc:	f8df 910c 	ldr.w	r9, [pc, #268]	@ 80079ec <_strtod_l+0xaf4>
 80078e0:	f04f 38ff 	mov.w	r8, #4294967295	@ 0xffffffff
 80078e4:	9918      	ldr	r1, [sp, #96]	@ 0x60
 80078e6:	9804      	ldr	r0, [sp, #16]
 80078e8:	f000 fef2 	bl	80086d0 <_Bfree>
 80078ec:	9906      	ldr	r1, [sp, #24]
 80078ee:	9804      	ldr	r0, [sp, #16]
 80078f0:	f000 feee 	bl	80086d0 <_Bfree>
 80078f4:	e9dd 0104 	ldrd	r0, r1, [sp, #16]
 80078f8:	f000 feea 	bl	80086d0 <_Bfree>
 80078fc:	9804      	ldr	r0, [sp, #16]
 80078fe:	4621      	mov	r1, r4
 8007900:	f000 fee6 	bl	80086d0 <_Bfree>
 8007904:	e625      	b.n	8007552 <_strtod_l+0x65a>
 8007906:	f1b8 0f01 	cmp.w	r8, #1
 800790a:	d102      	bne.n	8007912 <_strtod_l+0xa1a>
 800790c:	2d00      	cmp	r5, #0
 800790e:	f43f ada4 	beq.w	800745a <_strtod_l+0x562>
 8007912:	ed9f 7b2b 	vldr	d7, [pc, #172]	@ 80079c0 <_strtod_l+0xac8>
 8007916:	f8df b0d8 	ldr.w	fp, [pc, #216]	@ 80079f0 <_strtod_l+0xaf8>
 800791a:	ed8d 7b08 	vstr	d7, [sp, #32]
 800791e:	f04f 0a00 	mov.w	sl, #0
 8007922:	e7b2      	b.n	800788a <_strtod_l+0x992>
 8007924:	f8df b0cc 	ldr.w	fp, [pc, #204]	@ 80079f4 <_strtod_l+0xafc>
 8007928:	f04f 0a00 	mov.w	sl, #0
 800792c:	e7a8      	b.n	8007880 <_strtod_l+0x988>
 800792e:	4b31      	ldr	r3, [pc, #196]	@ (80079f4 <_strtod_l+0xafc>)
 8007930:	2200      	movs	r2, #0
 8007932:	4630      	mov	r0, r6
 8007934:	4639      	mov	r1, r7
 8007936:	f7f8 fe87 	bl	8000648 <__aeabi_dmul>
 800793a:	9b0f      	ldr	r3, [sp, #60]	@ 0x3c
 800793c:	4682      	mov	sl, r0
 800793e:	468b      	mov	fp, r1
 8007940:	2b00      	cmp	r3, #0
 8007942:	d09d      	beq.n	8007880 <_strtod_l+0x988>
 8007944:	e9cd ab08 	strd	sl, fp, [sp, #32]
 8007948:	e79f      	b.n	800788a <_strtod_l+0x992>
 800794a:	ed9f 7b1f 	vldr	d7, [pc, #124]	@ 80079c8 <_strtod_l+0xad0>
 800794e:	ed8d 7b08 	vstr	d7, [sp, #32]
 8007952:	ec5b ab17 	vmov	sl, fp, d7
 8007956:	e798      	b.n	800788a <_strtod_l+0x992>
 8007958:	f101 7954 	add.w	r9, r1, #55574528	@ 0x3500000
 800795c:	9b07      	ldr	r3, [sp, #28]
 800795e:	2b00      	cmp	r3, #0
 8007960:	d1c0      	bne.n	80078e4 <_strtod_l+0x9ec>
 8007962:	f029 4300 	bic.w	r3, r9, #2147483648	@ 0x80000000
 8007966:	9a13      	ldr	r2, [sp, #76]	@ 0x4c
 8007968:	0d1b      	lsrs	r3, r3, #20
 800796a:	051b      	lsls	r3, r3, #20
 800796c:	429a      	cmp	r2, r3
 800796e:	d1b9      	bne.n	80078e4 <_strtod_l+0x9ec>
 8007970:	4650      	mov	r0, sl
 8007972:	4659      	mov	r1, fp
 8007974:	f7f9 f9b2 	bl	8000cdc <__aeabi_d2lz>
 8007978:	f7f8 fe38 	bl	80005ec <__aeabi_l2d>
 800797c:	4602      	mov	r2, r0
 800797e:	460b      	mov	r3, r1
 8007980:	4650      	mov	r0, sl
 8007982:	4659      	mov	r1, fp
 8007984:	f7f8 fca8 	bl	80002d8 <__aeabi_dsub>
 8007988:	9a0f      	ldr	r2, [sp, #60]	@ 0x3c
 800798a:	f3c9 0313 	ubfx	r3, r9, #0, #20
 800798e:	ea43 0308 	orr.w	r3, r3, r8
 8007992:	4313      	orrs	r3, r2
 8007994:	4606      	mov	r6, r0
 8007996:	460f      	mov	r7, r1
 8007998:	d06b      	beq.n	8007a72 <_strtod_l+0xb7a>
 800799a:	a30d      	add	r3, pc, #52	@ (adr r3, 80079d0 <_strtod_l+0xad8>)
 800799c:	e9d3 2300 	ldrd	r2, r3, [r3]
 80079a0:	f7f9 f8c4 	bl	8000b2c <__aeabi_dcmplt>
 80079a4:	2800      	cmp	r0, #0
 80079a6:	f47f ad29 	bne.w	80073fc <_strtod_l+0x504>
 80079aa:	a30b      	add	r3, pc, #44	@ (adr r3, 80079d8 <_strtod_l+0xae0>)
 80079ac:	e9d3 2300 	ldrd	r2, r3, [r3]
 80079b0:	4630      	mov	r0, r6
 80079b2:	4639      	mov	r1, r7
 80079b4:	f7f9 f8d8 	bl	8000b68 <__aeabi_dcmpgt>
 80079b8:	2800      	cmp	r0, #0
 80079ba:	d093      	beq.n	80078e4 <_strtod_l+0x9ec>
 80079bc:	e51e      	b.n	80073fc <_strtod_l+0x504>
 80079be:	bf00      	nop
 80079c0:	00000000 	.word	0x00000000
 80079c4:	bff00000 	.word	0xbff00000
 80079c8:	00000000 	.word	0x00000000
 80079cc:	3ff00000 	.word	0x3ff00000
 80079d0:	94a03595 	.word	0x94a03595
 80079d4:	3fdfffff 	.word	0x3fdfffff
 80079d8:	35afe535 	.word	0x35afe535
 80079dc:	3fe00000 	.word	0x3fe00000
 80079e0:	7ff00000 	.word	0x7ff00000
 80079e4:	39500000 	.word	0x39500000
 80079e8:	000fffff 	.word	0x000fffff
 80079ec:	7fefffff 	.word	0x7fefffff
 80079f0:	3ff00000 	.word	0x3ff00000
 80079f4:	3fe00000 	.word	0x3fe00000
 80079f8:	7fe00000 	.word	0x7fe00000
 80079fc:	7c9fffff 	.word	0x7c9fffff
 8007a00:	9b07      	ldr	r3, [sp, #28]
 8007a02:	b313      	cbz	r3, 8007a4a <_strtod_l+0xb52>
 8007a04:	9b13      	ldr	r3, [sp, #76]	@ 0x4c
 8007a06:	f1b3 6fd4 	cmp.w	r3, #111149056	@ 0x6a00000
 8007a0a:	d81e      	bhi.n	8007a4a <_strtod_l+0xb52>
 8007a0c:	a324      	add	r3, pc, #144	@ (adr r3, 8007aa0 <_strtod_l+0xba8>)
 8007a0e:	e9d3 2300 	ldrd	r2, r3, [r3]
 8007a12:	4650      	mov	r0, sl
 8007a14:	4659      	mov	r1, fp
 8007a16:	f7f9 f893 	bl	8000b40 <__aeabi_dcmple>
 8007a1a:	b190      	cbz	r0, 8007a42 <_strtod_l+0xb4a>
 8007a1c:	4659      	mov	r1, fp
 8007a1e:	4650      	mov	r0, sl
 8007a20:	f7f9 f8d4 	bl	8000bcc <__aeabi_d2uiz>
 8007a24:	2801      	cmp	r0, #1
 8007a26:	bf38      	it	cc
 8007a28:	2001      	movcc	r0, #1
 8007a2a:	f7f8 fd93 	bl	8000554 <__aeabi_ui2d>
 8007a2e:	9b0f      	ldr	r3, [sp, #60]	@ 0x3c
 8007a30:	4682      	mov	sl, r0
 8007a32:	468b      	mov	fp, r1
 8007a34:	b9d3      	cbnz	r3, 8007a6c <_strtod_l+0xb74>
 8007a36:	f101 4300 	add.w	r3, r1, #2147483648	@ 0x80000000
 8007a3a:	9010      	str	r0, [sp, #64]	@ 0x40
 8007a3c:	9311      	str	r3, [sp, #68]	@ 0x44
 8007a3e:	e9dd 6710 	ldrd	r6, r7, [sp, #64]	@ 0x40
 8007a42:	9a13      	ldr	r2, [sp, #76]	@ 0x4c
 8007a44:	f107 63d6 	add.w	r3, r7, #112197632	@ 0x6b00000
 8007a48:	1a9f      	subs	r7, r3, r2
 8007a4a:	ed9d 0b0c 	vldr	d0, [sp, #48]	@ 0x30
 8007a4e:	f001 f97b 	bl	8008d48 <__ulp>
 8007a52:	4630      	mov	r0, r6
 8007a54:	ec53 2b10 	vmov	r2, r3, d0
 8007a58:	4639      	mov	r1, r7
 8007a5a:	f7f8 fdf5 	bl	8000648 <__aeabi_dmul>
 8007a5e:	e9dd 230c 	ldrd	r2, r3, [sp, #48]	@ 0x30
 8007a62:	f7f8 fc3b 	bl	80002dc <__adddf3>
 8007a66:	4680      	mov	r8, r0
 8007a68:	4689      	mov	r9, r1
 8007a6a:	e777      	b.n	800795c <_strtod_l+0xa64>
 8007a6c:	e9cd ab10 	strd	sl, fp, [sp, #64]	@ 0x40
 8007a70:	e7e5      	b.n	8007a3e <_strtod_l+0xb46>
 8007a72:	a30d      	add	r3, pc, #52	@ (adr r3, 8007aa8 <_strtod_l+0xbb0>)
 8007a74:	e9d3 2300 	ldrd	r2, r3, [r3]
 8007a78:	f7f9 f858 	bl	8000b2c <__aeabi_dcmplt>
 8007a7c:	e79c      	b.n	80079b8 <_strtod_l+0xac0>
 8007a7e:	2300      	movs	r3, #0
 8007a80:	930b      	str	r3, [sp, #44]	@ 0x2c
 8007a82:	9a15      	ldr	r2, [sp, #84]	@ 0x54
 8007a84:	9b17      	ldr	r3, [sp, #92]	@ 0x5c
 8007a86:	6013      	str	r3, [r2, #0]
 8007a88:	f7ff ba8c 	b.w	8006fa4 <_strtod_l+0xac>
 8007a8c:	2a65      	cmp	r2, #101	@ 0x65
 8007a8e:	f43f ab6a 	beq.w	8007166 <_strtod_l+0x26e>
 8007a92:	2a45      	cmp	r2, #69	@ 0x45
 8007a94:	f43f ab67 	beq.w	8007166 <_strtod_l+0x26e>
 8007a98:	2301      	movs	r3, #1
 8007a9a:	9307      	str	r3, [sp, #28]
 8007a9c:	f7ff bba1 	b.w	80071e2 <_strtod_l+0x2ea>
 8007aa0:	ffc00000 	.word	0xffc00000
 8007aa4:	41dfffff 	.word	0x41dfffff
 8007aa8:	94a03595 	.word	0x94a03595
 8007aac:	3fcfffff 	.word	0x3fcfffff

08007ab0 <strtod>:
 8007ab0:	460a      	mov	r2, r1
 8007ab2:	4601      	mov	r1, r0
 8007ab4:	4802      	ldr	r0, [pc, #8]	@ (8007ac0 <strtod+0x10>)
 8007ab6:	4b03      	ldr	r3, [pc, #12]	@ (8007ac4 <strtod+0x14>)
 8007ab8:	6800      	ldr	r0, [r0, #0]
 8007aba:	f7ff ba1d 	b.w	8006ef8 <_strtod_l>
 8007abe:	bf00      	nop
 8007ac0:	20000190 	.word	0x20000190
 8007ac4:	20000024 	.word	0x20000024

08007ac8 <_strtol_l.isra.0>:
 8007ac8:	2b24      	cmp	r3, #36	@ 0x24
 8007aca:	e92d 47f0 	stmdb	sp!, {r4, r5, r6, r7, r8, r9, sl, lr}
 8007ace:	4686      	mov	lr, r0
 8007ad0:	4690      	mov	r8, r2
 8007ad2:	d801      	bhi.n	8007ad8 <_strtol_l.isra.0+0x10>
 8007ad4:	2b01      	cmp	r3, #1
 8007ad6:	d106      	bne.n	8007ae6 <_strtol_l.isra.0+0x1e>
 8007ad8:	f000 f8d2 	bl	8007c80 <__errno>
 8007adc:	2316      	movs	r3, #22
 8007ade:	6003      	str	r3, [r0, #0]
 8007ae0:	2000      	movs	r0, #0
 8007ae2:	e8bd 87f0 	ldmia.w	sp!, {r4, r5, r6, r7, r8, r9, sl, pc}
 8007ae6:	4834      	ldr	r0, [pc, #208]	@ (8007bb8 <_strtol_l.isra.0+0xf0>)
 8007ae8:	460d      	mov	r5, r1
 8007aea:	462a      	mov	r2, r5
 8007aec:	f815 4b01 	ldrb.w	r4, [r5], #1
 8007af0:	5d06      	ldrb	r6, [r0, r4]
 8007af2:	f016 0608 	ands.w	r6, r6, #8
 8007af6:	d1f8      	bne.n	8007aea <_strtol_l.isra.0+0x22>
 8007af8:	2c2d      	cmp	r4, #45	@ 0x2d
 8007afa:	d110      	bne.n	8007b1e <_strtol_l.isra.0+0x56>
 8007afc:	782c      	ldrb	r4, [r5, #0]
 8007afe:	2601      	movs	r6, #1
 8007b00:	1c95      	adds	r5, r2, #2
 8007b02:	f033 0210 	bics.w	r2, r3, #16
 8007b06:	d115      	bne.n	8007b34 <_strtol_l.isra.0+0x6c>
 8007b08:	2c30      	cmp	r4, #48	@ 0x30
 8007b0a:	d10d      	bne.n	8007b28 <_strtol_l.isra.0+0x60>
 8007b0c:	782a      	ldrb	r2, [r5, #0]
 8007b0e:	f002 02df 	and.w	r2, r2, #223	@ 0xdf
 8007b12:	2a58      	cmp	r2, #88	@ 0x58
 8007b14:	d108      	bne.n	8007b28 <_strtol_l.isra.0+0x60>
 8007b16:	786c      	ldrb	r4, [r5, #1]
 8007b18:	3502      	adds	r5, #2
 8007b1a:	2310      	movs	r3, #16
 8007b1c:	e00a      	b.n	8007b34 <_strtol_l.isra.0+0x6c>
 8007b1e:	2c2b      	cmp	r4, #43	@ 0x2b
 8007b20:	bf04      	itt	eq
 8007b22:	782c      	ldrbeq	r4, [r5, #0]
 8007b24:	1c95      	addeq	r5, r2, #2
 8007b26:	e7ec      	b.n	8007b02 <_strtol_l.isra.0+0x3a>
 8007b28:	2b00      	cmp	r3, #0
 8007b2a:	d1f6      	bne.n	8007b1a <_strtol_l.isra.0+0x52>
 8007b2c:	2c30      	cmp	r4, #48	@ 0x30
 8007b2e:	bf14      	ite	ne
 8007b30:	230a      	movne	r3, #10
 8007b32:	2308      	moveq	r3, #8
 8007b34:	f106 4c00 	add.w	ip, r6, #2147483648	@ 0x80000000
 8007b38:	f10c 3cff 	add.w	ip, ip, #4294967295	@ 0xffffffff
 8007b3c:	2200      	movs	r2, #0
 8007b3e:	fbbc f9f3 	udiv	r9, ip, r3
 8007b42:	4610      	mov	r0, r2
 8007b44:	fb03 ca19 	mls	sl, r3, r9, ip
 8007b48:	f1a4 0730 	sub.w	r7, r4, #48	@ 0x30
 8007b4c:	2f09      	cmp	r7, #9
 8007b4e:	d80f      	bhi.n	8007b70 <_strtol_l.isra.0+0xa8>
 8007b50:	463c      	mov	r4, r7
 8007b52:	42a3      	cmp	r3, r4
 8007b54:	dd1b      	ble.n	8007b8e <_strtol_l.isra.0+0xc6>
 8007b56:	1c57      	adds	r7, r2, #1
 8007b58:	d007      	beq.n	8007b6a <_strtol_l.isra.0+0xa2>
 8007b5a:	4581      	cmp	r9, r0
 8007b5c:	d314      	bcc.n	8007b88 <_strtol_l.isra.0+0xc0>
 8007b5e:	d101      	bne.n	8007b64 <_strtol_l.isra.0+0x9c>
 8007b60:	45a2      	cmp	sl, r4
 8007b62:	db11      	blt.n	8007b88 <_strtol_l.isra.0+0xc0>
 8007b64:	fb00 4003 	mla	r0, r0, r3, r4
 8007b68:	2201      	movs	r2, #1
 8007b6a:	f815 4b01 	ldrb.w	r4, [r5], #1
 8007b6e:	e7eb      	b.n	8007b48 <_strtol_l.isra.0+0x80>
 8007b70:	f1a4 0741 	sub.w	r7, r4, #65	@ 0x41
 8007b74:	2f19      	cmp	r7, #25
 8007b76:	d801      	bhi.n	8007b7c <_strtol_l.isra.0+0xb4>
 8007b78:	3c37      	subs	r4, #55	@ 0x37
 8007b7a:	e7ea      	b.n	8007b52 <_strtol_l.isra.0+0x8a>
 8007b7c:	f1a4 0761 	sub.w	r7, r4, #97	@ 0x61
 8007b80:	2f19      	cmp	r7, #25
 8007b82:	d804      	bhi.n	8007b8e <_strtol_l.isra.0+0xc6>
 8007b84:	3c57      	subs	r4, #87	@ 0x57
 8007b86:	e7e4      	b.n	8007b52 <_strtol_l.isra.0+0x8a>
 8007b88:	f04f 32ff 	mov.w	r2, #4294967295	@ 0xffffffff
 8007b8c:	e7ed      	b.n	8007b6a <_strtol_l.isra.0+0xa2>
 8007b8e:	1c53      	adds	r3, r2, #1
 8007b90:	d108      	bne.n	8007ba4 <_strtol_l.isra.0+0xdc>
 8007b92:	2322      	movs	r3, #34	@ 0x22
 8007b94:	f8ce 3000 	str.w	r3, [lr]
 8007b98:	4660      	mov	r0, ip
 8007b9a:	f1b8 0f00 	cmp.w	r8, #0
 8007b9e:	d0a0      	beq.n	8007ae2 <_strtol_l.isra.0+0x1a>
 8007ba0:	1e69      	subs	r1, r5, #1
 8007ba2:	e006      	b.n	8007bb2 <_strtol_l.isra.0+0xea>
 8007ba4:	b106      	cbz	r6, 8007ba8 <_strtol_l.isra.0+0xe0>
 8007ba6:	4240      	negs	r0, r0
 8007ba8:	f1b8 0f00 	cmp.w	r8, #0
 8007bac:	d099      	beq.n	8007ae2 <_strtol_l.isra.0+0x1a>
 8007bae:	2a00      	cmp	r2, #0
 8007bb0:	d1f6      	bne.n	8007ba0 <_strtol_l.isra.0+0xd8>
 8007bb2:	f8c8 1000 	str.w	r1, [r8]
 8007bb6:	e794      	b.n	8007ae2 <_strtol_l.isra.0+0x1a>
 8007bb8:	0800a659 	.word	0x0800a659

08007bbc <strtol>:
 8007bbc:	4613      	mov	r3, r2
 8007bbe:	460a      	mov	r2, r1
 8007bc0:	4601      	mov	r1, r0
 8007bc2:	4802      	ldr	r0, [pc, #8]	@ (8007bcc <strtol+0x10>)
 8007bc4:	6800      	ldr	r0, [r0, #0]
 8007bc6:	f7ff bf7f 	b.w	8007ac8 <_strtol_l.isra.0>
 8007bca:	bf00      	nop
 8007bcc:	20000190 	.word	0x20000190

08007bd0 <_fwalk_sglue>:
 8007bd0:	e92d 43f8 	stmdb	sp!, {r3, r4, r5, r6, r7, r8, r9, lr}
 8007bd4:	4607      	mov	r7, r0
 8007bd6:	4688      	mov	r8, r1
 8007bd8:	4614      	mov	r4, r2
 8007bda:	2600      	movs	r6, #0
 8007bdc:	e9d4 9501 	ldrd	r9, r5, [r4, #4]
 8007be0:	f1b9 0901 	subs.w	r9, r9, #1
 8007be4:	d505      	bpl.n	8007bf2 <_fwalk_sglue+0x22>
 8007be6:	6824      	ldr	r4, [r4, #0]
 8007be8:	2c00      	cmp	r4, #0
 8007bea:	d1f7      	bne.n	8007bdc <_fwalk_sglue+0xc>
 8007bec:	4630      	mov	r0, r6
 8007bee:	e8bd 83f8 	ldmia.w	sp!, {r3, r4, r5, r6, r7, r8, r9, pc}
 8007bf2:	89ab      	ldrh	r3, [r5, #12]
 8007bf4:	2b01      	cmp	r3, #1
 8007bf6:	d907      	bls.n	8007c08 <_fwalk_sglue+0x38>
 8007bf8:	f9b5 300e 	ldrsh.w	r3, [r5, #14]
 8007bfc:	3301      	adds	r3, #1
 8007bfe:	d003      	beq.n	8007c08 <_fwalk_sglue+0x38>
 8007c00:	4629      	mov	r1, r5
 8007c02:	4638      	mov	r0, r7
 8007c04:	47c0      	blx	r8
 8007c06:	4306      	orrs	r6, r0
 8007c08:	3568      	adds	r5, #104	@ 0x68
 8007c0a:	e7e9      	b.n	8007be0 <_fwalk_sglue+0x10>

08007c0c <memset>:
 8007c0c:	4402      	add	r2, r0
 8007c0e:	4603      	mov	r3, r0
 8007c10:	4293      	cmp	r3, r2
 8007c12:	d100      	bne.n	8007c16 <memset+0xa>
 8007c14:	4770      	bx	lr
 8007c16:	f803 1b01 	strb.w	r1, [r3], #1
 8007c1a:	e7f9      	b.n	8007c10 <memset+0x4>

08007c1c <strchr>:
 8007c1c:	b2c9      	uxtb	r1, r1
 8007c1e:	4603      	mov	r3, r0
 8007c20:	4618      	mov	r0, r3
 8007c22:	f813 2b01 	ldrb.w	r2, [r3], #1
 8007c26:	b112      	cbz	r2, 8007c2e <strchr+0x12>
 8007c28:	428a      	cmp	r2, r1
 8007c2a:	d1f9      	bne.n	8007c20 <strchr+0x4>
 8007c2c:	4770      	bx	lr
 8007c2e:	2900      	cmp	r1, #0
 8007c30:	bf18      	it	ne
 8007c32:	2000      	movne	r0, #0
 8007c34:	4770      	bx	lr

08007c36 <strncmp>:
 8007c36:	b510      	push	{r4, lr}
 8007c38:	b16a      	cbz	r2, 8007c56 <strncmp+0x20>
 8007c3a:	3901      	subs	r1, #1
 8007c3c:	1884      	adds	r4, r0, r2
 8007c3e:	f810 2b01 	ldrb.w	r2, [r0], #1
 8007c42:	f811 3f01 	ldrb.w	r3, [r1, #1]!
 8007c46:	429a      	cmp	r2, r3
 8007c48:	d103      	bne.n	8007c52 <strncmp+0x1c>
 8007c4a:	42a0      	cmp	r0, r4
 8007c4c:	d001      	beq.n	8007c52 <strncmp+0x1c>
 8007c4e:	2a00      	cmp	r2, #0
 8007c50:	d1f5      	bne.n	8007c3e <strncmp+0x8>
 8007c52:	1ad0      	subs	r0, r2, r3
 8007c54:	bd10      	pop	{r4, pc}
 8007c56:	4610      	mov	r0, r2
 8007c58:	e7fc      	b.n	8007c54 <strncmp+0x1e>

08007c5a <strncpy>:
 8007c5a:	b510      	push	{r4, lr}
 8007c5c:	3901      	subs	r1, #1
 8007c5e:	4603      	mov	r3, r0
 8007c60:	b132      	cbz	r2, 8007c70 <strncpy+0x16>
 8007c62:	f811 4f01 	ldrb.w	r4, [r1, #1]!
 8007c66:	f803 4b01 	strb.w	r4, [r3], #1
 8007c6a:	3a01      	subs	r2, #1
 8007c6c:	2c00      	cmp	r4, #0
 8007c6e:	d1f7      	bne.n	8007c60 <strncpy+0x6>
 8007c70:	441a      	add	r2, r3
 8007c72:	2100      	movs	r1, #0
 8007c74:	4293      	cmp	r3, r2
 8007c76:	d100      	bne.n	8007c7a <strncpy+0x20>
 8007c78:	bd10      	pop	{r4, pc}
 8007c7a:	f803 1b01 	strb.w	r1, [r3], #1
 8007c7e:	e7f9      	b.n	8007c74 <strncpy+0x1a>

08007c80 <__errno>:
 8007c80:	4b01      	ldr	r3, [pc, #4]	@ (8007c88 <__errno+0x8>)
 8007c82:	6818      	ldr	r0, [r3, #0]
 8007c84:	4770      	bx	lr
 8007c86:	bf00      	nop
 8007c88:	20000190 	.word	0x20000190

08007c8c <__libc_init_array>:
 8007c8c:	b570      	push	{r4, r5, r6, lr}
 8007c8e:	4b0d      	ldr	r3, [pc, #52]	@ (8007cc4 <__libc_init_array+0x38>)
 8007c90:	4d0d      	ldr	r5, [pc, #52]	@ (8007cc8 <__libc_init_array+0x3c>)
 8007c92:	1b5b      	subs	r3, r3, r5
 8007c94:	109c      	asrs	r4, r3, #2
 8007c96:	2600      	movs	r6, #0
 8007c98:	42a6      	cmp	r6, r4
 8007c9a:	d109      	bne.n	8007cb0 <__libc_init_array+0x24>
 8007c9c:	f002 fb66 	bl	800a36c <_init>
 8007ca0:	4d0a      	ldr	r5, [pc, #40]	@ (8007ccc <__libc_init_array+0x40>)
 8007ca2:	4b0b      	ldr	r3, [pc, #44]	@ (8007cd0 <__libc_init_array+0x44>)
 8007ca4:	1b5b      	subs	r3, r3, r5
 8007ca6:	109c      	asrs	r4, r3, #2
 8007ca8:	2600      	movs	r6, #0
 8007caa:	42a6      	cmp	r6, r4
 8007cac:	d105      	bne.n	8007cba <__libc_init_array+0x2e>
 8007cae:	bd70      	pop	{r4, r5, r6, pc}
 8007cb0:	f855 3b04 	ldr.w	r3, [r5], #4
 8007cb4:	4798      	blx	r3
 8007cb6:	3601      	adds	r6, #1
 8007cb8:	e7ee      	b.n	8007c98 <__libc_init_array+0xc>
 8007cba:	f855 3b04 	ldr.w	r3, [r5], #4
 8007cbe:	4798      	blx	r3
 8007cc0:	3601      	adds	r6, #1
 8007cc2:	e7f2      	b.n	8007caa <__libc_init_array+0x1e>
 8007cc4:	0800a860 	.word	0x0800a860
 8007cc8:	0800a860 	.word	0x0800a860
 8007ccc:	0800a860 	.word	0x0800a860
 8007cd0:	0800a864 	.word	0x0800a864

08007cd4 <__retarget_lock_init_recursive>:
 8007cd4:	4770      	bx	lr

08007cd6 <__retarget_lock_acquire_recursive>:
 8007cd6:	4770      	bx	lr

08007cd8 <__retarget_lock_release_recursive>:
 8007cd8:	4770      	bx	lr

08007cda <memcpy>:
 8007cda:	440a      	add	r2, r1
 8007cdc:	4291      	cmp	r1, r2
 8007cde:	f100 33ff 	add.w	r3, r0, #4294967295	@ 0xffffffff
 8007ce2:	d100      	bne.n	8007ce6 <memcpy+0xc>
 8007ce4:	4770      	bx	lr
 8007ce6:	b510      	push	{r4, lr}
 8007ce8:	f811 4b01 	ldrb.w	r4, [r1], #1
 8007cec:	f803 4f01 	strb.w	r4, [r3, #1]!
 8007cf0:	4291      	cmp	r1, r2
 8007cf2:	d1f9      	bne.n	8007ce8 <memcpy+0xe>
 8007cf4:	bd10      	pop	{r4, pc}
	...

08007cf8 <nan>:
 8007cf8:	ed9f 0b01 	vldr	d0, [pc, #4]	@ 8007d00 <nan+0x8>
 8007cfc:	4770      	bx	lr
 8007cfe:	bf00      	nop
 8007d00:	00000000 	.word	0x00000000
 8007d04:	7ff80000 	.word	0x7ff80000

08007d08 <rshift>:
 8007d08:	6903      	ldr	r3, [r0, #16]
 8007d0a:	ebb3 1f61 	cmp.w	r3, r1, asr #5
 8007d0e:	e92d 43f0 	stmdb	sp!, {r4, r5, r6, r7, r8, r9, lr}
 8007d12:	ea4f 1261 	mov.w	r2, r1, asr #5
 8007d16:	f100 0414 	add.w	r4, r0, #20
 8007d1a:	dd45      	ble.n	8007da8 <rshift+0xa0>
 8007d1c:	f011 011f 	ands.w	r1, r1, #31
 8007d20:	eb04 0683 	add.w	r6, r4, r3, lsl #2
 8007d24:	eb04 0582 	add.w	r5, r4, r2, lsl #2
 8007d28:	d10c      	bne.n	8007d44 <rshift+0x3c>
 8007d2a:	f100 0710 	add.w	r7, r0, #16
 8007d2e:	4629      	mov	r1, r5
 8007d30:	42b1      	cmp	r1, r6
 8007d32:	d334      	bcc.n	8007d9e <rshift+0x96>
 8007d34:	1a9b      	subs	r3, r3, r2
 8007d36:	009b      	lsls	r3, r3, #2
 8007d38:	1eea      	subs	r2, r5, #3
 8007d3a:	4296      	cmp	r6, r2
 8007d3c:	bf38      	it	cc
 8007d3e:	2300      	movcc	r3, #0
 8007d40:	4423      	add	r3, r4
 8007d42:	e015      	b.n	8007d70 <rshift+0x68>
 8007d44:	f854 7022 	ldr.w	r7, [r4, r2, lsl #2]
 8007d48:	f1c1 0820 	rsb	r8, r1, #32
 8007d4c:	40cf      	lsrs	r7, r1
 8007d4e:	f105 0e04 	add.w	lr, r5, #4
 8007d52:	46a1      	mov	r9, r4
 8007d54:	4576      	cmp	r6, lr
 8007d56:	46f4      	mov	ip, lr
 8007d58:	d815      	bhi.n	8007d86 <rshift+0x7e>
 8007d5a:	1a9a      	subs	r2, r3, r2
 8007d5c:	0092      	lsls	r2, r2, #2
 8007d5e:	3a04      	subs	r2, #4
 8007d60:	3501      	adds	r5, #1
 8007d62:	42ae      	cmp	r6, r5
 8007d64:	bf38      	it	cc
 8007d66:	2200      	movcc	r2, #0
 8007d68:	18a3      	adds	r3, r4, r2
 8007d6a:	50a7      	str	r7, [r4, r2]
 8007d6c:	b107      	cbz	r7, 8007d70 <rshift+0x68>
 8007d6e:	3304      	adds	r3, #4
 8007d70:	1b1a      	subs	r2, r3, r4
 8007d72:	42a3      	cmp	r3, r4
 8007d74:	ea4f 02a2 	mov.w	r2, r2, asr #2
 8007d78:	bf08      	it	eq
 8007d7a:	2300      	moveq	r3, #0
 8007d7c:	6102      	str	r2, [r0, #16]
 8007d7e:	bf08      	it	eq
 8007d80:	6143      	streq	r3, [r0, #20]
 8007d82:	e8bd 83f0 	ldmia.w	sp!, {r4, r5, r6, r7, r8, r9, pc}
 8007d86:	f8dc c000 	ldr.w	ip, [ip]
 8007d8a:	fa0c fc08 	lsl.w	ip, ip, r8
 8007d8e:	ea4c 0707 	orr.w	r7, ip, r7
 8007d92:	f849 7b04 	str.w	r7, [r9], #4
 8007d96:	f85e 7b04 	ldr.w	r7, [lr], #4
 8007d9a:	40cf      	lsrs	r7, r1
 8007d9c:	e7da      	b.n	8007d54 <rshift+0x4c>
 8007d9e:	f851 cb04 	ldr.w	ip, [r1], #4
 8007da2:	f847 cf04 	str.w	ip, [r7, #4]!
 8007da6:	e7c3      	b.n	8007d30 <rshift+0x28>
 8007da8:	4623      	mov	r3, r4
 8007daa:	e7e1      	b.n	8007d70 <rshift+0x68>

08007dac <__hexdig_fun>:
 8007dac:	f1a0 0330 	sub.w	r3, r0, #48	@ 0x30
 8007db0:	2b09      	cmp	r3, #9
 8007db2:	d802      	bhi.n	8007dba <__hexdig_fun+0xe>
 8007db4:	3820      	subs	r0, #32
 8007db6:	b2c0      	uxtb	r0, r0
 8007db8:	4770      	bx	lr
 8007dba:	f1a0 0361 	sub.w	r3, r0, #97	@ 0x61
 8007dbe:	2b05      	cmp	r3, #5
 8007dc0:	d801      	bhi.n	8007dc6 <__hexdig_fun+0x1a>
 8007dc2:	3847      	subs	r0, #71	@ 0x47
 8007dc4:	e7f7      	b.n	8007db6 <__hexdig_fun+0xa>
 8007dc6:	f1a0 0341 	sub.w	r3, r0, #65	@ 0x41
 8007dca:	2b05      	cmp	r3, #5
 8007dcc:	d801      	bhi.n	8007dd2 <__hexdig_fun+0x26>
 8007dce:	3827      	subs	r0, #39	@ 0x27
 8007dd0:	e7f1      	b.n	8007db6 <__hexdig_fun+0xa>
 8007dd2:	2000      	movs	r0, #0
 8007dd4:	4770      	bx	lr
	...

08007dd8 <__gethex>:
 8007dd8:	e92d 4ff0 	stmdb	sp!, {r4, r5, r6, r7, r8, r9, sl, fp, lr}
 8007ddc:	b085      	sub	sp, #20
 8007dde:	468a      	mov	sl, r1
 8007de0:	9302      	str	r3, [sp, #8]
 8007de2:	680b      	ldr	r3, [r1, #0]
 8007de4:	9001      	str	r0, [sp, #4]
 8007de6:	4690      	mov	r8, r2
 8007de8:	1c9c      	adds	r4, r3, #2
 8007dea:	46a1      	mov	r9, r4
 8007dec:	f814 0b01 	ldrb.w	r0, [r4], #1
 8007df0:	2830      	cmp	r0, #48	@ 0x30
 8007df2:	d0fa      	beq.n	8007dea <__gethex+0x12>
 8007df4:	eba9 0303 	sub.w	r3, r9, r3
 8007df8:	f1a3 0b02 	sub.w	fp, r3, #2
 8007dfc:	f7ff ffd6 	bl	8007dac <__hexdig_fun>
 8007e00:	4605      	mov	r5, r0
 8007e02:	2800      	cmp	r0, #0
 8007e04:	d168      	bne.n	8007ed8 <__gethex+0x100>
 8007e06:	49a0      	ldr	r1, [pc, #640]	@ (8008088 <__gethex+0x2b0>)
 8007e08:	2201      	movs	r2, #1
 8007e0a:	4648      	mov	r0, r9
 8007e0c:	f7ff ff13 	bl	8007c36 <strncmp>
 8007e10:	4607      	mov	r7, r0
 8007e12:	2800      	cmp	r0, #0
 8007e14:	d167      	bne.n	8007ee6 <__gethex+0x10e>
 8007e16:	f899 0001 	ldrb.w	r0, [r9, #1]
 8007e1a:	4626      	mov	r6, r4
 8007e1c:	f7ff ffc6 	bl	8007dac <__hexdig_fun>
 8007e20:	2800      	cmp	r0, #0
 8007e22:	d062      	beq.n	8007eea <__gethex+0x112>
 8007e24:	4623      	mov	r3, r4
 8007e26:	7818      	ldrb	r0, [r3, #0]
 8007e28:	2830      	cmp	r0, #48	@ 0x30
 8007e2a:	4699      	mov	r9, r3
 8007e2c:	f103 0301 	add.w	r3, r3, #1
 8007e30:	d0f9      	beq.n	8007e26 <__gethex+0x4e>
 8007e32:	f7ff ffbb 	bl	8007dac <__hexdig_fun>
 8007e36:	fab0 f580 	clz	r5, r0
 8007e3a:	096d      	lsrs	r5, r5, #5
 8007e3c:	f04f 0b01 	mov.w	fp, #1
 8007e40:	464a      	mov	r2, r9
 8007e42:	4616      	mov	r6, r2
 8007e44:	3201      	adds	r2, #1
 8007e46:	7830      	ldrb	r0, [r6, #0]
 8007e48:	f7ff ffb0 	bl	8007dac <__hexdig_fun>
 8007e4c:	2800      	cmp	r0, #0
 8007e4e:	d1f8      	bne.n	8007e42 <__gethex+0x6a>
 8007e50:	498d      	ldr	r1, [pc, #564]	@ (8008088 <__gethex+0x2b0>)
 8007e52:	2201      	movs	r2, #1
 8007e54:	4630      	mov	r0, r6
 8007e56:	f7ff feee 	bl	8007c36 <strncmp>
 8007e5a:	2800      	cmp	r0, #0
 8007e5c:	d13f      	bne.n	8007ede <__gethex+0x106>
 8007e5e:	b944      	cbnz	r4, 8007e72 <__gethex+0x9a>
 8007e60:	1c74      	adds	r4, r6, #1
 8007e62:	4622      	mov	r2, r4
 8007e64:	4616      	mov	r6, r2
 8007e66:	3201      	adds	r2, #1
 8007e68:	7830      	ldrb	r0, [r6, #0]
 8007e6a:	f7ff ff9f 	bl	8007dac <__hexdig_fun>
 8007e6e:	2800      	cmp	r0, #0
 8007e70:	d1f8      	bne.n	8007e64 <__gethex+0x8c>
 8007e72:	1ba4      	subs	r4, r4, r6
 8007e74:	00a7      	lsls	r7, r4, #2
 8007e76:	7833      	ldrb	r3, [r6, #0]
 8007e78:	f003 03df 	and.w	r3, r3, #223	@ 0xdf
 8007e7c:	2b50      	cmp	r3, #80	@ 0x50
 8007e7e:	d13e      	bne.n	8007efe <__gethex+0x126>
 8007e80:	7873      	ldrb	r3, [r6, #1]
 8007e82:	2b2b      	cmp	r3, #43	@ 0x2b
 8007e84:	d033      	beq.n	8007eee <__gethex+0x116>
 8007e86:	2b2d      	cmp	r3, #45	@ 0x2d
 8007e88:	d034      	beq.n	8007ef4 <__gethex+0x11c>
 8007e8a:	1c71      	adds	r1, r6, #1
 8007e8c:	2400      	movs	r4, #0
 8007e8e:	7808      	ldrb	r0, [r1, #0]
 8007e90:	f7ff ff8c 	bl	8007dac <__hexdig_fun>
 8007e94:	1e43      	subs	r3, r0, #1
 8007e96:	b2db      	uxtb	r3, r3
 8007e98:	2b18      	cmp	r3, #24
 8007e9a:	d830      	bhi.n	8007efe <__gethex+0x126>
 8007e9c:	f1a0 0210 	sub.w	r2, r0, #16
 8007ea0:	f811 0f01 	ldrb.w	r0, [r1, #1]!
 8007ea4:	f7ff ff82 	bl	8007dac <__hexdig_fun>
 8007ea8:	f100 3cff 	add.w	ip, r0, #4294967295	@ 0xffffffff
 8007eac:	fa5f fc8c 	uxtb.w	ip, ip
 8007eb0:	f1bc 0f18 	cmp.w	ip, #24
 8007eb4:	f04f 030a 	mov.w	r3, #10
 8007eb8:	d91e      	bls.n	8007ef8 <__gethex+0x120>
 8007eba:	b104      	cbz	r4, 8007ebe <__gethex+0xe6>
 8007ebc:	4252      	negs	r2, r2
 8007ebe:	4417      	add	r7, r2
 8007ec0:	f8ca 1000 	str.w	r1, [sl]
 8007ec4:	b1ed      	cbz	r5, 8007f02 <__gethex+0x12a>
 8007ec6:	f1bb 0f00 	cmp.w	fp, #0
 8007eca:	bf0c      	ite	eq
 8007ecc:	2506      	moveq	r5, #6
 8007ece:	2500      	movne	r5, #0
 8007ed0:	4628      	mov	r0, r5
 8007ed2:	b005      	add	sp, #20
 8007ed4:	e8bd 8ff0 	ldmia.w	sp!, {r4, r5, r6, r7, r8, r9, sl, fp, pc}
 8007ed8:	2500      	movs	r5, #0
 8007eda:	462c      	mov	r4, r5
 8007edc:	e7b0      	b.n	8007e40 <__gethex+0x68>
 8007ede:	2c00      	cmp	r4, #0
 8007ee0:	d1c7      	bne.n	8007e72 <__gethex+0x9a>
 8007ee2:	4627      	mov	r7, r4
 8007ee4:	e7c7      	b.n	8007e76 <__gethex+0x9e>
 8007ee6:	464e      	mov	r6, r9
 8007ee8:	462f      	mov	r7, r5
 8007eea:	2501      	movs	r5, #1
 8007eec:	e7c3      	b.n	8007e76 <__gethex+0x9e>
 8007eee:	2400      	movs	r4, #0
 8007ef0:	1cb1      	adds	r1, r6, #2
 8007ef2:	e7cc      	b.n	8007e8e <__gethex+0xb6>
 8007ef4:	2401      	movs	r4, #1
 8007ef6:	e7fb      	b.n	8007ef0 <__gethex+0x118>
 8007ef8:	fb03 0002 	mla	r0, r3, r2, r0
 8007efc:	e7ce      	b.n	8007e9c <__gethex+0xc4>
 8007efe:	4631      	mov	r1, r6
 8007f00:	e7de      	b.n	8007ec0 <__gethex+0xe8>
 8007f02:	eba6 0309 	sub.w	r3, r6, r9
 8007f06:	3b01      	subs	r3, #1
 8007f08:	4629      	mov	r1, r5
 8007f0a:	2b07      	cmp	r3, #7
 8007f0c:	dc0a      	bgt.n	8007f24 <__gethex+0x14c>
 8007f0e:	9801      	ldr	r0, [sp, #4]
 8007f10:	f000 fba0 	bl	8008654 <_Balloc>
 8007f14:	4604      	mov	r4, r0
 8007f16:	b940      	cbnz	r0, 8007f2a <__gethex+0x152>
 8007f18:	4b5c      	ldr	r3, [pc, #368]	@ (800808c <__gethex+0x2b4>)
 8007f1a:	4602      	mov	r2, r0
 8007f1c:	21e4      	movs	r1, #228	@ 0xe4
 8007f1e:	485c      	ldr	r0, [pc, #368]	@ (8008090 <__gethex+0x2b8>)
 8007f20:	f001 f8f8 	bl	8009114 <__assert_func>
 8007f24:	3101      	adds	r1, #1
 8007f26:	105b      	asrs	r3, r3, #1
 8007f28:	e7ef      	b.n	8007f0a <__gethex+0x132>
 8007f2a:	f100 0a14 	add.w	sl, r0, #20
 8007f2e:	2300      	movs	r3, #0
 8007f30:	4655      	mov	r5, sl
 8007f32:	469b      	mov	fp, r3
 8007f34:	45b1      	cmp	r9, r6
 8007f36:	d337      	bcc.n	8007fa8 <__gethex+0x1d0>
 8007f38:	f845 bb04 	str.w	fp, [r5], #4
 8007f3c:	eba5 050a 	sub.w	r5, r5, sl
 8007f40:	10ad      	asrs	r5, r5, #2
 8007f42:	6125      	str	r5, [r4, #16]
 8007f44:	4658      	mov	r0, fp
 8007f46:	f000 fc75 	bl	8008834 <__hi0bits>
 8007f4a:	016d      	lsls	r5, r5, #5
 8007f4c:	f8d8 6000 	ldr.w	r6, [r8]
 8007f50:	1a2d      	subs	r5, r5, r0
 8007f52:	42b5      	cmp	r5, r6
 8007f54:	dd54      	ble.n	8008000 <__gethex+0x228>
 8007f56:	1bad      	subs	r5, r5, r6
 8007f58:	4629      	mov	r1, r5
 8007f5a:	4620      	mov	r0, r4
 8007f5c:	f001 f811 	bl	8008f82 <__any_on>
 8007f60:	4681      	mov	r9, r0
 8007f62:	b178      	cbz	r0, 8007f84 <__gethex+0x1ac>
 8007f64:	1e6b      	subs	r3, r5, #1
 8007f66:	1159      	asrs	r1, r3, #5
 8007f68:	f003 021f 	and.w	r2, r3, #31
 8007f6c:	f85a 1021 	ldr.w	r1, [sl, r1, lsl #2]
 8007f70:	f04f 0901 	mov.w	r9, #1
 8007f74:	fa09 f202 	lsl.w	r2, r9, r2
 8007f78:	420a      	tst	r2, r1
 8007f7a:	d003      	beq.n	8007f84 <__gethex+0x1ac>
 8007f7c:	454b      	cmp	r3, r9
 8007f7e:	dc36      	bgt.n	8007fee <__gethex+0x216>
 8007f80:	f04f 0902 	mov.w	r9, #2
 8007f84:	4629      	mov	r1, r5
 8007f86:	4620      	mov	r0, r4
 8007f88:	f7ff febe 	bl	8007d08 <rshift>
 8007f8c:	442f      	add	r7, r5
 8007f8e:	f8d8 3008 	ldr.w	r3, [r8, #8]
 8007f92:	42bb      	cmp	r3, r7
 8007f94:	da42      	bge.n	800801c <__gethex+0x244>
 8007f96:	9801      	ldr	r0, [sp, #4]
 8007f98:	4621      	mov	r1, r4
 8007f9a:	f000 fb99 	bl	80086d0 <_Bfree>
 8007f9e:	9a0e      	ldr	r2, [sp, #56]	@ 0x38
 8007fa0:	2300      	movs	r3, #0
 8007fa2:	6013      	str	r3, [r2, #0]
 8007fa4:	25a3      	movs	r5, #163	@ 0xa3
 8007fa6:	e793      	b.n	8007ed0 <__gethex+0xf8>
 8007fa8:	f816 2d01 	ldrb.w	r2, [r6, #-1]!
 8007fac:	2a2e      	cmp	r2, #46	@ 0x2e
 8007fae:	d012      	beq.n	8007fd6 <__gethex+0x1fe>
 8007fb0:	2b20      	cmp	r3, #32
 8007fb2:	d104      	bne.n	8007fbe <__gethex+0x1e6>
 8007fb4:	f845 bb04 	str.w	fp, [r5], #4
 8007fb8:	f04f 0b00 	mov.w	fp, #0
 8007fbc:	465b      	mov	r3, fp
 8007fbe:	7830      	ldrb	r0, [r6, #0]
 8007fc0:	9303      	str	r3, [sp, #12]
 8007fc2:	f7ff fef3 	bl	8007dac <__hexdig_fun>
 8007fc6:	9b03      	ldr	r3, [sp, #12]
 8007fc8:	f000 000f 	and.w	r0, r0, #15
 8007fcc:	4098      	lsls	r0, r3
 8007fce:	ea4b 0b00 	orr.w	fp, fp, r0
 8007fd2:	3304      	adds	r3, #4
 8007fd4:	e7ae      	b.n	8007f34 <__gethex+0x15c>
 8007fd6:	45b1      	cmp	r9, r6
 8007fd8:	d8ea      	bhi.n	8007fb0 <__gethex+0x1d8>
 8007fda:	492b      	ldr	r1, [pc, #172]	@ (8008088 <__gethex+0x2b0>)
 8007fdc:	9303      	str	r3, [sp, #12]
 8007fde:	2201      	movs	r2, #1
 8007fe0:	4630      	mov	r0, r6
 8007fe2:	f7ff fe28 	bl	8007c36 <strncmp>
 8007fe6:	9b03      	ldr	r3, [sp, #12]
 8007fe8:	2800      	cmp	r0, #0
 8007fea:	d1e1      	bne.n	8007fb0 <__gethex+0x1d8>
 8007fec:	e7a2      	b.n	8007f34 <__gethex+0x15c>
 8007fee:	1ea9      	subs	r1, r5, #2
 8007ff0:	4620      	mov	r0, r4
 8007ff2:	f000 ffc6 	bl	8008f82 <__any_on>
 8007ff6:	2800      	cmp	r0, #0
 8007ff8:	d0c2      	beq.n	8007f80 <__gethex+0x1a8>
 8007ffa:	f04f 0903 	mov.w	r9, #3
 8007ffe:	e7c1      	b.n	8007f84 <__gethex+0x1ac>
 8008000:	da09      	bge.n	8008016 <__gethex+0x23e>
 8008002:	1b75      	subs	r5, r6, r5
 8008004:	4621      	mov	r1, r4
 8008006:	9801      	ldr	r0, [sp, #4]
 8008008:	462a      	mov	r2, r5
 800800a:	f000 fd7b 	bl	8008b04 <__lshift>
 800800e:	1b7f      	subs	r7, r7, r5
 8008010:	4604      	mov	r4, r0
 8008012:	f100 0a14 	add.w	sl, r0, #20
 8008016:	f04f 0900 	mov.w	r9, #0
 800801a:	e7b8      	b.n	8007f8e <__gethex+0x1b6>
 800801c:	f8d8 5004 	ldr.w	r5, [r8, #4]
 8008020:	42bd      	cmp	r5, r7
 8008022:	dd6f      	ble.n	8008104 <__gethex+0x32c>
 8008024:	1bed      	subs	r5, r5, r7
 8008026:	42ae      	cmp	r6, r5
 8008028:	dc34      	bgt.n	8008094 <__gethex+0x2bc>
 800802a:	f8d8 300c 	ldr.w	r3, [r8, #12]
 800802e:	2b02      	cmp	r3, #2
 8008030:	d022      	beq.n	8008078 <__gethex+0x2a0>
 8008032:	2b03      	cmp	r3, #3
 8008034:	d024      	beq.n	8008080 <__gethex+0x2a8>
 8008036:	2b01      	cmp	r3, #1
 8008038:	d115      	bne.n	8008066 <__gethex+0x28e>
 800803a:	42ae      	cmp	r6, r5
 800803c:	d113      	bne.n	8008066 <__gethex+0x28e>
 800803e:	2e01      	cmp	r6, #1
 8008040:	d10b      	bne.n	800805a <__gethex+0x282>
 8008042:	9a02      	ldr	r2, [sp, #8]
 8008044:	f8d8 3004 	ldr.w	r3, [r8, #4]
 8008048:	6013      	str	r3, [r2, #0]
 800804a:	2301      	movs	r3, #1
 800804c:	6123      	str	r3, [r4, #16]
 800804e:	f8ca 3000 	str.w	r3, [sl]
 8008052:	9b0e      	ldr	r3, [sp, #56]	@ 0x38
 8008054:	2562      	movs	r5, #98	@ 0x62
 8008056:	601c      	str	r4, [r3, #0]
 8008058:	e73a      	b.n	8007ed0 <__gethex+0xf8>
 800805a:	1e71      	subs	r1, r6, #1
 800805c:	4620      	mov	r0, r4
 800805e:	f000 ff90 	bl	8008f82 <__any_on>
 8008062:	2800      	cmp	r0, #0
 8008064:	d1ed      	bne.n	8008042 <__gethex+0x26a>
 8008066:	9801      	ldr	r0, [sp, #4]
 8008068:	4621      	mov	r1, r4
 800806a:	f000 fb31 	bl	80086d0 <_Bfree>
 800806e:	9a0e      	ldr	r2, [sp, #56]	@ 0x38
 8008070:	2300      	movs	r3, #0
 8008072:	6013      	str	r3, [r2, #0]
 8008074:	2550      	movs	r5, #80	@ 0x50
 8008076:	e72b      	b.n	8007ed0 <__gethex+0xf8>
 8008078:	9b0f      	ldr	r3, [sp, #60]	@ 0x3c
 800807a:	2b00      	cmp	r3, #0
 800807c:	d1f3      	bne.n	8008066 <__gethex+0x28e>
 800807e:	e7e0      	b.n	8008042 <__gethex+0x26a>
 8008080:	9b0f      	ldr	r3, [sp, #60]	@ 0x3c
 8008082:	2b00      	cmp	r3, #0
 8008084:	d1dd      	bne.n	8008042 <__gethex+0x26a>
 8008086:	e7ee      	b.n	8008066 <__gethex+0x28e>
 8008088:	0800a3e8 	.word	0x0800a3e8
 800808c:	0800a3fc 	.word	0x0800a3fc
 8008090:	0800a40d 	.word	0x0800a40d
 8008094:	1e6f      	subs	r7, r5, #1
 8008096:	f1b9 0f00 	cmp.w	r9, #0
 800809a:	d130      	bne.n	80080fe <__gethex+0x326>
 800809c:	b127      	cbz	r7, 80080a8 <__gethex+0x2d0>
 800809e:	4639      	mov	r1, r7
 80080a0:	4620      	mov	r0, r4
 80080a2:	f000 ff6e 	bl	8008f82 <__any_on>
 80080a6:	4681      	mov	r9, r0
 80080a8:	117a      	asrs	r2, r7, #5
 80080aa:	2301      	movs	r3, #1
 80080ac:	f85a 2022 	ldr.w	r2, [sl, r2, lsl #2]
 80080b0:	f007 071f 	and.w	r7, r7, #31
 80080b4:	40bb      	lsls	r3, r7
 80080b6:	4213      	tst	r3, r2
 80080b8:	4629      	mov	r1, r5
 80080ba:	4620      	mov	r0, r4
 80080bc:	bf18      	it	ne
 80080be:	f049 0902 	orrne.w	r9, r9, #2
 80080c2:	f7ff fe21 	bl	8007d08 <rshift>
 80080c6:	f8d8 7004 	ldr.w	r7, [r8, #4]
 80080ca:	1b76      	subs	r6, r6, r5
 80080cc:	2502      	movs	r5, #2
 80080ce:	f1b9 0f00 	cmp.w	r9, #0
 80080d2:	d047      	beq.n	8008164 <__gethex+0x38c>
 80080d4:	f8d8 300c 	ldr.w	r3, [r8, #12]
 80080d8:	2b02      	cmp	r3, #2
 80080da:	d015      	beq.n	8008108 <__gethex+0x330>
 80080dc:	2b03      	cmp	r3, #3
 80080de:	d017      	beq.n	8008110 <__gethex+0x338>
 80080e0:	2b01      	cmp	r3, #1
 80080e2:	d109      	bne.n	80080f8 <__gethex+0x320>
 80080e4:	f019 0f02 	tst.w	r9, #2
 80080e8:	d006      	beq.n	80080f8 <__gethex+0x320>
 80080ea:	f8da 3000 	ldr.w	r3, [sl]
 80080ee:	ea49 0903 	orr.w	r9, r9, r3
 80080f2:	f019 0f01 	tst.w	r9, #1
 80080f6:	d10e      	bne.n	8008116 <__gethex+0x33e>
 80080f8:	f045 0510 	orr.w	r5, r5, #16
 80080fc:	e032      	b.n	8008164 <__gethex+0x38c>
 80080fe:	f04f 0901 	mov.w	r9, #1
 8008102:	e7d1      	b.n	80080a8 <__gethex+0x2d0>
 8008104:	2501      	movs	r5, #1
 8008106:	e7e2      	b.n	80080ce <__gethex+0x2f6>
 8008108:	9b0f      	ldr	r3, [sp, #60]	@ 0x3c
 800810a:	f1c3 0301 	rsb	r3, r3, #1
 800810e:	930f      	str	r3, [sp, #60]	@ 0x3c
 8008110:	9b0f      	ldr	r3, [sp, #60]	@ 0x3c
 8008112:	2b00      	cmp	r3, #0
 8008114:	d0f0      	beq.n	80080f8 <__gethex+0x320>
 8008116:	f8d4 b010 	ldr.w	fp, [r4, #16]
 800811a:	f104 0314 	add.w	r3, r4, #20
 800811e:	ea4f 0a8b 	mov.w	sl, fp, lsl #2
 8008122:	eb03 018b 	add.w	r1, r3, fp, lsl #2
 8008126:	f04f 0c00 	mov.w	ip, #0
 800812a:	4618      	mov	r0, r3
 800812c:	f853 2b04 	ldr.w	r2, [r3], #4
 8008130:	f1b2 3fff 	cmp.w	r2, #4294967295	@ 0xffffffff
 8008134:	d01b      	beq.n	800816e <__gethex+0x396>
 8008136:	3201      	adds	r2, #1
 8008138:	6002      	str	r2, [r0, #0]
 800813a:	2d02      	cmp	r5, #2
 800813c:	f104 0314 	add.w	r3, r4, #20
 8008140:	d13c      	bne.n	80081bc <__gethex+0x3e4>
 8008142:	f8d8 2000 	ldr.w	r2, [r8]
 8008146:	3a01      	subs	r2, #1
 8008148:	42b2      	cmp	r2, r6
 800814a:	d109      	bne.n	8008160 <__gethex+0x388>
 800814c:	1171      	asrs	r1, r6, #5
 800814e:	2201      	movs	r2, #1
 8008150:	f853 3021 	ldr.w	r3, [r3, r1, lsl #2]
 8008154:	f006 061f 	and.w	r6, r6, #31
 8008158:	fa02 f606 	lsl.w	r6, r2, r6
 800815c:	421e      	tst	r6, r3
 800815e:	d13a      	bne.n	80081d6 <__gethex+0x3fe>
 8008160:	f045 0520 	orr.w	r5, r5, #32
 8008164:	9b0e      	ldr	r3, [sp, #56]	@ 0x38
 8008166:	601c      	str	r4, [r3, #0]
 8008168:	9b02      	ldr	r3, [sp, #8]
 800816a:	601f      	str	r7, [r3, #0]
 800816c:	e6b0      	b.n	8007ed0 <__gethex+0xf8>
 800816e:	4299      	cmp	r1, r3
 8008170:	f843 cc04 	str.w	ip, [r3, #-4]
 8008174:	d8d9      	bhi.n	800812a <__gethex+0x352>
 8008176:	68a3      	ldr	r3, [r4, #8]
 8008178:	459b      	cmp	fp, r3
 800817a:	db17      	blt.n	80081ac <__gethex+0x3d4>
 800817c:	6861      	ldr	r1, [r4, #4]
 800817e:	9801      	ldr	r0, [sp, #4]
 8008180:	3101      	adds	r1, #1
 8008182:	f000 fa67 	bl	8008654 <_Balloc>
 8008186:	4681      	mov	r9, r0
 8008188:	b918      	cbnz	r0, 8008192 <__gethex+0x3ba>
 800818a:	4b1a      	ldr	r3, [pc, #104]	@ (80081f4 <__gethex+0x41c>)
 800818c:	4602      	mov	r2, r0
 800818e:	2184      	movs	r1, #132	@ 0x84
 8008190:	e6c5      	b.n	8007f1e <__gethex+0x146>
 8008192:	6922      	ldr	r2, [r4, #16]
 8008194:	3202      	adds	r2, #2
 8008196:	f104 010c 	add.w	r1, r4, #12
 800819a:	0092      	lsls	r2, r2, #2
 800819c:	300c      	adds	r0, #12
 800819e:	f7ff fd9c 	bl	8007cda <memcpy>
 80081a2:	4621      	mov	r1, r4
 80081a4:	9801      	ldr	r0, [sp, #4]
 80081a6:	f000 fa93 	bl	80086d0 <_Bfree>
 80081aa:	464c      	mov	r4, r9
 80081ac:	6923      	ldr	r3, [r4, #16]
 80081ae:	1c5a      	adds	r2, r3, #1
 80081b0:	eb04 0383 	add.w	r3, r4, r3, lsl #2
 80081b4:	6122      	str	r2, [r4, #16]
 80081b6:	2201      	movs	r2, #1
 80081b8:	615a      	str	r2, [r3, #20]
 80081ba:	e7be      	b.n	800813a <__gethex+0x362>
 80081bc:	6922      	ldr	r2, [r4, #16]
 80081be:	455a      	cmp	r2, fp
 80081c0:	dd0b      	ble.n	80081da <__gethex+0x402>
 80081c2:	2101      	movs	r1, #1
 80081c4:	4620      	mov	r0, r4
 80081c6:	f7ff fd9f 	bl	8007d08 <rshift>
 80081ca:	f8d8 3008 	ldr.w	r3, [r8, #8]
 80081ce:	3701      	adds	r7, #1
 80081d0:	42bb      	cmp	r3, r7
 80081d2:	f6ff aee0 	blt.w	8007f96 <__gethex+0x1be>
 80081d6:	2501      	movs	r5, #1
 80081d8:	e7c2      	b.n	8008160 <__gethex+0x388>
 80081da:	f016 061f 	ands.w	r6, r6, #31
 80081de:	d0fa      	beq.n	80081d6 <__gethex+0x3fe>
 80081e0:	4453      	add	r3, sl
 80081e2:	f1c6 0620 	rsb	r6, r6, #32
 80081e6:	f853 0c04 	ldr.w	r0, [r3, #-4]
 80081ea:	f000 fb23 	bl	8008834 <__hi0bits>
 80081ee:	42b0      	cmp	r0, r6
 80081f0:	dbe7      	blt.n	80081c2 <__gethex+0x3ea>
 80081f2:	e7f0      	b.n	80081d6 <__gethex+0x3fe>
 80081f4:	0800a3fc 	.word	0x0800a3fc

080081f8 <L_shift>:
 80081f8:	f1c2 0208 	rsb	r2, r2, #8
 80081fc:	0092      	lsls	r2, r2, #2
 80081fe:	b570      	push	{r4, r5, r6, lr}
 8008200:	f1c2 0620 	rsb	r6, r2, #32
 8008204:	6843      	ldr	r3, [r0, #4]
 8008206:	6804      	ldr	r4, [r0, #0]
 8008208:	fa03 f506 	lsl.w	r5, r3, r6
 800820c:	432c      	orrs	r4, r5
 800820e:	40d3      	lsrs	r3, r2
 8008210:	6004      	str	r4, [r0, #0]
 8008212:	f840 3f04 	str.w	r3, [r0, #4]!
 8008216:	4288      	cmp	r0, r1
 8008218:	d3f4      	bcc.n	8008204 <L_shift+0xc>
 800821a:	bd70      	pop	{r4, r5, r6, pc}

0800821c <__match>:
 800821c:	b530      	push	{r4, r5, lr}
 800821e:	6803      	ldr	r3, [r0, #0]
 8008220:	3301      	adds	r3, #1
 8008222:	f811 4b01 	ldrb.w	r4, [r1], #1
 8008226:	b914      	cbnz	r4, 800822e <__match+0x12>
 8008228:	6003      	str	r3, [r0, #0]
 800822a:	2001      	movs	r0, #1
 800822c:	bd30      	pop	{r4, r5, pc}
 800822e:	f813 2b01 	ldrb.w	r2, [r3], #1
 8008232:	f1a2 0541 	sub.w	r5, r2, #65	@ 0x41
 8008236:	2d19      	cmp	r5, #25
 8008238:	bf98      	it	ls
 800823a:	3220      	addls	r2, #32
 800823c:	42a2      	cmp	r2, r4
 800823e:	d0f0      	beq.n	8008222 <__match+0x6>
 8008240:	2000      	movs	r0, #0
 8008242:	e7f3      	b.n	800822c <__match+0x10>

08008244 <__hexnan>:
 8008244:	e92d 4ff0 	stmdb	sp!, {r4, r5, r6, r7, r8, r9, sl, fp, lr}
 8008248:	680b      	ldr	r3, [r1, #0]
 800824a:	6801      	ldr	r1, [r0, #0]
 800824c:	115e      	asrs	r6, r3, #5
 800824e:	eb02 0686 	add.w	r6, r2, r6, lsl #2
 8008252:	f013 031f 	ands.w	r3, r3, #31
 8008256:	b087      	sub	sp, #28
 8008258:	bf18      	it	ne
 800825a:	3604      	addne	r6, #4
 800825c:	2500      	movs	r5, #0
 800825e:	1f37      	subs	r7, r6, #4
 8008260:	4682      	mov	sl, r0
 8008262:	4690      	mov	r8, r2
 8008264:	9301      	str	r3, [sp, #4]
 8008266:	f846 5c04 	str.w	r5, [r6, #-4]
 800826a:	46b9      	mov	r9, r7
 800826c:	463c      	mov	r4, r7
 800826e:	9502      	str	r5, [sp, #8]
 8008270:	46ab      	mov	fp, r5
 8008272:	784a      	ldrb	r2, [r1, #1]
 8008274:	1c4b      	adds	r3, r1, #1
 8008276:	9303      	str	r3, [sp, #12]
 8008278:	b342      	cbz	r2, 80082cc <__hexnan+0x88>
 800827a:	4610      	mov	r0, r2
 800827c:	9105      	str	r1, [sp, #20]
 800827e:	9204      	str	r2, [sp, #16]
 8008280:	f7ff fd94 	bl	8007dac <__hexdig_fun>
 8008284:	2800      	cmp	r0, #0
 8008286:	d153      	bne.n	8008330 <__hexnan+0xec>
 8008288:	9a04      	ldr	r2, [sp, #16]
 800828a:	9905      	ldr	r1, [sp, #20]
 800828c:	2a20      	cmp	r2, #32
 800828e:	d818      	bhi.n	80082c2 <__hexnan+0x7e>
 8008290:	9b02      	ldr	r3, [sp, #8]
 8008292:	459b      	cmp	fp, r3
 8008294:	dd13      	ble.n	80082be <__hexnan+0x7a>
 8008296:	454c      	cmp	r4, r9
 8008298:	d206      	bcs.n	80082a8 <__hexnan+0x64>
 800829a:	2d07      	cmp	r5, #7
 800829c:	dc04      	bgt.n	80082a8 <__hexnan+0x64>
 800829e:	462a      	mov	r2, r5
 80082a0:	4649      	mov	r1, r9
 80082a2:	4620      	mov	r0, r4
 80082a4:	f7ff ffa8 	bl	80081f8 <L_shift>
 80082a8:	4544      	cmp	r4, r8
 80082aa:	d954      	bls.n	8008356 <__hexnan+0x112>
 80082ac:	2300      	movs	r3, #0
 80082ae:	f1a4 0904 	sub.w	r9, r4, #4
 80082b2:	f844 3c04 	str.w	r3, [r4, #-4]
 80082b6:	f8cd b008 	str.w	fp, [sp, #8]
 80082ba:	464c      	mov	r4, r9
 80082bc:	461d      	mov	r5, r3
 80082be:	9903      	ldr	r1, [sp, #12]
 80082c0:	e7d7      	b.n	8008272 <__hexnan+0x2e>
 80082c2:	2a29      	cmp	r2, #41	@ 0x29
 80082c4:	d159      	bne.n	800837a <__hexnan+0x136>
 80082c6:	3102      	adds	r1, #2
 80082c8:	f8ca 1000 	str.w	r1, [sl]
 80082cc:	f1bb 0f00 	cmp.w	fp, #0
 80082d0:	d053      	beq.n	800837a <__hexnan+0x136>
 80082d2:	454c      	cmp	r4, r9
 80082d4:	d206      	bcs.n	80082e4 <__hexnan+0xa0>
 80082d6:	2d07      	cmp	r5, #7
 80082d8:	dc04      	bgt.n	80082e4 <__hexnan+0xa0>
 80082da:	462a      	mov	r2, r5
 80082dc:	4649      	mov	r1, r9
 80082de:	4620      	mov	r0, r4
 80082e0:	f7ff ff8a 	bl	80081f8 <L_shift>
 80082e4:	4544      	cmp	r4, r8
 80082e6:	d938      	bls.n	800835a <__hexnan+0x116>
 80082e8:	f1a8 0204 	sub.w	r2, r8, #4
 80082ec:	4623      	mov	r3, r4
 80082ee:	f853 1b04 	ldr.w	r1, [r3], #4
 80082f2:	f842 1f04 	str.w	r1, [r2, #4]!
 80082f6:	429f      	cmp	r7, r3
 80082f8:	d2f9      	bcs.n	80082ee <__hexnan+0xaa>
 80082fa:	1b3b      	subs	r3, r7, r4
 80082fc:	f023 0303 	bic.w	r3, r3, #3
 8008300:	3401      	adds	r4, #1
 8008302:	3e03      	subs	r6, #3
 8008304:	42b4      	cmp	r4, r6
 8008306:	bf88      	it	hi
 8008308:	2300      	movhi	r3, #0
 800830a:	f108 0204 	add.w	r2, r8, #4
 800830e:	4413      	add	r3, r2
 8008310:	2100      	movs	r1, #0
 8008312:	461a      	mov	r2, r3
 8008314:	3304      	adds	r3, #4
 8008316:	429f      	cmp	r7, r3
 8008318:	6011      	str	r1, [r2, #0]
 800831a:	d2fa      	bcs.n	8008312 <__hexnan+0xce>
 800831c:	683b      	ldr	r3, [r7, #0]
 800831e:	b91b      	cbnz	r3, 8008328 <__hexnan+0xe4>
 8008320:	4547      	cmp	r7, r8
 8008322:	d128      	bne.n	8008376 <__hexnan+0x132>
 8008324:	2301      	movs	r3, #1
 8008326:	603b      	str	r3, [r7, #0]
 8008328:	2005      	movs	r0, #5
 800832a:	b007      	add	sp, #28
 800832c:	e8bd 8ff0 	ldmia.w	sp!, {r4, r5, r6, r7, r8, r9, sl, fp, pc}
 8008330:	3501      	adds	r5, #1
 8008332:	2d08      	cmp	r5, #8
 8008334:	f10b 0b01 	add.w	fp, fp, #1
 8008338:	dd06      	ble.n	8008348 <__hexnan+0x104>
 800833a:	4544      	cmp	r4, r8
 800833c:	d9bf      	bls.n	80082be <__hexnan+0x7a>
 800833e:	2300      	movs	r3, #0
 8008340:	f844 3c04 	str.w	r3, [r4, #-4]
 8008344:	2501      	movs	r5, #1
 8008346:	3c04      	subs	r4, #4
 8008348:	6822      	ldr	r2, [r4, #0]
 800834a:	f000 000f 	and.w	r0, r0, #15
 800834e:	ea40 1002 	orr.w	r0, r0, r2, lsl #4
 8008352:	6020      	str	r0, [r4, #0]
 8008354:	e7b3      	b.n	80082be <__hexnan+0x7a>
 8008356:	2508      	movs	r5, #8
 8008358:	e7b1      	b.n	80082be <__hexnan+0x7a>
 800835a:	9b01      	ldr	r3, [sp, #4]
 800835c:	2b00      	cmp	r3, #0
 800835e:	d0dd      	beq.n	800831c <__hexnan+0xd8>
 8008360:	f1c3 0320 	rsb	r3, r3, #32
 8008364:	f04f 32ff 	mov.w	r2, #4294967295	@ 0xffffffff
 8008368:	40da      	lsrs	r2, r3
 800836a:	f856 3c04 	ldr.w	r3, [r6, #-4]
 800836e:	4013      	ands	r3, r2
 8008370:	f846 3c04 	str.w	r3, [r6, #-4]
 8008374:	e7d2      	b.n	800831c <__hexnan+0xd8>
 8008376:	3f04      	subs	r7, #4
 8008378:	e7d0      	b.n	800831c <__hexnan+0xd8>
 800837a:	2004      	movs	r0, #4
 800837c:	e7d5      	b.n	800832a <__hexnan+0xe6>
	...

08008380 <sbrk_aligned>:
 8008380:	b570      	push	{r4, r5, r6, lr}
 8008382:	4e0f      	ldr	r6, [pc, #60]	@ (80083c0 <sbrk_aligned+0x40>)
 8008384:	460c      	mov	r4, r1
 8008386:	6831      	ldr	r1, [r6, #0]
 8008388:	4605      	mov	r5, r0
 800838a:	b911      	cbnz	r1, 8008392 <sbrk_aligned+0x12>
 800838c:	f000 fe90 	bl	80090b0 <_sbrk_r>
 8008390:	6030      	str	r0, [r6, #0]
 8008392:	4621      	mov	r1, r4
 8008394:	4628      	mov	r0, r5
 8008396:	f000 fe8b 	bl	80090b0 <_sbrk_r>
 800839a:	1c43      	adds	r3, r0, #1
 800839c:	d103      	bne.n	80083a6 <sbrk_aligned+0x26>
 800839e:	f04f 34ff 	mov.w	r4, #4294967295	@ 0xffffffff
 80083a2:	4620      	mov	r0, r4
 80083a4:	bd70      	pop	{r4, r5, r6, pc}
 80083a6:	1cc4      	adds	r4, r0, #3
 80083a8:	f024 0403 	bic.w	r4, r4, #3
 80083ac:	42a0      	cmp	r0, r4
 80083ae:	d0f8      	beq.n	80083a2 <sbrk_aligned+0x22>
 80083b0:	1a21      	subs	r1, r4, r0
 80083b2:	4628      	mov	r0, r5
 80083b4:	f000 fe7c 	bl	80090b0 <_sbrk_r>
 80083b8:	3001      	adds	r0, #1
 80083ba:	d1f2      	bne.n	80083a2 <sbrk_aligned+0x22>
 80083bc:	e7ef      	b.n	800839e <sbrk_aligned+0x1e>
 80083be:	bf00      	nop
 80083c0:	200008bc 	.word	0x200008bc

080083c4 <_malloc_r>:
 80083c4:	e92d 43f8 	stmdb	sp!, {r3, r4, r5, r6, r7, r8, r9, lr}
 80083c8:	1ccd      	adds	r5, r1, #3
 80083ca:	f025 0503 	bic.w	r5, r5, #3
 80083ce:	3508      	adds	r5, #8
 80083d0:	2d0c      	cmp	r5, #12
 80083d2:	bf38      	it	cc
 80083d4:	250c      	movcc	r5, #12
 80083d6:	2d00      	cmp	r5, #0
 80083d8:	4606      	mov	r6, r0
 80083da:	db01      	blt.n	80083e0 <_malloc_r+0x1c>
 80083dc:	42a9      	cmp	r1, r5
 80083de:	d904      	bls.n	80083ea <_malloc_r+0x26>
 80083e0:	230c      	movs	r3, #12
 80083e2:	6033      	str	r3, [r6, #0]
 80083e4:	2000      	movs	r0, #0
 80083e6:	e8bd 83f8 	ldmia.w	sp!, {r3, r4, r5, r6, r7, r8, r9, pc}
 80083ea:	f8df 80d4 	ldr.w	r8, [pc, #212]	@ 80084c0 <_malloc_r+0xfc>
 80083ee:	f000 f925 	bl	800863c <__malloc_lock>
 80083f2:	f8d8 3000 	ldr.w	r3, [r8]
 80083f6:	461c      	mov	r4, r3
 80083f8:	bb44      	cbnz	r4, 800844c <_malloc_r+0x88>
 80083fa:	4629      	mov	r1, r5
 80083fc:	4630      	mov	r0, r6
 80083fe:	f7ff ffbf 	bl	8008380 <sbrk_aligned>
 8008402:	1c43      	adds	r3, r0, #1
 8008404:	4604      	mov	r4, r0
 8008406:	d158      	bne.n	80084ba <_malloc_r+0xf6>
 8008408:	f8d8 4000 	ldr.w	r4, [r8]
 800840c:	4627      	mov	r7, r4
 800840e:	2f00      	cmp	r7, #0
 8008410:	d143      	bne.n	800849a <_malloc_r+0xd6>
 8008412:	2c00      	cmp	r4, #0
 8008414:	d04b      	beq.n	80084ae <_malloc_r+0xea>
 8008416:	6823      	ldr	r3, [r4, #0]
 8008418:	4639      	mov	r1, r7
 800841a:	4630      	mov	r0, r6
 800841c:	eb04 0903 	add.w	r9, r4, r3
 8008420:	f000 fe46 	bl	80090b0 <_sbrk_r>
 8008424:	4581      	cmp	r9, r0
 8008426:	d142      	bne.n	80084ae <_malloc_r+0xea>
 8008428:	6821      	ldr	r1, [r4, #0]
 800842a:	1a6d      	subs	r5, r5, r1
 800842c:	4629      	mov	r1, r5
 800842e:	4630      	mov	r0, r6
 8008430:	f7ff ffa6 	bl	8008380 <sbrk_aligned>
 8008434:	3001      	adds	r0, #1
 8008436:	d03a      	beq.n	80084ae <_malloc_r+0xea>
 8008438:	6823      	ldr	r3, [r4, #0]
 800843a:	442b      	add	r3, r5
 800843c:	6023      	str	r3, [r4, #0]
 800843e:	f8d8 3000 	ldr.w	r3, [r8]
 8008442:	685a      	ldr	r2, [r3, #4]
 8008444:	bb62      	cbnz	r2, 80084a0 <_malloc_r+0xdc>
 8008446:	f8c8 7000 	str.w	r7, [r8]
 800844a:	e00f      	b.n	800846c <_malloc_r+0xa8>
 800844c:	6822      	ldr	r2, [r4, #0]
 800844e:	1b52      	subs	r2, r2, r5
 8008450:	d420      	bmi.n	8008494 <_malloc_r+0xd0>
 8008452:	2a0b      	cmp	r2, #11
 8008454:	d917      	bls.n	8008486 <_malloc_r+0xc2>
 8008456:	1961      	adds	r1, r4, r5
 8008458:	42a3      	cmp	r3, r4
 800845a:	6025      	str	r5, [r4, #0]
 800845c:	bf18      	it	ne
 800845e:	6059      	strne	r1, [r3, #4]
 8008460:	6863      	ldr	r3, [r4, #4]
 8008462:	bf08      	it	eq
 8008464:	f8c8 1000 	streq.w	r1, [r8]
 8008468:	5162      	str	r2, [r4, r5]
 800846a:	604b      	str	r3, [r1, #4]
 800846c:	4630      	mov	r0, r6
 800846e:	f000 f8eb 	bl	8008648 <__malloc_unlock>
 8008472:	f104 000b 	add.w	r0, r4, #11
 8008476:	1d23      	adds	r3, r4, #4
 8008478:	f020 0007 	bic.w	r0, r0, #7
 800847c:	1ac2      	subs	r2, r0, r3
 800847e:	bf1c      	itt	ne
 8008480:	1a1b      	subne	r3, r3, r0
 8008482:	50a3      	strne	r3, [r4, r2]
 8008484:	e7af      	b.n	80083e6 <_malloc_r+0x22>
 8008486:	6862      	ldr	r2, [r4, #4]
 8008488:	42a3      	cmp	r3, r4
 800848a:	bf0c      	ite	eq
 800848c:	f8c8 2000 	streq.w	r2, [r8]
 8008490:	605a      	strne	r2, [r3, #4]
 8008492:	e7eb      	b.n	800846c <_malloc_r+0xa8>
 8008494:	4623      	mov	r3, r4
 8008496:	6864      	ldr	r4, [r4, #4]
 8008498:	e7ae      	b.n	80083f8 <_malloc_r+0x34>
 800849a:	463c      	mov	r4, r7
 800849c:	687f      	ldr	r7, [r7, #4]
 800849e:	e7b6      	b.n	800840e <_malloc_r+0x4a>
 80084a0:	461a      	mov	r2, r3
 80084a2:	685b      	ldr	r3, [r3, #4]
 80084a4:	42a3      	cmp	r3, r4
 80084a6:	d1fb      	bne.n	80084a0 <_malloc_r+0xdc>
 80084a8:	2300      	movs	r3, #0
 80084aa:	6053      	str	r3, [r2, #4]
 80084ac:	e7de      	b.n	800846c <_malloc_r+0xa8>
 80084ae:	230c      	movs	r3, #12
 80084b0:	6033      	str	r3, [r6, #0]
 80084b2:	4630      	mov	r0, r6
 80084b4:	f000 f8c8 	bl	8008648 <__malloc_unlock>
 80084b8:	e794      	b.n	80083e4 <_malloc_r+0x20>
 80084ba:	6005      	str	r5, [r0, #0]
 80084bc:	e7d6      	b.n	800846c <_malloc_r+0xa8>
 80084be:	bf00      	nop
 80084c0:	200008c0 	.word	0x200008c0

080084c4 <__ascii_mbtowc>:
 80084c4:	b082      	sub	sp, #8
 80084c6:	b901      	cbnz	r1, 80084ca <__ascii_mbtowc+0x6>
 80084c8:	a901      	add	r1, sp, #4
 80084ca:	b142      	cbz	r2, 80084de <__ascii_mbtowc+0x1a>
 80084cc:	b14b      	cbz	r3, 80084e2 <__ascii_mbtowc+0x1e>
 80084ce:	7813      	ldrb	r3, [r2, #0]
 80084d0:	600b      	str	r3, [r1, #0]
 80084d2:	7812      	ldrb	r2, [r2, #0]
 80084d4:	1e10      	subs	r0, r2, #0
 80084d6:	bf18      	it	ne
 80084d8:	2001      	movne	r0, #1
 80084da:	b002      	add	sp, #8
 80084dc:	4770      	bx	lr
 80084de:	4610      	mov	r0, r2
 80084e0:	e7fb      	b.n	80084da <__ascii_mbtowc+0x16>
 80084e2:	f06f 0001 	mvn.w	r0, #1
 80084e6:	e7f8      	b.n	80084da <__ascii_mbtowc+0x16>

080084e8 <__sflush_r>:
 80084e8:	f9b1 200c 	ldrsh.w	r2, [r1, #12]
 80084ec:	e92d 41f0 	stmdb	sp!, {r4, r5, r6, r7, r8, lr}
 80084f0:	0716      	lsls	r6, r2, #28
 80084f2:	4605      	mov	r5, r0
 80084f4:	460c      	mov	r4, r1
 80084f6:	d451      	bmi.n	800859c <__sflush_r+0xb4>
 80084f8:	684b      	ldr	r3, [r1, #4]
 80084fa:	2b00      	cmp	r3, #0
 80084fc:	dc02      	bgt.n	8008504 <__sflush_r+0x1c>
 80084fe:	6c0b      	ldr	r3, [r1, #64]	@ 0x40
 8008500:	2b00      	cmp	r3, #0
 8008502:	dd49      	ble.n	8008598 <__sflush_r+0xb0>
 8008504:	6ae6      	ldr	r6, [r4, #44]	@ 0x2c
 8008506:	2e00      	cmp	r6, #0
 8008508:	d046      	beq.n	8008598 <__sflush_r+0xb0>
 800850a:	2300      	movs	r3, #0
 800850c:	f412 5280 	ands.w	r2, r2, #4096	@ 0x1000
 8008510:	682f      	ldr	r7, [r5, #0]
 8008512:	602b      	str	r3, [r5, #0]
 8008514:	d031      	beq.n	800857a <__sflush_r+0x92>
 8008516:	6d62      	ldr	r2, [r4, #84]	@ 0x54
 8008518:	89a3      	ldrh	r3, [r4, #12]
 800851a:	0759      	lsls	r1, r3, #29
 800851c:	d505      	bpl.n	800852a <__sflush_r+0x42>
 800851e:	6863      	ldr	r3, [r4, #4]
 8008520:	1ad2      	subs	r2, r2, r3
 8008522:	6b63      	ldr	r3, [r4, #52]	@ 0x34
 8008524:	b10b      	cbz	r3, 800852a <__sflush_r+0x42>
 8008526:	6c23      	ldr	r3, [r4, #64]	@ 0x40
 8008528:	1ad2      	subs	r2, r2, r3
 800852a:	2300      	movs	r3, #0
 800852c:	6ae6      	ldr	r6, [r4, #44]	@ 0x2c
 800852e:	6a21      	ldr	r1, [r4, #32]
 8008530:	4628      	mov	r0, r5
 8008532:	47b0      	blx	r6
 8008534:	1c42      	adds	r2, r0, #1
 8008536:	f9b4 300c 	ldrsh.w	r3, [r4, #12]
 800853a:	d106      	bne.n	800854a <__sflush_r+0x62>
 800853c:	6829      	ldr	r1, [r5, #0]
 800853e:	291d      	cmp	r1, #29
 8008540:	d846      	bhi.n	80085d0 <__sflush_r+0xe8>
 8008542:	4a29      	ldr	r2, [pc, #164]	@ (80085e8 <__sflush_r+0x100>)
 8008544:	40ca      	lsrs	r2, r1
 8008546:	07d6      	lsls	r6, r2, #31
 8008548:	d542      	bpl.n	80085d0 <__sflush_r+0xe8>
 800854a:	2200      	movs	r2, #0
 800854c:	6062      	str	r2, [r4, #4]
 800854e:	04d9      	lsls	r1, r3, #19
 8008550:	6922      	ldr	r2, [r4, #16]
 8008552:	6022      	str	r2, [r4, #0]
 8008554:	d504      	bpl.n	8008560 <__sflush_r+0x78>
 8008556:	1c42      	adds	r2, r0, #1
 8008558:	d101      	bne.n	800855e <__sflush_r+0x76>
 800855a:	682b      	ldr	r3, [r5, #0]
 800855c:	b903      	cbnz	r3, 8008560 <__sflush_r+0x78>
 800855e:	6560      	str	r0, [r4, #84]	@ 0x54
 8008560:	6b61      	ldr	r1, [r4, #52]	@ 0x34
 8008562:	602f      	str	r7, [r5, #0]
 8008564:	b1c1      	cbz	r1, 8008598 <__sflush_r+0xb0>
 8008566:	f104 0344 	add.w	r3, r4, #68	@ 0x44
 800856a:	4299      	cmp	r1, r3
 800856c:	d002      	beq.n	8008574 <__sflush_r+0x8c>
 800856e:	4628      	mov	r0, r5
 8008570:	f000 fe02 	bl	8009178 <_free_r>
 8008574:	2300      	movs	r3, #0
 8008576:	6363      	str	r3, [r4, #52]	@ 0x34
 8008578:	e00e      	b.n	8008598 <__sflush_r+0xb0>
 800857a:	6a21      	ldr	r1, [r4, #32]
 800857c:	2301      	movs	r3, #1
 800857e:	4628      	mov	r0, r5
 8008580:	47b0      	blx	r6
 8008582:	4602      	mov	r2, r0
 8008584:	1c50      	adds	r0, r2, #1
 8008586:	d1c7      	bne.n	8008518 <__sflush_r+0x30>
 8008588:	682b      	ldr	r3, [r5, #0]
 800858a:	2b00      	cmp	r3, #0
 800858c:	d0c4      	beq.n	8008518 <__sflush_r+0x30>
 800858e:	2b1d      	cmp	r3, #29
 8008590:	d001      	beq.n	8008596 <__sflush_r+0xae>
 8008592:	2b16      	cmp	r3, #22
 8008594:	d11a      	bne.n	80085cc <__sflush_r+0xe4>
 8008596:	602f      	str	r7, [r5, #0]
 8008598:	2000      	movs	r0, #0
 800859a:	e01e      	b.n	80085da <__sflush_r+0xf2>
 800859c:	690f      	ldr	r7, [r1, #16]
 800859e:	2f00      	cmp	r7, #0
 80085a0:	d0fa      	beq.n	8008598 <__sflush_r+0xb0>
 80085a2:	0793      	lsls	r3, r2, #30
 80085a4:	680e      	ldr	r6, [r1, #0]
 80085a6:	bf08      	it	eq
 80085a8:	694b      	ldreq	r3, [r1, #20]
 80085aa:	600f      	str	r7, [r1, #0]
 80085ac:	bf18      	it	ne
 80085ae:	2300      	movne	r3, #0
 80085b0:	eba6 0807 	sub.w	r8, r6, r7
 80085b4:	608b      	str	r3, [r1, #8]
 80085b6:	f1b8 0f00 	cmp.w	r8, #0
 80085ba:	dded      	ble.n	8008598 <__sflush_r+0xb0>
 80085bc:	6a21      	ldr	r1, [r4, #32]
 80085be:	6aa6      	ldr	r6, [r4, #40]	@ 0x28
 80085c0:	4643      	mov	r3, r8
 80085c2:	463a      	mov	r2, r7
 80085c4:	4628      	mov	r0, r5
 80085c6:	47b0      	blx	r6
 80085c8:	2800      	cmp	r0, #0
 80085ca:	dc08      	bgt.n	80085de <__sflush_r+0xf6>
 80085cc:	f9b4 300c 	ldrsh.w	r3, [r4, #12]
 80085d0:	f043 0340 	orr.w	r3, r3, #64	@ 0x40
 80085d4:	81a3      	strh	r3, [r4, #12]
 80085d6:	f04f 30ff 	mov.w	r0, #4294967295	@ 0xffffffff
 80085da:	e8bd 81f0 	ldmia.w	sp!, {r4, r5, r6, r7, r8, pc}
 80085de:	4407      	add	r7, r0
 80085e0:	eba8 0800 	sub.w	r8, r8, r0
 80085e4:	e7e7      	b.n	80085b6 <__sflush_r+0xce>
 80085e6:	bf00      	nop
 80085e8:	20400001 	.word	0x20400001

080085ec <_fflush_r>:
 80085ec:	b538      	push	{r3, r4, r5, lr}
 80085ee:	690b      	ldr	r3, [r1, #16]
 80085f0:	4605      	mov	r5, r0
 80085f2:	460c      	mov	r4, r1
 80085f4:	b913      	cbnz	r3, 80085fc <_fflush_r+0x10>
 80085f6:	2500      	movs	r5, #0
 80085f8:	4628      	mov	r0, r5
 80085fa:	bd38      	pop	{r3, r4, r5, pc}
 80085fc:	b118      	cbz	r0, 8008606 <_fflush_r+0x1a>
 80085fe:	6a03      	ldr	r3, [r0, #32]
 8008600:	b90b      	cbnz	r3, 8008606 <_fflush_r+0x1a>
 8008602:	f7fe fc43 	bl	8006e8c <__sinit>
 8008606:	f9b4 300c 	ldrsh.w	r3, [r4, #12]
 800860a:	2b00      	cmp	r3, #0
 800860c:	d0f3      	beq.n	80085f6 <_fflush_r+0xa>
 800860e:	6e62      	ldr	r2, [r4, #100]	@ 0x64
 8008610:	07d0      	lsls	r0, r2, #31
 8008612:	d404      	bmi.n	800861e <_fflush_r+0x32>
 8008614:	0599      	lsls	r1, r3, #22
 8008616:	d402      	bmi.n	800861e <_fflush_r+0x32>
 8008618:	6da0      	ldr	r0, [r4, #88]	@ 0x58
 800861a:	f7ff fb5c 	bl	8007cd6 <__retarget_lock_acquire_recursive>
 800861e:	4628      	mov	r0, r5
 8008620:	4621      	mov	r1, r4
 8008622:	f7ff ff61 	bl	80084e8 <__sflush_r>
 8008626:	6e63      	ldr	r3, [r4, #100]	@ 0x64
 8008628:	07da      	lsls	r2, r3, #31
 800862a:	4605      	mov	r5, r0
 800862c:	d4e4      	bmi.n	80085f8 <_fflush_r+0xc>
 800862e:	89a3      	ldrh	r3, [r4, #12]
 8008630:	059b      	lsls	r3, r3, #22
 8008632:	d4e1      	bmi.n	80085f8 <_fflush_r+0xc>
 8008634:	6da0      	ldr	r0, [r4, #88]	@ 0x58
 8008636:	f7ff fb4f 	bl	8007cd8 <__retarget_lock_release_recursive>
 800863a:	e7dd      	b.n	80085f8 <_fflush_r+0xc>

0800863c <__malloc_lock>:
 800863c:	4801      	ldr	r0, [pc, #4]	@ (8008644 <__malloc_lock+0x8>)
 800863e:	f7ff bb4a 	b.w	8007cd6 <__retarget_lock_acquire_recursive>
 8008642:	bf00      	nop
 8008644:	200008b8 	.word	0x200008b8

08008648 <__malloc_unlock>:
 8008648:	4801      	ldr	r0, [pc, #4]	@ (8008650 <__malloc_unlock+0x8>)
 800864a:	f7ff bb45 	b.w	8007cd8 <__retarget_lock_release_recursive>
 800864e:	bf00      	nop
 8008650:	200008b8 	.word	0x200008b8

08008654 <_Balloc>:
 8008654:	b570      	push	{r4, r5, r6, lr}
 8008656:	69c4      	ldr	r4, [r0, #28]
 8008658:	4605      	mov	r5, r0
 800865a:	460e      	mov	r6, r1
 800865c:	b984      	cbnz	r4, 8008680 <_Balloc+0x2c>
 800865e:	2010      	movs	r0, #16
 8008660:	f000 fdd4 	bl	800920c <malloc>
 8008664:	4604      	mov	r4, r0
 8008666:	61e8      	str	r0, [r5, #28]
 8008668:	b928      	cbnz	r0, 8008676 <_Balloc+0x22>
 800866a:	4602      	mov	r2, r0
 800866c:	4b16      	ldr	r3, [pc, #88]	@ (80086c8 <_Balloc+0x74>)
 800866e:	4817      	ldr	r0, [pc, #92]	@ (80086cc <_Balloc+0x78>)
 8008670:	216b      	movs	r1, #107	@ 0x6b
 8008672:	f000 fd4f 	bl	8009114 <__assert_func>
 8008676:	2300      	movs	r3, #0
 8008678:	e9c0 3301 	strd	r3, r3, [r0, #4]
 800867c:	6003      	str	r3, [r0, #0]
 800867e:	60c3      	str	r3, [r0, #12]
 8008680:	68e3      	ldr	r3, [r4, #12]
 8008682:	b953      	cbnz	r3, 800869a <_Balloc+0x46>
 8008684:	2221      	movs	r2, #33	@ 0x21
 8008686:	2104      	movs	r1, #4
 8008688:	4628      	mov	r0, r5
 800868a:	f000 fd61 	bl	8009150 <_calloc_r>
 800868e:	69eb      	ldr	r3, [r5, #28]
 8008690:	60e0      	str	r0, [r4, #12]
 8008692:	68db      	ldr	r3, [r3, #12]
 8008694:	b90b      	cbnz	r3, 800869a <_Balloc+0x46>
 8008696:	2000      	movs	r0, #0
 8008698:	bd70      	pop	{r4, r5, r6, pc}
 800869a:	f853 0026 	ldr.w	r0, [r3, r6, lsl #2]
 800869e:	b130      	cbz	r0, 80086ae <_Balloc+0x5a>
 80086a0:	6802      	ldr	r2, [r0, #0]
 80086a2:	f843 2026 	str.w	r2, [r3, r6, lsl #2]
 80086a6:	2300      	movs	r3, #0
 80086a8:	e9c0 3303 	strd	r3, r3, [r0, #12]
 80086ac:	e7f4      	b.n	8008698 <_Balloc+0x44>
 80086ae:	2101      	movs	r1, #1
 80086b0:	fa01 f406 	lsl.w	r4, r1, r6
 80086b4:	1d62      	adds	r2, r4, #5
 80086b6:	0092      	lsls	r2, r2, #2
 80086b8:	4628      	mov	r0, r5
 80086ba:	f000 fd49 	bl	8009150 <_calloc_r>
 80086be:	2800      	cmp	r0, #0
 80086c0:	d0e9      	beq.n	8008696 <_Balloc+0x42>
 80086c2:	e9c0 6401 	strd	r6, r4, [r0, #4]
 80086c6:	e7ee      	b.n	80086a6 <_Balloc+0x52>
 80086c8:	0800a46d 	.word	0x0800a46d
 80086cc:	0800a484 	.word	0x0800a484

080086d0 <_Bfree>:
 80086d0:	b570      	push	{r4, r5, r6, lr}
 80086d2:	69c6      	ldr	r6, [r0, #28]
 80086d4:	4605      	mov	r5, r0
 80086d6:	460c      	mov	r4, r1
 80086d8:	b976      	cbnz	r6, 80086f8 <_Bfree+0x28>
 80086da:	2010      	movs	r0, #16
 80086dc:	f000 fd96 	bl	800920c <malloc>
 80086e0:	4602      	mov	r2, r0
 80086e2:	61e8      	str	r0, [r5, #28]
 80086e4:	b920      	cbnz	r0, 80086f0 <_Bfree+0x20>
 80086e6:	4b09      	ldr	r3, [pc, #36]	@ (800870c <_Bfree+0x3c>)
 80086e8:	4809      	ldr	r0, [pc, #36]	@ (8008710 <_Bfree+0x40>)
 80086ea:	218f      	movs	r1, #143	@ 0x8f
 80086ec:	f000 fd12 	bl	8009114 <__assert_func>
 80086f0:	e9c0 6601 	strd	r6, r6, [r0, #4]
 80086f4:	6006      	str	r6, [r0, #0]
 80086f6:	60c6      	str	r6, [r0, #12]
 80086f8:	b13c      	cbz	r4, 800870a <_Bfree+0x3a>
 80086fa:	69eb      	ldr	r3, [r5, #28]
 80086fc:	6862      	ldr	r2, [r4, #4]
 80086fe:	68db      	ldr	r3, [r3, #12]
 8008700:	f853 1022 	ldr.w	r1, [r3, r2, lsl #2]
 8008704:	6021      	str	r1, [r4, #0]
 8008706:	f843 4022 	str.w	r4, [r3, r2, lsl #2]
 800870a:	bd70      	pop	{r4, r5, r6, pc}
 800870c:	0800a46d 	.word	0x0800a46d
 8008710:	0800a484 	.word	0x0800a484

08008714 <__multadd>:
 8008714:	e92d 41f0 	stmdb	sp!, {r4, r5, r6, r7, r8, lr}
 8008718:	690d      	ldr	r5, [r1, #16]
 800871a:	4607      	mov	r7, r0
 800871c:	460c      	mov	r4, r1
 800871e:	461e      	mov	r6, r3
 8008720:	f101 0c14 	add.w	ip, r1, #20
 8008724:	2000      	movs	r0, #0
 8008726:	f8dc 3000 	ldr.w	r3, [ip]
 800872a:	b299      	uxth	r1, r3
 800872c:	fb02 6101 	mla	r1, r2, r1, r6
 8008730:	0c1e      	lsrs	r6, r3, #16
 8008732:	0c0b      	lsrs	r3, r1, #16
 8008734:	fb02 3306 	mla	r3, r2, r6, r3
 8008738:	b289      	uxth	r1, r1
 800873a:	3001      	adds	r0, #1
 800873c:	eb01 4103 	add.w	r1, r1, r3, lsl #16
 8008740:	4285      	cmp	r5, r0
 8008742:	f84c 1b04 	str.w	r1, [ip], #4
 8008746:	ea4f 4613 	mov.w	r6, r3, lsr #16
 800874a:	dcec      	bgt.n	8008726 <__multadd+0x12>
 800874c:	b30e      	cbz	r6, 8008792 <__multadd+0x7e>
 800874e:	68a3      	ldr	r3, [r4, #8]
 8008750:	42ab      	cmp	r3, r5
 8008752:	dc19      	bgt.n	8008788 <__multadd+0x74>
 8008754:	6861      	ldr	r1, [r4, #4]
 8008756:	4638      	mov	r0, r7
 8008758:	3101      	adds	r1, #1
 800875a:	f7ff ff7b 	bl	8008654 <_Balloc>
 800875e:	4680      	mov	r8, r0
 8008760:	b928      	cbnz	r0, 800876e <__multadd+0x5a>
 8008762:	4602      	mov	r2, r0
 8008764:	4b0c      	ldr	r3, [pc, #48]	@ (8008798 <__multadd+0x84>)
 8008766:	480d      	ldr	r0, [pc, #52]	@ (800879c <__multadd+0x88>)
 8008768:	21ba      	movs	r1, #186	@ 0xba
 800876a:	f000 fcd3 	bl	8009114 <__assert_func>
 800876e:	6922      	ldr	r2, [r4, #16]
 8008770:	3202      	adds	r2, #2
 8008772:	f104 010c 	add.w	r1, r4, #12
 8008776:	0092      	lsls	r2, r2, #2
 8008778:	300c      	adds	r0, #12
 800877a:	f7ff faae 	bl	8007cda <memcpy>
 800877e:	4621      	mov	r1, r4
 8008780:	4638      	mov	r0, r7
 8008782:	f7ff ffa5 	bl	80086d0 <_Bfree>
 8008786:	4644      	mov	r4, r8
 8008788:	eb04 0385 	add.w	r3, r4, r5, lsl #2
 800878c:	3501      	adds	r5, #1
 800878e:	615e      	str	r6, [r3, #20]
 8008790:	6125      	str	r5, [r4, #16]
 8008792:	4620      	mov	r0, r4
 8008794:	e8bd 81f0 	ldmia.w	sp!, {r4, r5, r6, r7, r8, pc}
 8008798:	0800a3fc 	.word	0x0800a3fc
 800879c:	0800a484 	.word	0x0800a484

080087a0 <__s2b>:
 80087a0:	e92d 43f8 	stmdb	sp!, {r3, r4, r5, r6, r7, r8, r9, lr}
 80087a4:	460c      	mov	r4, r1
 80087a6:	4615      	mov	r5, r2
 80087a8:	461f      	mov	r7, r3
 80087aa:	2209      	movs	r2, #9
 80087ac:	3308      	adds	r3, #8
 80087ae:	4606      	mov	r6, r0
 80087b0:	fb93 f3f2 	sdiv	r3, r3, r2
 80087b4:	2100      	movs	r1, #0
 80087b6:	2201      	movs	r2, #1
 80087b8:	429a      	cmp	r2, r3
 80087ba:	db09      	blt.n	80087d0 <__s2b+0x30>
 80087bc:	4630      	mov	r0, r6
 80087be:	f7ff ff49 	bl	8008654 <_Balloc>
 80087c2:	b940      	cbnz	r0, 80087d6 <__s2b+0x36>
 80087c4:	4602      	mov	r2, r0
 80087c6:	4b19      	ldr	r3, [pc, #100]	@ (800882c <__s2b+0x8c>)
 80087c8:	4819      	ldr	r0, [pc, #100]	@ (8008830 <__s2b+0x90>)
 80087ca:	21d3      	movs	r1, #211	@ 0xd3
 80087cc:	f000 fca2 	bl	8009114 <__assert_func>
 80087d0:	0052      	lsls	r2, r2, #1
 80087d2:	3101      	adds	r1, #1
 80087d4:	e7f0      	b.n	80087b8 <__s2b+0x18>
 80087d6:	9b08      	ldr	r3, [sp, #32]
 80087d8:	6143      	str	r3, [r0, #20]
 80087da:	2d09      	cmp	r5, #9
 80087dc:	f04f 0301 	mov.w	r3, #1
 80087e0:	6103      	str	r3, [r0, #16]
 80087e2:	dd16      	ble.n	8008812 <__s2b+0x72>
 80087e4:	f104 0809 	add.w	r8, r4, #9
 80087e8:	46c1      	mov	r9, r8
 80087ea:	442c      	add	r4, r5
 80087ec:	f819 3b01 	ldrb.w	r3, [r9], #1
 80087f0:	4601      	mov	r1, r0
 80087f2:	3b30      	subs	r3, #48	@ 0x30
 80087f4:	220a      	movs	r2, #10
 80087f6:	4630      	mov	r0, r6
 80087f8:	f7ff ff8c 	bl	8008714 <__multadd>
 80087fc:	45a1      	cmp	r9, r4
 80087fe:	d1f5      	bne.n	80087ec <__s2b+0x4c>
 8008800:	44a8      	add	r8, r5
 8008802:	f1a8 0408 	sub.w	r4, r8, #8
 8008806:	1b2d      	subs	r5, r5, r4
 8008808:	1963      	adds	r3, r4, r5
 800880a:	429f      	cmp	r7, r3
 800880c:	dc04      	bgt.n	8008818 <__s2b+0x78>
 800880e:	e8bd 83f8 	ldmia.w	sp!, {r3, r4, r5, r6, r7, r8, r9, pc}
 8008812:	340a      	adds	r4, #10
 8008814:	2509      	movs	r5, #9
 8008816:	e7f6      	b.n	8008806 <__s2b+0x66>
 8008818:	f814 3b01 	ldrb.w	r3, [r4], #1
 800881c:	4601      	mov	r1, r0
 800881e:	3b30      	subs	r3, #48	@ 0x30
 8008820:	220a      	movs	r2, #10
 8008822:	4630      	mov	r0, r6
 8008824:	f7ff ff76 	bl	8008714 <__multadd>
 8008828:	e7ee      	b.n	8008808 <__s2b+0x68>
 800882a:	bf00      	nop
 800882c:	0800a3fc 	.word	0x0800a3fc
 8008830:	0800a484 	.word	0x0800a484

08008834 <__hi0bits>:
 8008834:	f5b0 3f80 	cmp.w	r0, #65536	@ 0x10000
 8008838:	4603      	mov	r3, r0
 800883a:	bf36      	itet	cc
 800883c:	0403      	lslcc	r3, r0, #16
 800883e:	2000      	movcs	r0, #0
 8008840:	2010      	movcc	r0, #16
 8008842:	f1b3 7f80 	cmp.w	r3, #16777216	@ 0x1000000
 8008846:	bf3c      	itt	cc
 8008848:	021b      	lslcc	r3, r3, #8
 800884a:	3008      	addcc	r0, #8
 800884c:	f1b3 5f80 	cmp.w	r3, #268435456	@ 0x10000000
 8008850:	bf3c      	itt	cc
 8008852:	011b      	lslcc	r3, r3, #4
 8008854:	3004      	addcc	r0, #4
 8008856:	f1b3 4f80 	cmp.w	r3, #1073741824	@ 0x40000000
 800885a:	bf3c      	itt	cc
 800885c:	009b      	lslcc	r3, r3, #2
 800885e:	3002      	addcc	r0, #2
 8008860:	2b00      	cmp	r3, #0
 8008862:	db05      	blt.n	8008870 <__hi0bits+0x3c>
 8008864:	f013 4f80 	tst.w	r3, #1073741824	@ 0x40000000
 8008868:	f100 0001 	add.w	r0, r0, #1
 800886c:	bf08      	it	eq
 800886e:	2020      	moveq	r0, #32
 8008870:	4770      	bx	lr

08008872 <__lo0bits>:
 8008872:	6803      	ldr	r3, [r0, #0]
 8008874:	4602      	mov	r2, r0
 8008876:	f013 0007 	ands.w	r0, r3, #7
 800887a:	d00b      	beq.n	8008894 <__lo0bits+0x22>
 800887c:	07d9      	lsls	r1, r3, #31
 800887e:	d421      	bmi.n	80088c4 <__lo0bits+0x52>
 8008880:	0798      	lsls	r0, r3, #30
 8008882:	bf49      	itett	mi
 8008884:	085b      	lsrmi	r3, r3, #1
 8008886:	089b      	lsrpl	r3, r3, #2
 8008888:	2001      	movmi	r0, #1
 800888a:	6013      	strmi	r3, [r2, #0]
 800888c:	bf5c      	itt	pl
 800888e:	6013      	strpl	r3, [r2, #0]
 8008890:	2002      	movpl	r0, #2
 8008892:	4770      	bx	lr
 8008894:	b299      	uxth	r1, r3
 8008896:	b909      	cbnz	r1, 800889c <__lo0bits+0x2a>
 8008898:	0c1b      	lsrs	r3, r3, #16
 800889a:	2010      	movs	r0, #16
 800889c:	b2d9      	uxtb	r1, r3
 800889e:	b909      	cbnz	r1, 80088a4 <__lo0bits+0x32>
 80088a0:	3008      	adds	r0, #8
 80088a2:	0a1b      	lsrs	r3, r3, #8
 80088a4:	0719      	lsls	r1, r3, #28
 80088a6:	bf04      	itt	eq
 80088a8:	091b      	lsreq	r3, r3, #4
 80088aa:	3004      	addeq	r0, #4
 80088ac:	0799      	lsls	r1, r3, #30
 80088ae:	bf04      	itt	eq
 80088b0:	089b      	lsreq	r3, r3, #2
 80088b2:	3002      	addeq	r0, #2
 80088b4:	07d9      	lsls	r1, r3, #31
 80088b6:	d403      	bmi.n	80088c0 <__lo0bits+0x4e>
 80088b8:	085b      	lsrs	r3, r3, #1
 80088ba:	f100 0001 	add.w	r0, r0, #1
 80088be:	d003      	beq.n	80088c8 <__lo0bits+0x56>
 80088c0:	6013      	str	r3, [r2, #0]
 80088c2:	4770      	bx	lr
 80088c4:	2000      	movs	r0, #0
 80088c6:	4770      	bx	lr
 80088c8:	2020      	movs	r0, #32
 80088ca:	4770      	bx	lr

080088cc <__i2b>:
 80088cc:	b510      	push	{r4, lr}
 80088ce:	460c      	mov	r4, r1
 80088d0:	2101      	movs	r1, #1
 80088d2:	f7ff febf 	bl	8008654 <_Balloc>
 80088d6:	4602      	mov	r2, r0
 80088d8:	b928      	cbnz	r0, 80088e6 <__i2b+0x1a>
 80088da:	4b05      	ldr	r3, [pc, #20]	@ (80088f0 <__i2b+0x24>)
 80088dc:	4805      	ldr	r0, [pc, #20]	@ (80088f4 <__i2b+0x28>)
 80088de:	f240 1145 	movw	r1, #325	@ 0x145
 80088e2:	f000 fc17 	bl	8009114 <__assert_func>
 80088e6:	2301      	movs	r3, #1
 80088e8:	6144      	str	r4, [r0, #20]
 80088ea:	6103      	str	r3, [r0, #16]
 80088ec:	bd10      	pop	{r4, pc}
 80088ee:	bf00      	nop
 80088f0:	0800a3fc 	.word	0x0800a3fc
 80088f4:	0800a484 	.word	0x0800a484

080088f8 <__multiply>:
 80088f8:	e92d 4ff0 	stmdb	sp!, {r4, r5, r6, r7, r8, r9, sl, fp, lr}
 80088fc:	f8d1 9010 	ldr.w	r9, [r1, #16]
 8008900:	f8d2 a010 	ldr.w	sl, [r2, #16]
 8008904:	45d1      	cmp	r9, sl
 8008906:	b085      	sub	sp, #20
 8008908:	4688      	mov	r8, r1
 800890a:	4614      	mov	r4, r2
 800890c:	db04      	blt.n	8008918 <__multiply+0x20>
 800890e:	4653      	mov	r3, sl
 8008910:	460c      	mov	r4, r1
 8008912:	46ca      	mov	sl, r9
 8008914:	4690      	mov	r8, r2
 8008916:	4699      	mov	r9, r3
 8008918:	68a3      	ldr	r3, [r4, #8]
 800891a:	6861      	ldr	r1, [r4, #4]
 800891c:	eb0a 0609 	add.w	r6, sl, r9
 8008920:	42b3      	cmp	r3, r6
 8008922:	bfb8      	it	lt
 8008924:	3101      	addlt	r1, #1
 8008926:	f7ff fe95 	bl	8008654 <_Balloc>
 800892a:	b930      	cbnz	r0, 800893a <__multiply+0x42>
 800892c:	4602      	mov	r2, r0
 800892e:	4b45      	ldr	r3, [pc, #276]	@ (8008a44 <__multiply+0x14c>)
 8008930:	4845      	ldr	r0, [pc, #276]	@ (8008a48 <__multiply+0x150>)
 8008932:	f44f 71b1 	mov.w	r1, #354	@ 0x162
 8008936:	f000 fbed 	bl	8009114 <__assert_func>
 800893a:	f100 0514 	add.w	r5, r0, #20
 800893e:	eb05 0786 	add.w	r7, r5, r6, lsl #2
 8008942:	462b      	mov	r3, r5
 8008944:	2200      	movs	r2, #0
 8008946:	42bb      	cmp	r3, r7
 8008948:	d31f      	bcc.n	800898a <__multiply+0x92>
 800894a:	f104 0c14 	add.w	ip, r4, #20
 800894e:	f108 0114 	add.w	r1, r8, #20
 8008952:	eb0c 038a 	add.w	r3, ip, sl, lsl #2
 8008956:	eb01 0289 	add.w	r2, r1, r9, lsl #2
 800895a:	9202      	str	r2, [sp, #8]
 800895c:	1b1a      	subs	r2, r3, r4
 800895e:	3a15      	subs	r2, #21
 8008960:	f022 0203 	bic.w	r2, r2, #3
 8008964:	3415      	adds	r4, #21
 8008966:	429c      	cmp	r4, r3
 8008968:	bf88      	it	hi
 800896a:	2200      	movhi	r2, #0
 800896c:	9201      	str	r2, [sp, #4]
 800896e:	9a02      	ldr	r2, [sp, #8]
 8008970:	9103      	str	r1, [sp, #12]
 8008972:	428a      	cmp	r2, r1
 8008974:	d80c      	bhi.n	8008990 <__multiply+0x98>
 8008976:	2e00      	cmp	r6, #0
 8008978:	dd03      	ble.n	8008982 <__multiply+0x8a>
 800897a:	f857 3d04 	ldr.w	r3, [r7, #-4]!
 800897e:	2b00      	cmp	r3, #0
 8008980:	d05d      	beq.n	8008a3e <__multiply+0x146>
 8008982:	6106      	str	r6, [r0, #16]
 8008984:	b005      	add	sp, #20
 8008986:	e8bd 8ff0 	ldmia.w	sp!, {r4, r5, r6, r7, r8, r9, sl, fp, pc}
 800898a:	f843 2b04 	str.w	r2, [r3], #4
 800898e:	e7da      	b.n	8008946 <__multiply+0x4e>
 8008990:	f8b1 a000 	ldrh.w	sl, [r1]
 8008994:	f1ba 0f00 	cmp.w	sl, #0
 8008998:	d024      	beq.n	80089e4 <__multiply+0xec>
 800899a:	46e0      	mov	r8, ip
 800899c:	46a9      	mov	r9, r5
 800899e:	f04f 0e00 	mov.w	lr, #0
 80089a2:	f858 2b04 	ldr.w	r2, [r8], #4
 80089a6:	f8d9 4000 	ldr.w	r4, [r9]
 80089aa:	fa1f fb82 	uxth.w	fp, r2
 80089ae:	b2a4      	uxth	r4, r4
 80089b0:	fb0a 440b 	mla	r4, sl, fp, r4
 80089b4:	ea4f 4b12 	mov.w	fp, r2, lsr #16
 80089b8:	f8d9 2000 	ldr.w	r2, [r9]
 80089bc:	4474      	add	r4, lr
 80089be:	ea4f 4e12 	mov.w	lr, r2, lsr #16
 80089c2:	fb0a e20b 	mla	r2, sl, fp, lr
 80089c6:	eb02 4214 	add.w	r2, r2, r4, lsr #16
 80089ca:	b2a4      	uxth	r4, r4
 80089cc:	ea44 4402 	orr.w	r4, r4, r2, lsl #16
 80089d0:	4543      	cmp	r3, r8
 80089d2:	f849 4b04 	str.w	r4, [r9], #4
 80089d6:	ea4f 4e12 	mov.w	lr, r2, lsr #16
 80089da:	d8e2      	bhi.n	80089a2 <__multiply+0xaa>
 80089dc:	9a01      	ldr	r2, [sp, #4]
 80089de:	18aa      	adds	r2, r5, r2
 80089e0:	f8c2 e004 	str.w	lr, [r2, #4]
 80089e4:	9a03      	ldr	r2, [sp, #12]
 80089e6:	f8b2 8002 	ldrh.w	r8, [r2, #2]
 80089ea:	3104      	adds	r1, #4
 80089ec:	f1b8 0f00 	cmp.w	r8, #0
 80089f0:	d023      	beq.n	8008a3a <__multiply+0x142>
 80089f2:	682a      	ldr	r2, [r5, #0]
 80089f4:	46e6      	mov	lr, ip
 80089f6:	4691      	mov	r9, r2
 80089f8:	46aa      	mov	sl, r5
 80089fa:	f04f 0b00 	mov.w	fp, #0
 80089fe:	f8be 4000 	ldrh.w	r4, [lr]
 8008a02:	fb08 b404 	mla	r4, r8, r4, fp
 8008a06:	eb04 4419 	add.w	r4, r4, r9, lsr #16
 8008a0a:	b292      	uxth	r2, r2
 8008a0c:	ea42 4204 	orr.w	r2, r2, r4, lsl #16
 8008a10:	f84a 2b04 	str.w	r2, [sl], #4
 8008a14:	f85e 2b04 	ldr.w	r2, [lr], #4
 8008a18:	f8da 9000 	ldr.w	r9, [sl]
 8008a1c:	ea4f 4b12 	mov.w	fp, r2, lsr #16
 8008a20:	fa1f f289 	uxth.w	r2, r9
 8008a24:	fb08 220b 	mla	r2, r8, fp, r2
 8008a28:	eb02 4214 	add.w	r2, r2, r4, lsr #16
 8008a2c:	4573      	cmp	r3, lr
 8008a2e:	ea4f 4b12 	mov.w	fp, r2, lsr #16
 8008a32:	d8e4      	bhi.n	80089fe <__multiply+0x106>
 8008a34:	9c01      	ldr	r4, [sp, #4]
 8008a36:	192c      	adds	r4, r5, r4
 8008a38:	6062      	str	r2, [r4, #4]
 8008a3a:	3504      	adds	r5, #4
 8008a3c:	e797      	b.n	800896e <__multiply+0x76>
 8008a3e:	3e01      	subs	r6, #1
 8008a40:	e799      	b.n	8008976 <__multiply+0x7e>
 8008a42:	bf00      	nop
 8008a44:	0800a3fc 	.word	0x0800a3fc
 8008a48:	0800a484 	.word	0x0800a484

08008a4c <__pow5mult>:
 8008a4c:	e92d 43f8 	stmdb	sp!, {r3, r4, r5, r6, r7, r8, r9, lr}
 8008a50:	4617      	mov	r7, r2
 8008a52:	f012 0203 	ands.w	r2, r2, #3
 8008a56:	4680      	mov	r8, r0
 8008a58:	460d      	mov	r5, r1
 8008a5a:	d007      	beq.n	8008a6c <__pow5mult+0x20>
 8008a5c:	4c26      	ldr	r4, [pc, #152]	@ (8008af8 <__pow5mult+0xac>)
 8008a5e:	3a01      	subs	r2, #1
 8008a60:	2300      	movs	r3, #0
 8008a62:	f854 2022 	ldr.w	r2, [r4, r2, lsl #2]
 8008a66:	f7ff fe55 	bl	8008714 <__multadd>
 8008a6a:	4605      	mov	r5, r0
 8008a6c:	10bf      	asrs	r7, r7, #2
 8008a6e:	d03f      	beq.n	8008af0 <__pow5mult+0xa4>
 8008a70:	f8d8 401c 	ldr.w	r4, [r8, #28]
 8008a74:	b994      	cbnz	r4, 8008a9c <__pow5mult+0x50>
 8008a76:	2010      	movs	r0, #16
 8008a78:	f000 fbc8 	bl	800920c <malloc>
 8008a7c:	4604      	mov	r4, r0
 8008a7e:	f8c8 001c 	str.w	r0, [r8, #28]
 8008a82:	b930      	cbnz	r0, 8008a92 <__pow5mult+0x46>
 8008a84:	4602      	mov	r2, r0
 8008a86:	4b1d      	ldr	r3, [pc, #116]	@ (8008afc <__pow5mult+0xb0>)
 8008a88:	481d      	ldr	r0, [pc, #116]	@ (8008b00 <__pow5mult+0xb4>)
 8008a8a:	f240 11b3 	movw	r1, #435	@ 0x1b3
 8008a8e:	f000 fb41 	bl	8009114 <__assert_func>
 8008a92:	2300      	movs	r3, #0
 8008a94:	e9c0 3301 	strd	r3, r3, [r0, #4]
 8008a98:	6003      	str	r3, [r0, #0]
 8008a9a:	60c3      	str	r3, [r0, #12]
 8008a9c:	68a6      	ldr	r6, [r4, #8]
 8008a9e:	b946      	cbnz	r6, 8008ab2 <__pow5mult+0x66>
 8008aa0:	f240 2171 	movw	r1, #625	@ 0x271
 8008aa4:	4640      	mov	r0, r8
 8008aa6:	f7ff ff11 	bl	80088cc <__i2b>
 8008aaa:	2300      	movs	r3, #0
 8008aac:	60a0      	str	r0, [r4, #8]
 8008aae:	4606      	mov	r6, r0
 8008ab0:	6003      	str	r3, [r0, #0]
 8008ab2:	462c      	mov	r4, r5
 8008ab4:	f04f 0900 	mov.w	r9, #0
 8008ab8:	f007 0301 	and.w	r3, r7, #1
 8008abc:	107f      	asrs	r7, r7, #1
 8008abe:	b153      	cbz	r3, 8008ad6 <__pow5mult+0x8a>
 8008ac0:	4629      	mov	r1, r5
 8008ac2:	4632      	mov	r2, r6
 8008ac4:	4640      	mov	r0, r8
 8008ac6:	f7ff ff17 	bl	80088f8 <__multiply>
 8008aca:	4621      	mov	r1, r4
 8008acc:	4605      	mov	r5, r0
 8008ace:	4640      	mov	r0, r8
 8008ad0:	f7ff fdfe 	bl	80086d0 <_Bfree>
 8008ad4:	b167      	cbz	r7, 8008af0 <__pow5mult+0xa4>
 8008ad6:	6830      	ldr	r0, [r6, #0]
 8008ad8:	b938      	cbnz	r0, 8008aea <__pow5mult+0x9e>
 8008ada:	4632      	mov	r2, r6
 8008adc:	4631      	mov	r1, r6
 8008ade:	4640      	mov	r0, r8
 8008ae0:	f7ff ff0a 	bl	80088f8 <__multiply>
 8008ae4:	6030      	str	r0, [r6, #0]
 8008ae6:	f8c0 9000 	str.w	r9, [r0]
 8008aea:	4606      	mov	r6, r0
 8008aec:	462c      	mov	r4, r5
 8008aee:	e7e3      	b.n	8008ab8 <__pow5mult+0x6c>
 8008af0:	4628      	mov	r0, r5
 8008af2:	e8bd 83f8 	ldmia.w	sp!, {r3, r4, r5, r6, r7, r8, r9, pc}
 8008af6:	bf00      	nop
 8008af8:	0800a75c 	.word	0x0800a75c
 8008afc:	0800a46d 	.word	0x0800a46d
 8008b00:	0800a484 	.word	0x0800a484

08008b04 <__lshift>:
 8008b04:	e92d 4ff8 	stmdb	sp!, {r3, r4, r5, r6, r7, r8, r9, sl, fp, lr}
 8008b08:	460c      	mov	r4, r1
 8008b0a:	6849      	ldr	r1, [r1, #4]
 8008b0c:	6923      	ldr	r3, [r4, #16]
 8008b0e:	eb03 1862 	add.w	r8, r3, r2, asr #5
 8008b12:	68a3      	ldr	r3, [r4, #8]
 8008b14:	4607      	mov	r7, r0
 8008b16:	4615      	mov	r5, r2
 8008b18:	ea4f 1a62 	mov.w	sl, r2, asr #5
 8008b1c:	f108 0901 	add.w	r9, r8, #1
 8008b20:	454b      	cmp	r3, r9
 8008b22:	db0b      	blt.n	8008b3c <__lshift+0x38>
 8008b24:	4638      	mov	r0, r7
 8008b26:	f7ff fd95 	bl	8008654 <_Balloc>
 8008b2a:	4606      	mov	r6, r0
 8008b2c:	b948      	cbnz	r0, 8008b42 <__lshift+0x3e>
 8008b2e:	4602      	mov	r2, r0
 8008b30:	4b29      	ldr	r3, [pc, #164]	@ (8008bd8 <__lshift+0xd4>)
 8008b32:	482a      	ldr	r0, [pc, #168]	@ (8008bdc <__lshift+0xd8>)
 8008b34:	f44f 71ef 	mov.w	r1, #478	@ 0x1de
 8008b38:	f000 faec 	bl	8009114 <__assert_func>
 8008b3c:	3101      	adds	r1, #1
 8008b3e:	005b      	lsls	r3, r3, #1
 8008b40:	e7ee      	b.n	8008b20 <__lshift+0x1c>
 8008b42:	2300      	movs	r3, #0
 8008b44:	f100 0c14 	add.w	ip, r0, #20
 8008b48:	f100 0210 	add.w	r2, r0, #16
 8008b4c:	4619      	mov	r1, r3
 8008b4e:	4553      	cmp	r3, sl
 8008b50:	db35      	blt.n	8008bbe <__lshift+0xba>
 8008b52:	6922      	ldr	r2, [r4, #16]
 8008b54:	ea2a 7aea 	bic.w	sl, sl, sl, asr #31
 8008b58:	eb0c 0c8a 	add.w	ip, ip, sl, lsl #2
 8008b5c:	f104 0314 	add.w	r3, r4, #20
 8008b60:	f015 0e1f 	ands.w	lr, r5, #31
 8008b64:	4661      	mov	r1, ip
 8008b66:	eb03 0282 	add.w	r2, r3, r2, lsl #2
 8008b6a:	d02c      	beq.n	8008bc6 <__lshift+0xc2>
 8008b6c:	f1ce 0a20 	rsb	sl, lr, #32
 8008b70:	2500      	movs	r5, #0
 8008b72:	6818      	ldr	r0, [r3, #0]
 8008b74:	468b      	mov	fp, r1
 8008b76:	fa00 f00e 	lsl.w	r0, r0, lr
 8008b7a:	4328      	orrs	r0, r5
 8008b7c:	f8cb 0000 	str.w	r0, [fp]
 8008b80:	f853 5b04 	ldr.w	r5, [r3], #4
 8008b84:	429a      	cmp	r2, r3
 8008b86:	f101 0104 	add.w	r1, r1, #4
 8008b8a:	fa25 f50a 	lsr.w	r5, r5, sl
 8008b8e:	d8f0      	bhi.n	8008b72 <__lshift+0x6e>
 8008b90:	1b13      	subs	r3, r2, r4
 8008b92:	3b15      	subs	r3, #21
 8008b94:	f023 0303 	bic.w	r3, r3, #3
 8008b98:	f104 0115 	add.w	r1, r4, #21
 8008b9c:	428a      	cmp	r2, r1
 8008b9e:	bf38      	it	cc
 8008ba0:	2300      	movcc	r3, #0
 8008ba2:	449c      	add	ip, r3
 8008ba4:	f8cc 5004 	str.w	r5, [ip, #4]
 8008ba8:	b905      	cbnz	r5, 8008bac <__lshift+0xa8>
 8008baa:	46c1      	mov	r9, r8
 8008bac:	4638      	mov	r0, r7
 8008bae:	f8c6 9010 	str.w	r9, [r6, #16]
 8008bb2:	4621      	mov	r1, r4
 8008bb4:	f7ff fd8c 	bl	80086d0 <_Bfree>
 8008bb8:	4630      	mov	r0, r6
 8008bba:	e8bd 8ff8 	ldmia.w	sp!, {r3, r4, r5, r6, r7, r8, r9, sl, fp, pc}
 8008bbe:	f842 1f04 	str.w	r1, [r2, #4]!
 8008bc2:	3301      	adds	r3, #1
 8008bc4:	e7c3      	b.n	8008b4e <__lshift+0x4a>
 8008bc6:	f853 5b04 	ldr.w	r5, [r3], #4
 8008bca:	600d      	str	r5, [r1, #0]
 8008bcc:	429a      	cmp	r2, r3
 8008bce:	f101 0104 	add.w	r1, r1, #4
 8008bd2:	d8f8      	bhi.n	8008bc6 <__lshift+0xc2>
 8008bd4:	e7e9      	b.n	8008baa <__lshift+0xa6>
 8008bd6:	bf00      	nop
 8008bd8:	0800a3fc 	.word	0x0800a3fc
 8008bdc:	0800a484 	.word	0x0800a484

08008be0 <__mcmp>:
 8008be0:	690a      	ldr	r2, [r1, #16]
 8008be2:	4603      	mov	r3, r0
 8008be4:	6900      	ldr	r0, [r0, #16]
 8008be6:	1a80      	subs	r0, r0, r2
 8008be8:	b530      	push	{r4, r5, lr}
 8008bea:	d10e      	bne.n	8008c0a <__mcmp+0x2a>
 8008bec:	3314      	adds	r3, #20
 8008bee:	3114      	adds	r1, #20
 8008bf0:	eb03 0482 	add.w	r4, r3, r2, lsl #2
 8008bf4:	eb01 0182 	add.w	r1, r1, r2, lsl #2
 8008bf8:	f854 5d04 	ldr.w	r5, [r4, #-4]!
 8008bfc:	f851 2d04 	ldr.w	r2, [r1, #-4]!
 8008c00:	4295      	cmp	r5, r2
 8008c02:	d003      	beq.n	8008c0c <__mcmp+0x2c>
 8008c04:	d205      	bcs.n	8008c12 <__mcmp+0x32>
 8008c06:	f04f 30ff 	mov.w	r0, #4294967295	@ 0xffffffff
 8008c0a:	bd30      	pop	{r4, r5, pc}
 8008c0c:	42a3      	cmp	r3, r4
 8008c0e:	d3f3      	bcc.n	8008bf8 <__mcmp+0x18>
 8008c10:	e7fb      	b.n	8008c0a <__mcmp+0x2a>
 8008c12:	2001      	movs	r0, #1
 8008c14:	e7f9      	b.n	8008c0a <__mcmp+0x2a>
	...

08008c18 <__mdiff>:
 8008c18:	e92d 4ff7 	stmdb	sp!, {r0, r1, r2, r4, r5, r6, r7, r8, r9, sl, fp, lr}
 8008c1c:	468a      	mov	sl, r1
 8008c1e:	4606      	mov	r6, r0
 8008c20:	4611      	mov	r1, r2
 8008c22:	4650      	mov	r0, sl
 8008c24:	4614      	mov	r4, r2
 8008c26:	f7ff ffdb 	bl	8008be0 <__mcmp>
 8008c2a:	1e05      	subs	r5, r0, #0
 8008c2c:	d112      	bne.n	8008c54 <__mdiff+0x3c>
 8008c2e:	4629      	mov	r1, r5
 8008c30:	4630      	mov	r0, r6
 8008c32:	f7ff fd0f 	bl	8008654 <_Balloc>
 8008c36:	4602      	mov	r2, r0
 8008c38:	b928      	cbnz	r0, 8008c46 <__mdiff+0x2e>
 8008c3a:	4b41      	ldr	r3, [pc, #260]	@ (8008d40 <__mdiff+0x128>)
 8008c3c:	f240 2137 	movw	r1, #567	@ 0x237
 8008c40:	4840      	ldr	r0, [pc, #256]	@ (8008d44 <__mdiff+0x12c>)
 8008c42:	f000 fa67 	bl	8009114 <__assert_func>
 8008c46:	2301      	movs	r3, #1
 8008c48:	e9c0 3504 	strd	r3, r5, [r0, #16]
 8008c4c:	4610      	mov	r0, r2
 8008c4e:	b003      	add	sp, #12
 8008c50:	e8bd 8ff0 	ldmia.w	sp!, {r4, r5, r6, r7, r8, r9, sl, fp, pc}
 8008c54:	bfbc      	itt	lt
 8008c56:	4653      	movlt	r3, sl
 8008c58:	46a2      	movlt	sl, r4
 8008c5a:	4630      	mov	r0, r6
 8008c5c:	f8da 1004 	ldr.w	r1, [sl, #4]
 8008c60:	bfba      	itte	lt
 8008c62:	461c      	movlt	r4, r3
 8008c64:	2501      	movlt	r5, #1
 8008c66:	2500      	movge	r5, #0
 8008c68:	f7ff fcf4 	bl	8008654 <_Balloc>
 8008c6c:	4602      	mov	r2, r0
 8008c6e:	b918      	cbnz	r0, 8008c78 <__mdiff+0x60>
 8008c70:	4b33      	ldr	r3, [pc, #204]	@ (8008d40 <__mdiff+0x128>)
 8008c72:	f240 2145 	movw	r1, #581	@ 0x245
 8008c76:	e7e3      	b.n	8008c40 <__mdiff+0x28>
 8008c78:	f8da 7010 	ldr.w	r7, [sl, #16]
 8008c7c:	6926      	ldr	r6, [r4, #16]
 8008c7e:	60c5      	str	r5, [r0, #12]
 8008c80:	f10a 0914 	add.w	r9, sl, #20
 8008c84:	f104 0e14 	add.w	lr, r4, #20
 8008c88:	f100 0514 	add.w	r5, r0, #20
 8008c8c:	f10a 0310 	add.w	r3, sl, #16
 8008c90:	eb09 0887 	add.w	r8, r9, r7, lsl #2
 8008c94:	eb0e 0686 	add.w	r6, lr, r6, lsl #2
 8008c98:	9301      	str	r3, [sp, #4]
 8008c9a:	46ab      	mov	fp, r5
 8008c9c:	f04f 0c00 	mov.w	ip, #0
 8008ca0:	9b01      	ldr	r3, [sp, #4]
 8008ca2:	f85e 0b04 	ldr.w	r0, [lr], #4
 8008ca6:	f853 af04 	ldr.w	sl, [r3, #4]!
 8008caa:	9301      	str	r3, [sp, #4]
 8008cac:	fa1f f38a 	uxth.w	r3, sl
 8008cb0:	4619      	mov	r1, r3
 8008cb2:	b283      	uxth	r3, r0
 8008cb4:	1acb      	subs	r3, r1, r3
 8008cb6:	0c00      	lsrs	r0, r0, #16
 8008cb8:	4463      	add	r3, ip
 8008cba:	ebc0 401a 	rsb	r0, r0, sl, lsr #16
 8008cbe:	eb00 4023 	add.w	r0, r0, r3, asr #16
 8008cc2:	b29b      	uxth	r3, r3
 8008cc4:	ea43 4300 	orr.w	r3, r3, r0, lsl #16
 8008cc8:	4576      	cmp	r6, lr
 8008cca:	f84b 3b04 	str.w	r3, [fp], #4
 8008cce:	ea4f 4c20 	mov.w	ip, r0, asr #16
 8008cd2:	d8e5      	bhi.n	8008ca0 <__mdiff+0x88>
 8008cd4:	1b33      	subs	r3, r6, r4
 8008cd6:	3b15      	subs	r3, #21
 8008cd8:	3415      	adds	r4, #21
 8008cda:	f023 0303 	bic.w	r3, r3, #3
 8008cde:	42a6      	cmp	r6, r4
 8008ce0:	bf38      	it	cc
 8008ce2:	2300      	movcc	r3, #0
 8008ce4:	18e8      	adds	r0, r5, r3
 8008ce6:	444b      	add	r3, r9
 8008ce8:	1d1c      	adds	r4, r3, #4
 8008cea:	3004      	adds	r0, #4
 8008cec:	4626      	mov	r6, r4
 8008cee:	eba5 0509 	sub.w	r5, r5, r9
 8008cf2:	4546      	cmp	r6, r8
 8008cf4:	eb06 0e05 	add.w	lr, r6, r5
 8008cf8:	d30e      	bcc.n	8008d18 <__mdiff+0x100>
 8008cfa:	f108 0103 	add.w	r1, r8, #3
 8008cfe:	1b09      	subs	r1, r1, r4
 8008d00:	f021 0103 	bic.w	r1, r1, #3
 8008d04:	3301      	adds	r3, #1
 8008d06:	4598      	cmp	r8, r3
 8008d08:	bf38      	it	cc
 8008d0a:	2100      	movcc	r1, #0
 8008d0c:	4401      	add	r1, r0
 8008d0e:	f851 3d04 	ldr.w	r3, [r1, #-4]!
 8008d12:	b19b      	cbz	r3, 8008d3c <__mdiff+0x124>
 8008d14:	6117      	str	r7, [r2, #16]
 8008d16:	e799      	b.n	8008c4c <__mdiff+0x34>
 8008d18:	f856 1b04 	ldr.w	r1, [r6], #4
 8008d1c:	46e2      	mov	sl, ip
 8008d1e:	ea4f 4911 	mov.w	r9, r1, lsr #16
 8008d22:	fa1c fc81 	uxtah	ip, ip, r1
 8008d26:	4451      	add	r1, sl
 8008d28:	eb09 492c 	add.w	r9, r9, ip, asr #16
 8008d2c:	b289      	uxth	r1, r1
 8008d2e:	ea41 4109 	orr.w	r1, r1, r9, lsl #16
 8008d32:	ea4f 4c29 	mov.w	ip, r9, asr #16
 8008d36:	f8ce 1000 	str.w	r1, [lr]
 8008d3a:	e7da      	b.n	8008cf2 <__mdiff+0xda>
 8008d3c:	3f01      	subs	r7, #1
 8008d3e:	e7e6      	b.n	8008d0e <__mdiff+0xf6>
 8008d40:	0800a3fc 	.word	0x0800a3fc
 8008d44:	0800a484 	.word	0x0800a484

08008d48 <__ulp>:
 8008d48:	b082      	sub	sp, #8
 8008d4a:	ed8d 0b00 	vstr	d0, [sp]
 8008d4e:	9a01      	ldr	r2, [sp, #4]
 8008d50:	4b0f      	ldr	r3, [pc, #60]	@ (8008d90 <__ulp+0x48>)
 8008d52:	4013      	ands	r3, r2
 8008d54:	f1a3 7350 	sub.w	r3, r3, #54525952	@ 0x3400000
 8008d58:	2b00      	cmp	r3, #0
 8008d5a:	dc08      	bgt.n	8008d6e <__ulp+0x26>
 8008d5c:	425b      	negs	r3, r3
 8008d5e:	f1b3 7fa0 	cmp.w	r3, #20971520	@ 0x1400000
 8008d62:	ea4f 5223 	mov.w	r2, r3, asr #20
 8008d66:	da04      	bge.n	8008d72 <__ulp+0x2a>
 8008d68:	f44f 2300 	mov.w	r3, #524288	@ 0x80000
 8008d6c:	4113      	asrs	r3, r2
 8008d6e:	2200      	movs	r2, #0
 8008d70:	e008      	b.n	8008d84 <__ulp+0x3c>
 8008d72:	f1a2 0314 	sub.w	r3, r2, #20
 8008d76:	2b1e      	cmp	r3, #30
 8008d78:	bfda      	itte	le
 8008d7a:	f04f 4200 	movle.w	r2, #2147483648	@ 0x80000000
 8008d7e:	40da      	lsrle	r2, r3
 8008d80:	2201      	movgt	r2, #1
 8008d82:	2300      	movs	r3, #0
 8008d84:	4619      	mov	r1, r3
 8008d86:	4610      	mov	r0, r2
 8008d88:	ec41 0b10 	vmov	d0, r0, r1
 8008d8c:	b002      	add	sp, #8
 8008d8e:	4770      	bx	lr
 8008d90:	7ff00000 	.word	0x7ff00000

08008d94 <__b2d>:
 8008d94:	e92d 41f0 	stmdb	sp!, {r4, r5, r6, r7, r8, lr}
 8008d98:	6906      	ldr	r6, [r0, #16]
 8008d9a:	f100 0814 	add.w	r8, r0, #20
 8008d9e:	eb08 0686 	add.w	r6, r8, r6, lsl #2
 8008da2:	1f37      	subs	r7, r6, #4
 8008da4:	f856 2c04 	ldr.w	r2, [r6, #-4]
 8008da8:	4610      	mov	r0, r2
 8008daa:	f7ff fd43 	bl	8008834 <__hi0bits>
 8008dae:	f1c0 0320 	rsb	r3, r0, #32
 8008db2:	280a      	cmp	r0, #10
 8008db4:	600b      	str	r3, [r1, #0]
 8008db6:	491b      	ldr	r1, [pc, #108]	@ (8008e24 <__b2d+0x90>)
 8008db8:	dc15      	bgt.n	8008de6 <__b2d+0x52>
 8008dba:	f1c0 0c0b 	rsb	ip, r0, #11
 8008dbe:	fa22 f30c 	lsr.w	r3, r2, ip
 8008dc2:	45b8      	cmp	r8, r7
 8008dc4:	ea43 0501 	orr.w	r5, r3, r1
 8008dc8:	bf34      	ite	cc
 8008dca:	f856 3c08 	ldrcc.w	r3, [r6, #-8]
 8008dce:	2300      	movcs	r3, #0
 8008dd0:	3015      	adds	r0, #21
 8008dd2:	fa02 f000 	lsl.w	r0, r2, r0
 8008dd6:	fa23 f30c 	lsr.w	r3, r3, ip
 8008dda:	4303      	orrs	r3, r0
 8008ddc:	461c      	mov	r4, r3
 8008dde:	ec45 4b10 	vmov	d0, r4, r5
 8008de2:	e8bd 81f0 	ldmia.w	sp!, {r4, r5, r6, r7, r8, pc}
 8008de6:	45b8      	cmp	r8, r7
 8008de8:	bf3a      	itte	cc
 8008dea:	f856 3c08 	ldrcc.w	r3, [r6, #-8]
 8008dee:	f1a6 0708 	subcc.w	r7, r6, #8
 8008df2:	2300      	movcs	r3, #0
 8008df4:	380b      	subs	r0, #11
 8008df6:	d012      	beq.n	8008e1e <__b2d+0x8a>
 8008df8:	f1c0 0120 	rsb	r1, r0, #32
 8008dfc:	fa23 f401 	lsr.w	r4, r3, r1
 8008e00:	4082      	lsls	r2, r0
 8008e02:	4322      	orrs	r2, r4
 8008e04:	4547      	cmp	r7, r8
 8008e06:	f042 557f 	orr.w	r5, r2, #1069547520	@ 0x3fc00000
 8008e0a:	bf8c      	ite	hi
 8008e0c:	f857 2c04 	ldrhi.w	r2, [r7, #-4]
 8008e10:	2200      	movls	r2, #0
 8008e12:	4083      	lsls	r3, r0
 8008e14:	40ca      	lsrs	r2, r1
 8008e16:	f445 1540 	orr.w	r5, r5, #3145728	@ 0x300000
 8008e1a:	4313      	orrs	r3, r2
 8008e1c:	e7de      	b.n	8008ddc <__b2d+0x48>
 8008e1e:	ea42 0501 	orr.w	r5, r2, r1
 8008e22:	e7db      	b.n	8008ddc <__b2d+0x48>
 8008e24:	3ff00000 	.word	0x3ff00000

08008e28 <__d2b>:
 8008e28:	e92d 43f7 	stmdb	sp!, {r0, r1, r2, r4, r5, r6, r7, r8, r9, lr}
 8008e2c:	460f      	mov	r7, r1
 8008e2e:	2101      	movs	r1, #1
 8008e30:	ec59 8b10 	vmov	r8, r9, d0
 8008e34:	4616      	mov	r6, r2
 8008e36:	f7ff fc0d 	bl	8008654 <_Balloc>
 8008e3a:	4604      	mov	r4, r0
 8008e3c:	b930      	cbnz	r0, 8008e4c <__d2b+0x24>
 8008e3e:	4602      	mov	r2, r0
 8008e40:	4b23      	ldr	r3, [pc, #140]	@ (8008ed0 <__d2b+0xa8>)
 8008e42:	4824      	ldr	r0, [pc, #144]	@ (8008ed4 <__d2b+0xac>)
 8008e44:	f240 310f 	movw	r1, #783	@ 0x30f
 8008e48:	f000 f964 	bl	8009114 <__assert_func>
 8008e4c:	f3c9 550a 	ubfx	r5, r9, #20, #11
 8008e50:	f3c9 0313 	ubfx	r3, r9, #0, #20
 8008e54:	b10d      	cbz	r5, 8008e5a <__d2b+0x32>
 8008e56:	f443 1380 	orr.w	r3, r3, #1048576	@ 0x100000
 8008e5a:	9301      	str	r3, [sp, #4]
 8008e5c:	f1b8 0300 	subs.w	r3, r8, #0
 8008e60:	d023      	beq.n	8008eaa <__d2b+0x82>
 8008e62:	4668      	mov	r0, sp
 8008e64:	9300      	str	r3, [sp, #0]
 8008e66:	f7ff fd04 	bl	8008872 <__lo0bits>
 8008e6a:	9900      	ldr	r1, [sp, #0]
 8008e6c:	b1d8      	cbz	r0, 8008ea6 <__d2b+0x7e>
 8008e6e:	9a01      	ldr	r2, [sp, #4]
 8008e70:	f1c0 0320 	rsb	r3, r0, #32
 8008e74:	fa02 f303 	lsl.w	r3, r2, r3
 8008e78:	430b      	orrs	r3, r1
 8008e7a:	40c2      	lsrs	r2, r0
 8008e7c:	6163      	str	r3, [r4, #20]
 8008e7e:	9201      	str	r2, [sp, #4]
 8008e80:	9b01      	ldr	r3, [sp, #4]
 8008e82:	61a3      	str	r3, [r4, #24]
 8008e84:	2b00      	cmp	r3, #0
 8008e86:	bf0c      	ite	eq
 8008e88:	2201      	moveq	r2, #1
 8008e8a:	2202      	movne	r2, #2
 8008e8c:	6122      	str	r2, [r4, #16]
 8008e8e:	b1a5      	cbz	r5, 8008eba <__d2b+0x92>
 8008e90:	f2a5 4533 	subw	r5, r5, #1075	@ 0x433
 8008e94:	4405      	add	r5, r0
 8008e96:	603d      	str	r5, [r7, #0]
 8008e98:	f1c0 0035 	rsb	r0, r0, #53	@ 0x35
 8008e9c:	6030      	str	r0, [r6, #0]
 8008e9e:	4620      	mov	r0, r4
 8008ea0:	b003      	add	sp, #12
 8008ea2:	e8bd 83f0 	ldmia.w	sp!, {r4, r5, r6, r7, r8, r9, pc}
 8008ea6:	6161      	str	r1, [r4, #20]
 8008ea8:	e7ea      	b.n	8008e80 <__d2b+0x58>
 8008eaa:	a801      	add	r0, sp, #4
 8008eac:	f7ff fce1 	bl	8008872 <__lo0bits>
 8008eb0:	9b01      	ldr	r3, [sp, #4]
 8008eb2:	6163      	str	r3, [r4, #20]
 8008eb4:	3020      	adds	r0, #32
 8008eb6:	2201      	movs	r2, #1
 8008eb8:	e7e8      	b.n	8008e8c <__d2b+0x64>
 8008eba:	eb04 0382 	add.w	r3, r4, r2, lsl #2
 8008ebe:	f2a0 4032 	subw	r0, r0, #1074	@ 0x432
 8008ec2:	6038      	str	r0, [r7, #0]
 8008ec4:	6918      	ldr	r0, [r3, #16]
 8008ec6:	f7ff fcb5 	bl	8008834 <__hi0bits>
 8008eca:	ebc0 1042 	rsb	r0, r0, r2, lsl #5
 8008ece:	e7e5      	b.n	8008e9c <__d2b+0x74>
 8008ed0:	0800a3fc 	.word	0x0800a3fc
 8008ed4:	0800a484 	.word	0x0800a484

08008ed8 <__ratio>:
 8008ed8:	e92d 4ff0 	stmdb	sp!, {r4, r5, r6, r7, r8, r9, sl, fp, lr}
 8008edc:	b085      	sub	sp, #20
 8008ede:	e9cd 1000 	strd	r1, r0, [sp]
 8008ee2:	a902      	add	r1, sp, #8
 8008ee4:	f7ff ff56 	bl	8008d94 <__b2d>
 8008ee8:	9800      	ldr	r0, [sp, #0]
 8008eea:	a903      	add	r1, sp, #12
 8008eec:	ec55 4b10 	vmov	r4, r5, d0
 8008ef0:	f7ff ff50 	bl	8008d94 <__b2d>
 8008ef4:	9b01      	ldr	r3, [sp, #4]
 8008ef6:	6919      	ldr	r1, [r3, #16]
 8008ef8:	9b00      	ldr	r3, [sp, #0]
 8008efa:	691b      	ldr	r3, [r3, #16]
 8008efc:	1ac9      	subs	r1, r1, r3
 8008efe:	e9dd 3202 	ldrd	r3, r2, [sp, #8]
 8008f02:	1a9b      	subs	r3, r3, r2
 8008f04:	ec5b ab10 	vmov	sl, fp, d0
 8008f08:	eb03 1341 	add.w	r3, r3, r1, lsl #5
 8008f0c:	2b00      	cmp	r3, #0
 8008f0e:	bfce      	itee	gt
 8008f10:	462a      	movgt	r2, r5
 8008f12:	ebc3 3303 	rsble	r3, r3, r3, lsl #12
 8008f16:	465a      	movle	r2, fp
 8008f18:	462f      	mov	r7, r5
 8008f1a:	46d9      	mov	r9, fp
 8008f1c:	bfcc      	ite	gt
 8008f1e:	eb02 5703 	addgt.w	r7, r2, r3, lsl #20
 8008f22:	eb02 5903 	addle.w	r9, r2, r3, lsl #20
 8008f26:	464b      	mov	r3, r9
 8008f28:	4652      	mov	r2, sl
 8008f2a:	4620      	mov	r0, r4
 8008f2c:	4639      	mov	r1, r7
 8008f2e:	f7f7 fcb5 	bl	800089c <__aeabi_ddiv>
 8008f32:	ec41 0b10 	vmov	d0, r0, r1
 8008f36:	b005      	add	sp, #20
 8008f38:	e8bd 8ff0 	ldmia.w	sp!, {r4, r5, r6, r7, r8, r9, sl, fp, pc}

08008f3c <__copybits>:
 8008f3c:	3901      	subs	r1, #1
 8008f3e:	b570      	push	{r4, r5, r6, lr}
 8008f40:	1149      	asrs	r1, r1, #5
 8008f42:	6914      	ldr	r4, [r2, #16]
 8008f44:	3101      	adds	r1, #1
 8008f46:	f102 0314 	add.w	r3, r2, #20
 8008f4a:	eb00 0181 	add.w	r1, r0, r1, lsl #2
 8008f4e:	eb03 0484 	add.w	r4, r3, r4, lsl #2
 8008f52:	1f05      	subs	r5, r0, #4
 8008f54:	42a3      	cmp	r3, r4
 8008f56:	d30c      	bcc.n	8008f72 <__copybits+0x36>
 8008f58:	1aa3      	subs	r3, r4, r2
 8008f5a:	3b11      	subs	r3, #17
 8008f5c:	f023 0303 	bic.w	r3, r3, #3
 8008f60:	3211      	adds	r2, #17
 8008f62:	4294      	cmp	r4, r2
 8008f64:	bf38      	it	cc
 8008f66:	2300      	movcc	r3, #0
 8008f68:	4418      	add	r0, r3
 8008f6a:	2300      	movs	r3, #0
 8008f6c:	4288      	cmp	r0, r1
 8008f6e:	d305      	bcc.n	8008f7c <__copybits+0x40>
 8008f70:	bd70      	pop	{r4, r5, r6, pc}
 8008f72:	f853 6b04 	ldr.w	r6, [r3], #4
 8008f76:	f845 6f04 	str.w	r6, [r5, #4]!
 8008f7a:	e7eb      	b.n	8008f54 <__copybits+0x18>
 8008f7c:	f840 3b04 	str.w	r3, [r0], #4
 8008f80:	e7f4      	b.n	8008f6c <__copybits+0x30>

08008f82 <__any_on>:
 8008f82:	f100 0214 	add.w	r2, r0, #20
 8008f86:	6900      	ldr	r0, [r0, #16]
 8008f88:	114b      	asrs	r3, r1, #5
 8008f8a:	4298      	cmp	r0, r3
 8008f8c:	b510      	push	{r4, lr}
 8008f8e:	db11      	blt.n	8008fb4 <__any_on+0x32>
 8008f90:	dd0a      	ble.n	8008fa8 <__any_on+0x26>
 8008f92:	f011 011f 	ands.w	r1, r1, #31
 8008f96:	d007      	beq.n	8008fa8 <__any_on+0x26>
 8008f98:	f852 4023 	ldr.w	r4, [r2, r3, lsl #2]
 8008f9c:	fa24 f001 	lsr.w	r0, r4, r1
 8008fa0:	fa00 f101 	lsl.w	r1, r0, r1
 8008fa4:	428c      	cmp	r4, r1
 8008fa6:	d10b      	bne.n	8008fc0 <__any_on+0x3e>
 8008fa8:	eb02 0383 	add.w	r3, r2, r3, lsl #2
 8008fac:	4293      	cmp	r3, r2
 8008fae:	d803      	bhi.n	8008fb8 <__any_on+0x36>
 8008fb0:	2000      	movs	r0, #0
 8008fb2:	bd10      	pop	{r4, pc}
 8008fb4:	4603      	mov	r3, r0
 8008fb6:	e7f7      	b.n	8008fa8 <__any_on+0x26>
 8008fb8:	f853 1d04 	ldr.w	r1, [r3, #-4]!
 8008fbc:	2900      	cmp	r1, #0
 8008fbe:	d0f5      	beq.n	8008fac <__any_on+0x2a>
 8008fc0:	2001      	movs	r0, #1
 8008fc2:	e7f6      	b.n	8008fb2 <__any_on+0x30>

08008fc4 <__sread>:
 8008fc4:	b510      	push	{r4, lr}
 8008fc6:	460c      	mov	r4, r1
 8008fc8:	f9b1 100e 	ldrsh.w	r1, [r1, #14]
 8008fcc:	f000 f85e 	bl	800908c <_read_r>
 8008fd0:	2800      	cmp	r0, #0
 8008fd2:	bfab      	itete	ge
 8008fd4:	6d63      	ldrge	r3, [r4, #84]	@ 0x54
 8008fd6:	89a3      	ldrhlt	r3, [r4, #12]
 8008fd8:	181b      	addge	r3, r3, r0
 8008fda:	f423 5380 	biclt.w	r3, r3, #4096	@ 0x1000
 8008fde:	bfac      	ite	ge
 8008fe0:	6563      	strge	r3, [r4, #84]	@ 0x54
 8008fe2:	81a3      	strhlt	r3, [r4, #12]
 8008fe4:	bd10      	pop	{r4, pc}

08008fe6 <__swrite>:
 8008fe6:	e92d 41f0 	stmdb	sp!, {r4, r5, r6, r7, r8, lr}
 8008fea:	461f      	mov	r7, r3
 8008fec:	898b      	ldrh	r3, [r1, #12]
 8008fee:	05db      	lsls	r3, r3, #23
 8008ff0:	4605      	mov	r5, r0
 8008ff2:	460c      	mov	r4, r1
 8008ff4:	4616      	mov	r6, r2
 8008ff6:	d505      	bpl.n	8009004 <__swrite+0x1e>
 8008ff8:	f9b1 100e 	ldrsh.w	r1, [r1, #14]
 8008ffc:	2302      	movs	r3, #2
 8008ffe:	2200      	movs	r2, #0
 8009000:	f000 f832 	bl	8009068 <_lseek_r>
 8009004:	89a3      	ldrh	r3, [r4, #12]
 8009006:	f9b4 100e 	ldrsh.w	r1, [r4, #14]
 800900a:	f423 5380 	bic.w	r3, r3, #4096	@ 0x1000
 800900e:	81a3      	strh	r3, [r4, #12]
 8009010:	4632      	mov	r2, r6
 8009012:	463b      	mov	r3, r7
 8009014:	4628      	mov	r0, r5
 8009016:	e8bd 41f0 	ldmia.w	sp!, {r4, r5, r6, r7, r8, lr}
 800901a:	f000 b859 	b.w	80090d0 <_write_r>

0800901e <__sseek>:
 800901e:	b510      	push	{r4, lr}
 8009020:	460c      	mov	r4, r1
 8009022:	f9b1 100e 	ldrsh.w	r1, [r1, #14]
 8009026:	f000 f81f 	bl	8009068 <_lseek_r>
 800902a:	f9b4 300c 	ldrsh.w	r3, [r4, #12]
 800902e:	1c42      	adds	r2, r0, #1
 8009030:	bf0b      	itete	eq
 8009032:	f423 5380 	biceq.w	r3, r3, #4096	@ 0x1000
 8009036:	f443 5380 	orrne.w	r3, r3, #4096	@ 0x1000
 800903a:	81a3      	strheq	r3, [r4, #12]
 800903c:	81a3      	strhne	r3, [r4, #12]
 800903e:	bf18      	it	ne
 8009040:	6560      	strne	r0, [r4, #84]	@ 0x54
 8009042:	bd10      	pop	{r4, pc}

08009044 <__sclose>:
 8009044:	f9b1 100e 	ldrsh.w	r1, [r1, #14]
 8009048:	f000 b854 	b.w	80090f4 <_close_r>

0800904c <__ascii_wctomb>:
 800904c:	4603      	mov	r3, r0
 800904e:	4608      	mov	r0, r1
 8009050:	b141      	cbz	r1, 8009064 <__ascii_wctomb+0x18>
 8009052:	2aff      	cmp	r2, #255	@ 0xff
 8009054:	d904      	bls.n	8009060 <__ascii_wctomb+0x14>
 8009056:	228a      	movs	r2, #138	@ 0x8a
 8009058:	601a      	str	r2, [r3, #0]
 800905a:	f04f 30ff 	mov.w	r0, #4294967295	@ 0xffffffff
 800905e:	4770      	bx	lr
 8009060:	700a      	strb	r2, [r1, #0]
 8009062:	2001      	movs	r0, #1
 8009064:	4770      	bx	lr
	...

08009068 <_lseek_r>:
 8009068:	b538      	push	{r3, r4, r5, lr}
 800906a:	4d07      	ldr	r5, [pc, #28]	@ (8009088 <_lseek_r+0x20>)
 800906c:	4604      	mov	r4, r0
 800906e:	4608      	mov	r0, r1
 8009070:	4611      	mov	r1, r2
 8009072:	2200      	movs	r2, #0
 8009074:	602a      	str	r2, [r5, #0]
 8009076:	461a      	mov	r2, r3
 8009078:	f7fb f9b2 	bl	80043e0 <_lseek>
 800907c:	1c43      	adds	r3, r0, #1
 800907e:	d102      	bne.n	8009086 <_lseek_r+0x1e>
 8009080:	682b      	ldr	r3, [r5, #0]
 8009082:	b103      	cbz	r3, 8009086 <_lseek_r+0x1e>
 8009084:	6023      	str	r3, [r4, #0]
 8009086:	bd38      	pop	{r3, r4, r5, pc}
 8009088:	200008c4 	.word	0x200008c4

0800908c <_read_r>:
 800908c:	b538      	push	{r3, r4, r5, lr}
 800908e:	4d07      	ldr	r5, [pc, #28]	@ (80090ac <_read_r+0x20>)
 8009090:	4604      	mov	r4, r0
 8009092:	4608      	mov	r0, r1
 8009094:	4611      	mov	r1, r2
 8009096:	2200      	movs	r2, #0
 8009098:	602a      	str	r2, [r5, #0]
 800909a:	461a      	mov	r2, r3
 800909c:	f7fb f97a 	bl	8004394 <_read>
 80090a0:	1c43      	adds	r3, r0, #1
 80090a2:	d102      	bne.n	80090aa <_read_r+0x1e>
 80090a4:	682b      	ldr	r3, [r5, #0]
 80090a6:	b103      	cbz	r3, 80090aa <_read_r+0x1e>
 80090a8:	6023      	str	r3, [r4, #0]
 80090aa:	bd38      	pop	{r3, r4, r5, pc}
 80090ac:	200008c4 	.word	0x200008c4

080090b0 <_sbrk_r>:
 80090b0:	b538      	push	{r3, r4, r5, lr}
 80090b2:	4d06      	ldr	r5, [pc, #24]	@ (80090cc <_sbrk_r+0x1c>)
 80090b4:	2300      	movs	r3, #0
 80090b6:	4604      	mov	r4, r0
 80090b8:	4608      	mov	r0, r1
 80090ba:	602b      	str	r3, [r5, #0]
 80090bc:	f7fb f992 	bl	80043e4 <_sbrk>
 80090c0:	1c43      	adds	r3, r0, #1
 80090c2:	d102      	bne.n	80090ca <_sbrk_r+0x1a>
 80090c4:	682b      	ldr	r3, [r5, #0]
 80090c6:	b103      	cbz	r3, 80090ca <_sbrk_r+0x1a>
 80090c8:	6023      	str	r3, [r4, #0]
 80090ca:	bd38      	pop	{r3, r4, r5, pc}
 80090cc:	200008c4 	.word	0x200008c4

080090d0 <_write_r>:
 80090d0:	b538      	push	{r3, r4, r5, lr}
 80090d2:	4d07      	ldr	r5, [pc, #28]	@ (80090f0 <_write_r+0x20>)
 80090d4:	4604      	mov	r4, r0
 80090d6:	4608      	mov	r0, r1
 80090d8:	4611      	mov	r1, r2
 80090da:	2200      	movs	r2, #0
 80090dc:	602a      	str	r2, [r5, #0]
 80090de:	461a      	mov	r2, r3
 80090e0:	f7fb f966 	bl	80043b0 <_write>
 80090e4:	1c43      	adds	r3, r0, #1
 80090e6:	d102      	bne.n	80090ee <_write_r+0x1e>
 80090e8:	682b      	ldr	r3, [r5, #0]
 80090ea:	b103      	cbz	r3, 80090ee <_write_r+0x1e>
 80090ec:	6023      	str	r3, [r4, #0]
 80090ee:	bd38      	pop	{r3, r4, r5, pc}
 80090f0:	200008c4 	.word	0x200008c4

080090f4 <_close_r>:
 80090f4:	b538      	push	{r3, r4, r5, lr}
 80090f6:	4d06      	ldr	r5, [pc, #24]	@ (8009110 <_close_r+0x1c>)
 80090f8:	2300      	movs	r3, #0
 80090fa:	4604      	mov	r4, r0
 80090fc:	4608      	mov	r0, r1
 80090fe:	602b      	str	r3, [r5, #0]
 8009100:	f7fb f964 	bl	80043cc <_close>
 8009104:	1c43      	adds	r3, r0, #1
 8009106:	d102      	bne.n	800910e <_close_r+0x1a>
 8009108:	682b      	ldr	r3, [r5, #0]
 800910a:	b103      	cbz	r3, 800910e <_close_r+0x1a>
 800910c:	6023      	str	r3, [r4, #0]
 800910e:	bd38      	pop	{r3, r4, r5, pc}
 8009110:	200008c4 	.word	0x200008c4

08009114 <__assert_func>:
 8009114:	b51f      	push	{r0, r1, r2, r3, r4, lr}
 8009116:	4614      	mov	r4, r2
 8009118:	461a      	mov	r2, r3
 800911a:	4b09      	ldr	r3, [pc, #36]	@ (8009140 <__assert_func+0x2c>)
 800911c:	681b      	ldr	r3, [r3, #0]
 800911e:	4605      	mov	r5, r0
 8009120:	68d8      	ldr	r0, [r3, #12]
 8009122:	b14c      	cbz	r4, 8009138 <__assert_func+0x24>
 8009124:	4b07      	ldr	r3, [pc, #28]	@ (8009144 <__assert_func+0x30>)
 8009126:	9100      	str	r1, [sp, #0]
 8009128:	e9cd 3401 	strd	r3, r4, [sp, #4]
 800912c:	4906      	ldr	r1, [pc, #24]	@ (8009148 <__assert_func+0x34>)
 800912e:	462b      	mov	r3, r5
 8009130:	f000 f874 	bl	800921c <fiprintf>
 8009134:	f000 f884 	bl	8009240 <abort>
 8009138:	4b04      	ldr	r3, [pc, #16]	@ (800914c <__assert_func+0x38>)
 800913a:	461c      	mov	r4, r3
 800913c:	e7f3      	b.n	8009126 <__assert_func+0x12>
 800913e:	bf00      	nop
 8009140:	20000190 	.word	0x20000190
 8009144:	0800a4dd 	.word	0x0800a4dd
 8009148:	0800a4ea 	.word	0x0800a4ea
 800914c:	0800a518 	.word	0x0800a518

08009150 <_calloc_r>:
 8009150:	b570      	push	{r4, r5, r6, lr}
 8009152:	fba1 5402 	umull	r5, r4, r1, r2
 8009156:	b934      	cbnz	r4, 8009166 <_calloc_r+0x16>
 8009158:	4629      	mov	r1, r5
 800915a:	f7ff f933 	bl	80083c4 <_malloc_r>
 800915e:	4606      	mov	r6, r0
 8009160:	b928      	cbnz	r0, 800916e <_calloc_r+0x1e>
 8009162:	4630      	mov	r0, r6
 8009164:	bd70      	pop	{r4, r5, r6, pc}
 8009166:	220c      	movs	r2, #12
 8009168:	6002      	str	r2, [r0, #0]
 800916a:	2600      	movs	r6, #0
 800916c:	e7f9      	b.n	8009162 <_calloc_r+0x12>
 800916e:	462a      	mov	r2, r5
 8009170:	4621      	mov	r1, r4
 8009172:	f7fe fd4b 	bl	8007c0c <memset>
 8009176:	e7f4      	b.n	8009162 <_calloc_r+0x12>

08009178 <_free_r>:
 8009178:	b538      	push	{r3, r4, r5, lr}
 800917a:	4605      	mov	r5, r0
 800917c:	2900      	cmp	r1, #0
 800917e:	d041      	beq.n	8009204 <_free_r+0x8c>
 8009180:	f851 3c04 	ldr.w	r3, [r1, #-4]
 8009184:	1f0c      	subs	r4, r1, #4
 8009186:	2b00      	cmp	r3, #0
 8009188:	bfb8      	it	lt
 800918a:	18e4      	addlt	r4, r4, r3
 800918c:	f7ff fa56 	bl	800863c <__malloc_lock>
 8009190:	4a1d      	ldr	r2, [pc, #116]	@ (8009208 <_free_r+0x90>)
 8009192:	6813      	ldr	r3, [r2, #0]
 8009194:	b933      	cbnz	r3, 80091a4 <_free_r+0x2c>
 8009196:	6063      	str	r3, [r4, #4]
 8009198:	6014      	str	r4, [r2, #0]
 800919a:	4628      	mov	r0, r5
 800919c:	e8bd 4038 	ldmia.w	sp!, {r3, r4, r5, lr}
 80091a0:	f7ff ba52 	b.w	8008648 <__malloc_unlock>
 80091a4:	42a3      	cmp	r3, r4
 80091a6:	d908      	bls.n	80091ba <_free_r+0x42>
 80091a8:	6820      	ldr	r0, [r4, #0]
 80091aa:	1821      	adds	r1, r4, r0
 80091ac:	428b      	cmp	r3, r1
 80091ae:	bf01      	itttt	eq
 80091b0:	6819      	ldreq	r1, [r3, #0]
 80091b2:	685b      	ldreq	r3, [r3, #4]
 80091b4:	1809      	addeq	r1, r1, r0
 80091b6:	6021      	streq	r1, [r4, #0]
 80091b8:	e7ed      	b.n	8009196 <_free_r+0x1e>
 80091ba:	461a      	mov	r2, r3
 80091bc:	685b      	ldr	r3, [r3, #4]
 80091be:	b10b      	cbz	r3, 80091c4 <_free_r+0x4c>
 80091c0:	42a3      	cmp	r3, r4
 80091c2:	d9fa      	bls.n	80091ba <_free_r+0x42>
 80091c4:	6811      	ldr	r1, [r2, #0]
 80091c6:	1850      	adds	r0, r2, r1
 80091c8:	42a0      	cmp	r0, r4
 80091ca:	d10b      	bne.n	80091e4 <_free_r+0x6c>
 80091cc:	6820      	ldr	r0, [r4, #0]
 80091ce:	4401      	add	r1, r0
 80091d0:	1850      	adds	r0, r2, r1
 80091d2:	4283      	cmp	r3, r0
 80091d4:	6011      	str	r1, [r2, #0]
 80091d6:	d1e0      	bne.n	800919a <_free_r+0x22>
 80091d8:	6818      	ldr	r0, [r3, #0]
 80091da:	685b      	ldr	r3, [r3, #4]
 80091dc:	6053      	str	r3, [r2, #4]
 80091de:	4408      	add	r0, r1
 80091e0:	6010      	str	r0, [r2, #0]
 80091e2:	e7da      	b.n	800919a <_free_r+0x22>
 80091e4:	d902      	bls.n	80091ec <_free_r+0x74>
 80091e6:	230c      	movs	r3, #12
 80091e8:	602b      	str	r3, [r5, #0]
 80091ea:	e7d6      	b.n	800919a <_free_r+0x22>
 80091ec:	6820      	ldr	r0, [r4, #0]
 80091ee:	1821      	adds	r1, r4, r0
 80091f0:	428b      	cmp	r3, r1
 80091f2:	bf04      	itt	eq
 80091f4:	6819      	ldreq	r1, [r3, #0]
 80091f6:	685b      	ldreq	r3, [r3, #4]
 80091f8:	6063      	str	r3, [r4, #4]
 80091fa:	bf04      	itt	eq
 80091fc:	1809      	addeq	r1, r1, r0
 80091fe:	6021      	streq	r1, [r4, #0]
 8009200:	6054      	str	r4, [r2, #4]
 8009202:	e7ca      	b.n	800919a <_free_r+0x22>
 8009204:	bd38      	pop	{r3, r4, r5, pc}
 8009206:	bf00      	nop
 8009208:	200008c0 	.word	0x200008c0

0800920c <malloc>:
 800920c:	4b02      	ldr	r3, [pc, #8]	@ (8009218 <malloc+0xc>)
 800920e:	4601      	mov	r1, r0
 8009210:	6818      	ldr	r0, [r3, #0]
 8009212:	f7ff b8d7 	b.w	80083c4 <_malloc_r>
 8009216:	bf00      	nop
 8009218:	20000190 	.word	0x20000190

0800921c <fiprintf>:
 800921c:	b40e      	push	{r1, r2, r3}
 800921e:	b503      	push	{r0, r1, lr}
 8009220:	4601      	mov	r1, r0
 8009222:	ab03      	add	r3, sp, #12
 8009224:	4805      	ldr	r0, [pc, #20]	@ (800923c <fiprintf+0x20>)
 8009226:	f853 2b04 	ldr.w	r2, [r3], #4
 800922a:	6800      	ldr	r0, [r0, #0]
 800922c:	9301      	str	r3, [sp, #4]
 800922e:	f000 f837 	bl	80092a0 <_vfiprintf_r>
 8009232:	b002      	add	sp, #8
 8009234:	f85d eb04 	ldr.w	lr, [sp], #4
 8009238:	b003      	add	sp, #12
 800923a:	4770      	bx	lr
 800923c:	20000190 	.word	0x20000190

08009240 <abort>:
 8009240:	b508      	push	{r3, lr}
 8009242:	2006      	movs	r0, #6
 8009244:	f000 fbec 	bl	8009a20 <raise>
 8009248:	2001      	movs	r0, #1
 800924a:	f7fb f89d 	bl	8004388 <_exit>

0800924e <__sfputc_r>:
 800924e:	6893      	ldr	r3, [r2, #8]
 8009250:	3b01      	subs	r3, #1
 8009252:	2b00      	cmp	r3, #0
 8009254:	b410      	push	{r4}
 8009256:	6093      	str	r3, [r2, #8]
 8009258:	da08      	bge.n	800926c <__sfputc_r+0x1e>
 800925a:	6994      	ldr	r4, [r2, #24]
 800925c:	42a3      	cmp	r3, r4
 800925e:	db01      	blt.n	8009264 <__sfputc_r+0x16>
 8009260:	290a      	cmp	r1, #10
 8009262:	d103      	bne.n	800926c <__sfputc_r+0x1e>
 8009264:	f85d 4b04 	ldr.w	r4, [sp], #4
 8009268:	f000 bac2 	b.w	80097f0 <__swbuf_r>
 800926c:	6813      	ldr	r3, [r2, #0]
 800926e:	1c58      	adds	r0, r3, #1
 8009270:	6010      	str	r0, [r2, #0]
 8009272:	7019      	strb	r1, [r3, #0]
 8009274:	4608      	mov	r0, r1
 8009276:	f85d 4b04 	ldr.w	r4, [sp], #4
 800927a:	4770      	bx	lr

0800927c <__sfputs_r>:
 800927c:	b5f8      	push	{r3, r4, r5, r6, r7, lr}
 800927e:	4606      	mov	r6, r0
 8009280:	460f      	mov	r7, r1
 8009282:	4614      	mov	r4, r2
 8009284:	18d5      	adds	r5, r2, r3
 8009286:	42ac      	cmp	r4, r5
 8009288:	d101      	bne.n	800928e <__sfputs_r+0x12>
 800928a:	2000      	movs	r0, #0
 800928c:	e007      	b.n	800929e <__sfputs_r+0x22>
 800928e:	f814 1b01 	ldrb.w	r1, [r4], #1
 8009292:	463a      	mov	r2, r7
 8009294:	4630      	mov	r0, r6
 8009296:	f7ff ffda 	bl	800924e <__sfputc_r>
 800929a:	1c43      	adds	r3, r0, #1
 800929c:	d1f3      	bne.n	8009286 <__sfputs_r+0xa>
 800929e:	bdf8      	pop	{r3, r4, r5, r6, r7, pc}

080092a0 <_vfiprintf_r>:
 80092a0:	e92d 47f0 	stmdb	sp!, {r4, r5, r6, r7, r8, r9, sl, lr}
 80092a4:	460d      	mov	r5, r1
 80092a6:	b09c      	sub	sp, #112	@ 0x70
 80092a8:	4614      	mov	r4, r2
 80092aa:	461f      	mov	r7, r3
 80092ac:	4606      	mov	r6, r0
 80092ae:	b118      	cbz	r0, 80092b8 <_vfiprintf_r+0x18>
 80092b0:	6a03      	ldr	r3, [r0, #32]
 80092b2:	b90b      	cbnz	r3, 80092b8 <_vfiprintf_r+0x18>
 80092b4:	f7fd fdea 	bl	8006e8c <__sinit>
 80092b8:	6e6b      	ldr	r3, [r5, #100]	@ 0x64
 80092ba:	07d9      	lsls	r1, r3, #31
 80092bc:	d405      	bmi.n	80092ca <_vfiprintf_r+0x2a>
 80092be:	89ab      	ldrh	r3, [r5, #12]
 80092c0:	059a      	lsls	r2, r3, #22
 80092c2:	d402      	bmi.n	80092ca <_vfiprintf_r+0x2a>
 80092c4:	6da8      	ldr	r0, [r5, #88]	@ 0x58
 80092c6:	f7fe fd06 	bl	8007cd6 <__retarget_lock_acquire_recursive>
 80092ca:	89ab      	ldrh	r3, [r5, #12]
 80092cc:	071b      	lsls	r3, r3, #28
 80092ce:	d501      	bpl.n	80092d4 <_vfiprintf_r+0x34>
 80092d0:	692b      	ldr	r3, [r5, #16]
 80092d2:	b99b      	cbnz	r3, 80092fc <_vfiprintf_r+0x5c>
 80092d4:	4629      	mov	r1, r5
 80092d6:	4630      	mov	r0, r6
 80092d8:	f000 fac8 	bl	800986c <__swsetup_r>
 80092dc:	b170      	cbz	r0, 80092fc <_vfiprintf_r+0x5c>
 80092de:	6e6b      	ldr	r3, [r5, #100]	@ 0x64
 80092e0:	07dc      	lsls	r4, r3, #31
 80092e2:	d504      	bpl.n	80092ee <_vfiprintf_r+0x4e>
 80092e4:	f04f 30ff 	mov.w	r0, #4294967295	@ 0xffffffff
 80092e8:	b01c      	add	sp, #112	@ 0x70
 80092ea:	e8bd 87f0 	ldmia.w	sp!, {r4, r5, r6, r7, r8, r9, sl, pc}
 80092ee:	89ab      	ldrh	r3, [r5, #12]
 80092f0:	0598      	lsls	r0, r3, #22
 80092f2:	d4f7      	bmi.n	80092e4 <_vfiprintf_r+0x44>
 80092f4:	6da8      	ldr	r0, [r5, #88]	@ 0x58
 80092f6:	f7fe fcef 	bl	8007cd8 <__retarget_lock_release_recursive>
 80092fa:	e7f3      	b.n	80092e4 <_vfiprintf_r+0x44>
 80092fc:	2300      	movs	r3, #0
 80092fe:	9309      	str	r3, [sp, #36]	@ 0x24
 8009300:	2320      	movs	r3, #32
 8009302:	f88d 3029 	strb.w	r3, [sp, #41]	@ 0x29
 8009306:	9703      	str	r7, [sp, #12]
 8009308:	2330      	movs	r3, #48	@ 0x30
 800930a:	4f6a      	ldr	r7, [pc, #424]	@ (80094b4 <_vfiprintf_r+0x214>)
 800930c:	f88d 302a 	strb.w	r3, [sp, #42]	@ 0x2a
 8009310:	f04f 0801 	mov.w	r8, #1
 8009314:	4623      	mov	r3, r4
 8009316:	4699      	mov	r9, r3
 8009318:	f813 2b01 	ldrb.w	r2, [r3], #1
 800931c:	b10a      	cbz	r2, 8009322 <_vfiprintf_r+0x82>
 800931e:	2a25      	cmp	r2, #37	@ 0x25
 8009320:	d1f9      	bne.n	8009316 <_vfiprintf_r+0x76>
 8009322:	ebb9 0a04 	subs.w	sl, r9, r4
 8009326:	d00b      	beq.n	8009340 <_vfiprintf_r+0xa0>
 8009328:	4653      	mov	r3, sl
 800932a:	4622      	mov	r2, r4
 800932c:	4629      	mov	r1, r5
 800932e:	4630      	mov	r0, r6
 8009330:	f7ff ffa4 	bl	800927c <__sfputs_r>
 8009334:	3001      	adds	r0, #1
 8009336:	f000 80a4 	beq.w	8009482 <_vfiprintf_r+0x1e2>
 800933a:	9a09      	ldr	r2, [sp, #36]	@ 0x24
 800933c:	4452      	add	r2, sl
 800933e:	9209      	str	r2, [sp, #36]	@ 0x24
 8009340:	f899 3000 	ldrb.w	r3, [r9]
 8009344:	2b00      	cmp	r3, #0
 8009346:	f000 809c 	beq.w	8009482 <_vfiprintf_r+0x1e2>
 800934a:	2300      	movs	r3, #0
 800934c:	f04f 32ff 	mov.w	r2, #4294967295	@ 0xffffffff
 8009350:	e9cd 2305 	strd	r2, r3, [sp, #20]
 8009354:	f109 0901 	add.w	r9, r9, #1
 8009358:	9304      	str	r3, [sp, #16]
 800935a:	9307      	str	r3, [sp, #28]
 800935c:	f88d 3053 	strb.w	r3, [sp, #83]	@ 0x53
 8009360:	931a      	str	r3, [sp, #104]	@ 0x68
 8009362:	464c      	mov	r4, r9
 8009364:	4853      	ldr	r0, [pc, #332]	@ (80094b4 <_vfiprintf_r+0x214>)
 8009366:	f814 1b01 	ldrb.w	r1, [r4], #1
 800936a:	2205      	movs	r2, #5
 800936c:	f7f6 ff60 	bl	8000230 <memchr>
 8009370:	9b04      	ldr	r3, [sp, #16]
 8009372:	b9d0      	cbnz	r0, 80093aa <_vfiprintf_r+0x10a>
 8009374:	06d9      	lsls	r1, r3, #27
 8009376:	bf44      	itt	mi
 8009378:	2220      	movmi	r2, #32
 800937a:	f88d 2053 	strbmi.w	r2, [sp, #83]	@ 0x53
 800937e:	071a      	lsls	r2, r3, #28
 8009380:	bf44      	itt	mi
 8009382:	222b      	movmi	r2, #43	@ 0x2b
 8009384:	f88d 2053 	strbmi.w	r2, [sp, #83]	@ 0x53
 8009388:	f899 2000 	ldrb.w	r2, [r9]
 800938c:	2a2a      	cmp	r2, #42	@ 0x2a
 800938e:	d013      	beq.n	80093b8 <_vfiprintf_r+0x118>
 8009390:	9a07      	ldr	r2, [sp, #28]
 8009392:	464c      	mov	r4, r9
 8009394:	2000      	movs	r0, #0
 8009396:	f04f 0c0a 	mov.w	ip, #10
 800939a:	4621      	mov	r1, r4
 800939c:	f811 3b01 	ldrb.w	r3, [r1], #1
 80093a0:	3b30      	subs	r3, #48	@ 0x30
 80093a2:	2b09      	cmp	r3, #9
 80093a4:	d949      	bls.n	800943a <_vfiprintf_r+0x19a>
 80093a6:	b968      	cbnz	r0, 80093c4 <_vfiprintf_r+0x124>
 80093a8:	e013      	b.n	80093d2 <_vfiprintf_r+0x132>
 80093aa:	1bc0      	subs	r0, r0, r7
 80093ac:	fa08 f000 	lsl.w	r0, r8, r0
 80093b0:	4318      	orrs	r0, r3
 80093b2:	9004      	str	r0, [sp, #16]
 80093b4:	46a1      	mov	r9, r4
 80093b6:	e7d4      	b.n	8009362 <_vfiprintf_r+0xc2>
 80093b8:	9a03      	ldr	r2, [sp, #12]
 80093ba:	1d11      	adds	r1, r2, #4
 80093bc:	6812      	ldr	r2, [r2, #0]
 80093be:	9103      	str	r1, [sp, #12]
 80093c0:	2a00      	cmp	r2, #0
 80093c2:	db01      	blt.n	80093c8 <_vfiprintf_r+0x128>
 80093c4:	9207      	str	r2, [sp, #28]
 80093c6:	e004      	b.n	80093d2 <_vfiprintf_r+0x132>
 80093c8:	4252      	negs	r2, r2
 80093ca:	f043 0302 	orr.w	r3, r3, #2
 80093ce:	9207      	str	r2, [sp, #28]
 80093d0:	9304      	str	r3, [sp, #16]
 80093d2:	7823      	ldrb	r3, [r4, #0]
 80093d4:	2b2e      	cmp	r3, #46	@ 0x2e
 80093d6:	d10a      	bne.n	80093ee <_vfiprintf_r+0x14e>
 80093d8:	7863      	ldrb	r3, [r4, #1]
 80093da:	2b2a      	cmp	r3, #42	@ 0x2a
 80093dc:	d132      	bne.n	8009444 <_vfiprintf_r+0x1a4>
 80093de:	9b03      	ldr	r3, [sp, #12]
 80093e0:	1d1a      	adds	r2, r3, #4
 80093e2:	681b      	ldr	r3, [r3, #0]
 80093e4:	9203      	str	r2, [sp, #12]
 80093e6:	ea43 73e3 	orr.w	r3, r3, r3, asr #31
 80093ea:	3402      	adds	r4, #2
 80093ec:	9305      	str	r3, [sp, #20]
 80093ee:	f8df 90d4 	ldr.w	r9, [pc, #212]	@ 80094c4 <_vfiprintf_r+0x224>
 80093f2:	7821      	ldrb	r1, [r4, #0]
 80093f4:	2203      	movs	r2, #3
 80093f6:	4648      	mov	r0, r9
 80093f8:	f7f6 ff1a 	bl	8000230 <memchr>
 80093fc:	b138      	cbz	r0, 800940e <_vfiprintf_r+0x16e>
 80093fe:	9b04      	ldr	r3, [sp, #16]
 8009400:	eba0 0009 	sub.w	r0, r0, r9
 8009404:	2240      	movs	r2, #64	@ 0x40
 8009406:	4082      	lsls	r2, r0
 8009408:	4313      	orrs	r3, r2
 800940a:	3401      	adds	r4, #1
 800940c:	9304      	str	r3, [sp, #16]
 800940e:	f814 1b01 	ldrb.w	r1, [r4], #1
 8009412:	4829      	ldr	r0, [pc, #164]	@ (80094b8 <_vfiprintf_r+0x218>)
 8009414:	f88d 1028 	strb.w	r1, [sp, #40]	@ 0x28
 8009418:	2206      	movs	r2, #6
 800941a:	f7f6 ff09 	bl	8000230 <memchr>
 800941e:	2800      	cmp	r0, #0
 8009420:	d03e      	beq.n	80094a0 <_vfiprintf_r+0x200>
 8009422:	4826      	ldr	r0, [pc, #152]	@ (80094bc <_vfiprintf_r+0x21c>)
 8009424:	bb18      	cbnz	r0, 800946e <_vfiprintf_r+0x1ce>
 8009426:	9b03      	ldr	r3, [sp, #12]
 8009428:	3307      	adds	r3, #7
 800942a:	f023 0307 	bic.w	r3, r3, #7
 800942e:	3308      	adds	r3, #8
 8009430:	9303      	str	r3, [sp, #12]
 8009432:	9b09      	ldr	r3, [sp, #36]	@ 0x24
 8009434:	4403      	add	r3, r0
 8009436:	9309      	str	r3, [sp, #36]	@ 0x24
 8009438:	e76c      	b.n	8009314 <_vfiprintf_r+0x74>
 800943a:	fb0c 3202 	mla	r2, ip, r2, r3
 800943e:	460c      	mov	r4, r1
 8009440:	2001      	movs	r0, #1
 8009442:	e7aa      	b.n	800939a <_vfiprintf_r+0xfa>
 8009444:	2300      	movs	r3, #0
 8009446:	3401      	adds	r4, #1
 8009448:	9305      	str	r3, [sp, #20]
 800944a:	4619      	mov	r1, r3
 800944c:	f04f 0c0a 	mov.w	ip, #10
 8009450:	4620      	mov	r0, r4
 8009452:	f810 2b01 	ldrb.w	r2, [r0], #1
 8009456:	3a30      	subs	r2, #48	@ 0x30
 8009458:	2a09      	cmp	r2, #9
 800945a:	d903      	bls.n	8009464 <_vfiprintf_r+0x1c4>
 800945c:	2b00      	cmp	r3, #0
 800945e:	d0c6      	beq.n	80093ee <_vfiprintf_r+0x14e>
 8009460:	9105      	str	r1, [sp, #20]
 8009462:	e7c4      	b.n	80093ee <_vfiprintf_r+0x14e>
 8009464:	fb0c 2101 	mla	r1, ip, r1, r2
 8009468:	4604      	mov	r4, r0
 800946a:	2301      	movs	r3, #1
 800946c:	e7f0      	b.n	8009450 <_vfiprintf_r+0x1b0>
 800946e:	ab03      	add	r3, sp, #12
 8009470:	9300      	str	r3, [sp, #0]
 8009472:	462a      	mov	r2, r5
 8009474:	4b12      	ldr	r3, [pc, #72]	@ (80094c0 <_vfiprintf_r+0x220>)
 8009476:	a904      	add	r1, sp, #16
 8009478:	4630      	mov	r0, r6
 800947a:	f3af 8000 	nop.w
 800947e:	1c43      	adds	r3, r0, #1
 8009480:	d1d7      	bne.n	8009432 <_vfiprintf_r+0x192>
 8009482:	6e6b      	ldr	r3, [r5, #100]	@ 0x64
 8009484:	07d9      	lsls	r1, r3, #31
 8009486:	d405      	bmi.n	8009494 <_vfiprintf_r+0x1f4>
 8009488:	89ab      	ldrh	r3, [r5, #12]
 800948a:	059a      	lsls	r2, r3, #22
 800948c:	d402      	bmi.n	8009494 <_vfiprintf_r+0x1f4>
 800948e:	6da8      	ldr	r0, [r5, #88]	@ 0x58
 8009490:	f7fe fc22 	bl	8007cd8 <__retarget_lock_release_recursive>
 8009494:	89ab      	ldrh	r3, [r5, #12]
 8009496:	065b      	lsls	r3, r3, #25
 8009498:	f53f af24 	bmi.w	80092e4 <_vfiprintf_r+0x44>
 800949c:	9809      	ldr	r0, [sp, #36]	@ 0x24
 800949e:	e723      	b.n	80092e8 <_vfiprintf_r+0x48>
 80094a0:	ab03      	add	r3, sp, #12
 80094a2:	9300      	str	r3, [sp, #0]
 80094a4:	462a      	mov	r2, r5
 80094a6:	4b06      	ldr	r3, [pc, #24]	@ (80094c0 <_vfiprintf_r+0x220>)
 80094a8:	a904      	add	r1, sp, #16
 80094aa:	4630      	mov	r0, r6
 80094ac:	f000 f87a 	bl	80095a4 <_printf_i>
 80094b0:	e7e5      	b.n	800947e <_vfiprintf_r+0x1de>
 80094b2:	bf00      	nop
 80094b4:	0800a519 	.word	0x0800a519
 80094b8:	0800a523 	.word	0x0800a523
 80094bc:	00000000 	.word	0x00000000
 80094c0:	0800927d 	.word	0x0800927d
 80094c4:	0800a51f 	.word	0x0800a51f

080094c8 <_printf_common>:
 80094c8:	e92d 47f0 	stmdb	sp!, {r4, r5, r6, r7, r8, r9, sl, lr}
 80094cc:	4616      	mov	r6, r2
 80094ce:	4698      	mov	r8, r3
 80094d0:	688a      	ldr	r2, [r1, #8]
 80094d2:	690b      	ldr	r3, [r1, #16]
 80094d4:	f8dd 9020 	ldr.w	r9, [sp, #32]
 80094d8:	4293      	cmp	r3, r2
 80094da:	bfb8      	it	lt
 80094dc:	4613      	movlt	r3, r2
 80094de:	6033      	str	r3, [r6, #0]
 80094e0:	f891 2043 	ldrb.w	r2, [r1, #67]	@ 0x43
 80094e4:	4607      	mov	r7, r0
 80094e6:	460c      	mov	r4, r1
 80094e8:	b10a      	cbz	r2, 80094ee <_printf_common+0x26>
 80094ea:	3301      	adds	r3, #1
 80094ec:	6033      	str	r3, [r6, #0]
 80094ee:	6823      	ldr	r3, [r4, #0]
 80094f0:	0699      	lsls	r1, r3, #26
 80094f2:	bf42      	ittt	mi
 80094f4:	6833      	ldrmi	r3, [r6, #0]
 80094f6:	3302      	addmi	r3, #2
 80094f8:	6033      	strmi	r3, [r6, #0]
 80094fa:	6825      	ldr	r5, [r4, #0]
 80094fc:	f015 0506 	ands.w	r5, r5, #6
 8009500:	d106      	bne.n	8009510 <_printf_common+0x48>
 8009502:	f104 0a19 	add.w	sl, r4, #25
 8009506:	68e3      	ldr	r3, [r4, #12]
 8009508:	6832      	ldr	r2, [r6, #0]
 800950a:	1a9b      	subs	r3, r3, r2
 800950c:	42ab      	cmp	r3, r5
 800950e:	dc26      	bgt.n	800955e <_printf_common+0x96>
 8009510:	f894 3043 	ldrb.w	r3, [r4, #67]	@ 0x43
 8009514:	6822      	ldr	r2, [r4, #0]
 8009516:	3b00      	subs	r3, #0
 8009518:	bf18      	it	ne
 800951a:	2301      	movne	r3, #1
 800951c:	0692      	lsls	r2, r2, #26
 800951e:	d42b      	bmi.n	8009578 <_printf_common+0xb0>
 8009520:	f104 0243 	add.w	r2, r4, #67	@ 0x43
 8009524:	4641      	mov	r1, r8
 8009526:	4638      	mov	r0, r7
 8009528:	47c8      	blx	r9
 800952a:	3001      	adds	r0, #1
 800952c:	d01e      	beq.n	800956c <_printf_common+0xa4>
 800952e:	6823      	ldr	r3, [r4, #0]
 8009530:	6922      	ldr	r2, [r4, #16]
 8009532:	f003 0306 	and.w	r3, r3, #6
 8009536:	2b04      	cmp	r3, #4
 8009538:	bf02      	ittt	eq
 800953a:	68e5      	ldreq	r5, [r4, #12]
 800953c:	6833      	ldreq	r3, [r6, #0]
 800953e:	1aed      	subeq	r5, r5, r3
 8009540:	68a3      	ldr	r3, [r4, #8]
 8009542:	bf0c      	ite	eq
 8009544:	ea25 75e5 	biceq.w	r5, r5, r5, asr #31
 8009548:	2500      	movne	r5, #0
 800954a:	4293      	cmp	r3, r2
 800954c:	bfc4      	itt	gt
 800954e:	1a9b      	subgt	r3, r3, r2
 8009550:	18ed      	addgt	r5, r5, r3
 8009552:	2600      	movs	r6, #0
 8009554:	341a      	adds	r4, #26
 8009556:	42b5      	cmp	r5, r6
 8009558:	d11a      	bne.n	8009590 <_printf_common+0xc8>
 800955a:	2000      	movs	r0, #0
 800955c:	e008      	b.n	8009570 <_printf_common+0xa8>
 800955e:	2301      	movs	r3, #1
 8009560:	4652      	mov	r2, sl
 8009562:	4641      	mov	r1, r8
 8009564:	4638      	mov	r0, r7
 8009566:	47c8      	blx	r9
 8009568:	3001      	adds	r0, #1
 800956a:	d103      	bne.n	8009574 <_printf_common+0xac>
 800956c:	f04f 30ff 	mov.w	r0, #4294967295	@ 0xffffffff
 8009570:	e8bd 87f0 	ldmia.w	sp!, {r4, r5, r6, r7, r8, r9, sl, pc}
 8009574:	3501      	adds	r5, #1
 8009576:	e7c6      	b.n	8009506 <_printf_common+0x3e>
 8009578:	18e1      	adds	r1, r4, r3
 800957a:	1c5a      	adds	r2, r3, #1
 800957c:	2030      	movs	r0, #48	@ 0x30
 800957e:	f881 0043 	strb.w	r0, [r1, #67]	@ 0x43
 8009582:	4422      	add	r2, r4
 8009584:	f894 1045 	ldrb.w	r1, [r4, #69]	@ 0x45
 8009588:	f882 1043 	strb.w	r1, [r2, #67]	@ 0x43
 800958c:	3302      	adds	r3, #2
 800958e:	e7c7      	b.n	8009520 <_printf_common+0x58>
 8009590:	2301      	movs	r3, #1
 8009592:	4622      	mov	r2, r4
 8009594:	4641      	mov	r1, r8
 8009596:	4638      	mov	r0, r7
 8009598:	47c8      	blx	r9
 800959a:	3001      	adds	r0, #1
 800959c:	d0e6      	beq.n	800956c <_printf_common+0xa4>
 800959e:	3601      	adds	r6, #1
 80095a0:	e7d9      	b.n	8009556 <_printf_common+0x8e>
	...

080095a4 <_printf_i>:
 80095a4:	e92d 43f0 	stmdb	sp!, {r4, r5, r6, r7, r8, r9, lr}
 80095a8:	7e0d      	ldrb	r5, [r1, #24]
 80095aa:	b085      	sub	sp, #20
 80095ac:	2d78      	cmp	r5, #120	@ 0x78
 80095ae:	4690      	mov	r8, r2
 80095b0:	9e0c      	ldr	r6, [sp, #48]	@ 0x30
 80095b2:	4607      	mov	r7, r0
 80095b4:	460c      	mov	r4, r1
 80095b6:	4699      	mov	r9, r3
 80095b8:	f101 0243 	add.w	r2, r1, #67	@ 0x43
 80095bc:	d807      	bhi.n	80095ce <_printf_i+0x2a>
 80095be:	2d62      	cmp	r5, #98	@ 0x62
 80095c0:	d80a      	bhi.n	80095d8 <_printf_i+0x34>
 80095c2:	2d00      	cmp	r5, #0
 80095c4:	f000 80d7 	beq.w	8009776 <_printf_i+0x1d2>
 80095c8:	2d58      	cmp	r5, #88	@ 0x58
 80095ca:	f000 80bc 	beq.w	8009746 <_printf_i+0x1a2>
 80095ce:	f104 0642 	add.w	r6, r4, #66	@ 0x42
 80095d2:	f884 5042 	strb.w	r5, [r4, #66]	@ 0x42
 80095d6:	e03b      	b.n	8009650 <_printf_i+0xac>
 80095d8:	f1a5 0363 	sub.w	r3, r5, #99	@ 0x63
 80095dc:	2b15      	cmp	r3, #21
 80095de:	d8f6      	bhi.n	80095ce <_printf_i+0x2a>
 80095e0:	a101      	add	r1, pc, #4	@ (adr r1, 80095e8 <_printf_i+0x44>)
 80095e2:	f851 f023 	ldr.w	pc, [r1, r3, lsl #2]
 80095e6:	bf00      	nop
 80095e8:	08009641 	.word	0x08009641
 80095ec:	08009655 	.word	0x08009655
 80095f0:	080095cf 	.word	0x080095cf
 80095f4:	080095cf 	.word	0x080095cf
 80095f8:	080095cf 	.word	0x080095cf
 80095fc:	080095cf 	.word	0x080095cf
 8009600:	08009655 	.word	0x08009655
 8009604:	080095cf 	.word	0x080095cf
 8009608:	080095cf 	.word	0x080095cf
 800960c:	080095cf 	.word	0x080095cf
 8009610:	080095cf 	.word	0x080095cf
 8009614:	0800975d 	.word	0x0800975d
 8009618:	0800967f 	.word	0x0800967f
 800961c:	0800970f 	.word	0x0800970f
 8009620:	080095cf 	.word	0x080095cf
 8009624:	080095cf 	.word	0x080095cf
 8009628:	0800977f 	.word	0x0800977f
 800962c:	080095cf 	.word	0x080095cf
 8009630:	0800967f 	.word	0x0800967f
 8009634:	080095cf 	.word	0x080095cf
 8009638:	080095cf 	.word	0x080095cf
 800963c:	08009717 	.word	0x08009717
 8009640:	6833      	ldr	r3, [r6, #0]
 8009642:	1d1a      	adds	r2, r3, #4
 8009644:	681b      	ldr	r3, [r3, #0]
 8009646:	6032      	str	r2, [r6, #0]
 8009648:	f104 0642 	add.w	r6, r4, #66	@ 0x42
 800964c:	f884 3042 	strb.w	r3, [r4, #66]	@ 0x42
 8009650:	2301      	movs	r3, #1
 8009652:	e0a1      	b.n	8009798 <_printf_i+0x1f4>
 8009654:	6833      	ldr	r3, [r6, #0]
 8009656:	6820      	ldr	r0, [r4, #0]
 8009658:	1d19      	adds	r1, r3, #4
 800965a:	6031      	str	r1, [r6, #0]
 800965c:	0606      	lsls	r6, r0, #24
 800965e:	d501      	bpl.n	8009664 <_printf_i+0xc0>
 8009660:	681d      	ldr	r5, [r3, #0]
 8009662:	e003      	b.n	800966c <_printf_i+0xc8>
 8009664:	0645      	lsls	r5, r0, #25
 8009666:	d5fb      	bpl.n	8009660 <_printf_i+0xbc>
 8009668:	f9b3 5000 	ldrsh.w	r5, [r3]
 800966c:	2d00      	cmp	r5, #0
 800966e:	da03      	bge.n	8009678 <_printf_i+0xd4>
 8009670:	232d      	movs	r3, #45	@ 0x2d
 8009672:	426d      	negs	r5, r5
 8009674:	f884 3043 	strb.w	r3, [r4, #67]	@ 0x43
 8009678:	485b      	ldr	r0, [pc, #364]	@ (80097e8 <_printf_i+0x244>)
 800967a:	230a      	movs	r3, #10
 800967c:	e011      	b.n	80096a2 <_printf_i+0xfe>
 800967e:	6821      	ldr	r1, [r4, #0]
 8009680:	6833      	ldr	r3, [r6, #0]
 8009682:	0608      	lsls	r0, r1, #24
 8009684:	f853 5b04 	ldr.w	r5, [r3], #4
 8009688:	d402      	bmi.n	8009690 <_printf_i+0xec>
 800968a:	0649      	lsls	r1, r1, #25
 800968c:	bf48      	it	mi
 800968e:	b2ad      	uxthmi	r5, r5
 8009690:	6033      	str	r3, [r6, #0]
 8009692:	7e23      	ldrb	r3, [r4, #24]
 8009694:	4854      	ldr	r0, [pc, #336]	@ (80097e8 <_printf_i+0x244>)
 8009696:	2b6f      	cmp	r3, #111	@ 0x6f
 8009698:	d15c      	bne.n	8009754 <_printf_i+0x1b0>
 800969a:	2308      	movs	r3, #8
 800969c:	2100      	movs	r1, #0
 800969e:	f884 1043 	strb.w	r1, [r4, #67]	@ 0x43
 80096a2:	6866      	ldr	r6, [r4, #4]
 80096a4:	60a6      	str	r6, [r4, #8]
 80096a6:	2e00      	cmp	r6, #0
 80096a8:	db05      	blt.n	80096b6 <_printf_i+0x112>
 80096aa:	6821      	ldr	r1, [r4, #0]
 80096ac:	432e      	orrs	r6, r5
 80096ae:	f021 0104 	bic.w	r1, r1, #4
 80096b2:	6021      	str	r1, [r4, #0]
 80096b4:	d050      	beq.n	8009758 <_printf_i+0x1b4>
 80096b6:	4616      	mov	r6, r2
 80096b8:	fbb5 f1f3 	udiv	r1, r5, r3
 80096bc:	fb03 5c11 	mls	ip, r3, r1, r5
 80096c0:	f810 c00c 	ldrb.w	ip, [r0, ip]
 80096c4:	f806 cd01 	strb.w	ip, [r6, #-1]!
 80096c8:	46ac      	mov	ip, r5
 80096ca:	4563      	cmp	r3, ip
 80096cc:	460d      	mov	r5, r1
 80096ce:	d9f3      	bls.n	80096b8 <_printf_i+0x114>
 80096d0:	2b08      	cmp	r3, #8
 80096d2:	d10b      	bne.n	80096ec <_printf_i+0x148>
 80096d4:	6823      	ldr	r3, [r4, #0]
 80096d6:	07db      	lsls	r3, r3, #31
 80096d8:	d508      	bpl.n	80096ec <_printf_i+0x148>
 80096da:	6923      	ldr	r3, [r4, #16]
 80096dc:	6861      	ldr	r1, [r4, #4]
 80096de:	4299      	cmp	r1, r3
 80096e0:	bfde      	ittt	le
 80096e2:	2330      	movle	r3, #48	@ 0x30
 80096e4:	f806 3c01 	strble.w	r3, [r6, #-1]
 80096e8:	f106 36ff 	addle.w	r6, r6, #4294967295	@ 0xffffffff
 80096ec:	1b92      	subs	r2, r2, r6
 80096ee:	6122      	str	r2, [r4, #16]
 80096f0:	f8cd 9000 	str.w	r9, [sp]
 80096f4:	4643      	mov	r3, r8
 80096f6:	aa03      	add	r2, sp, #12
 80096f8:	4621      	mov	r1, r4
 80096fa:	4638      	mov	r0, r7
 80096fc:	f7ff fee4 	bl	80094c8 <_printf_common>
 8009700:	3001      	adds	r0, #1
 8009702:	d14e      	bne.n	80097a2 <_printf_i+0x1fe>
 8009704:	f04f 30ff 	mov.w	r0, #4294967295	@ 0xffffffff
 8009708:	b005      	add	sp, #20
 800970a:	e8bd 83f0 	ldmia.w	sp!, {r4, r5, r6, r7, r8, r9, pc}
 800970e:	6823      	ldr	r3, [r4, #0]
 8009710:	f043 0320 	orr.w	r3, r3, #32
 8009714:	6023      	str	r3, [r4, #0]
 8009716:	4835      	ldr	r0, [pc, #212]	@ (80097ec <_printf_i+0x248>)
 8009718:	2578      	movs	r5, #120	@ 0x78
 800971a:	f884 5045 	strb.w	r5, [r4, #69]	@ 0x45
 800971e:	6823      	ldr	r3, [r4, #0]
 8009720:	6831      	ldr	r1, [r6, #0]
 8009722:	f013 0f80 	tst.w	r3, #128	@ 0x80
 8009726:	f851 5b04 	ldr.w	r5, [r1], #4
 800972a:	d103      	bne.n	8009734 <_printf_i+0x190>
 800972c:	f013 0f40 	tst.w	r3, #64	@ 0x40
 8009730:	bf18      	it	ne
 8009732:	b2ad      	uxthne	r5, r5
 8009734:	6031      	str	r1, [r6, #0]
 8009736:	07d9      	lsls	r1, r3, #31
 8009738:	bf44      	itt	mi
 800973a:	f043 0320 	orrmi.w	r3, r3, #32
 800973e:	6023      	strmi	r3, [r4, #0]
 8009740:	b11d      	cbz	r5, 800974a <_printf_i+0x1a6>
 8009742:	2310      	movs	r3, #16
 8009744:	e7aa      	b.n	800969c <_printf_i+0xf8>
 8009746:	4828      	ldr	r0, [pc, #160]	@ (80097e8 <_printf_i+0x244>)
 8009748:	e7e7      	b.n	800971a <_printf_i+0x176>
 800974a:	6823      	ldr	r3, [r4, #0]
 800974c:	f023 0320 	bic.w	r3, r3, #32
 8009750:	6023      	str	r3, [r4, #0]
 8009752:	e7f6      	b.n	8009742 <_printf_i+0x19e>
 8009754:	230a      	movs	r3, #10
 8009756:	e7a1      	b.n	800969c <_printf_i+0xf8>
 8009758:	4616      	mov	r6, r2
 800975a:	e7b9      	b.n	80096d0 <_printf_i+0x12c>
 800975c:	6833      	ldr	r3, [r6, #0]
 800975e:	6825      	ldr	r5, [r4, #0]
 8009760:	6961      	ldr	r1, [r4, #20]
 8009762:	1d18      	adds	r0, r3, #4
 8009764:	6030      	str	r0, [r6, #0]
 8009766:	062e      	lsls	r6, r5, #24
 8009768:	681b      	ldr	r3, [r3, #0]
 800976a:	d501      	bpl.n	8009770 <_printf_i+0x1cc>
 800976c:	6019      	str	r1, [r3, #0]
 800976e:	e002      	b.n	8009776 <_printf_i+0x1d2>
 8009770:	0668      	lsls	r0, r5, #25
 8009772:	d5fb      	bpl.n	800976c <_printf_i+0x1c8>
 8009774:	8019      	strh	r1, [r3, #0]
 8009776:	2300      	movs	r3, #0
 8009778:	6123      	str	r3, [r4, #16]
 800977a:	4616      	mov	r6, r2
 800977c:	e7b8      	b.n	80096f0 <_printf_i+0x14c>
 800977e:	6833      	ldr	r3, [r6, #0]
 8009780:	1d1a      	adds	r2, r3, #4
 8009782:	6032      	str	r2, [r6, #0]
 8009784:	681e      	ldr	r6, [r3, #0]
 8009786:	6862      	ldr	r2, [r4, #4]
 8009788:	2100      	movs	r1, #0
 800978a:	4630      	mov	r0, r6
 800978c:	f7f6 fd50 	bl	8000230 <memchr>
 8009790:	b108      	cbz	r0, 8009796 <_printf_i+0x1f2>
 8009792:	1b80      	subs	r0, r0, r6
 8009794:	6060      	str	r0, [r4, #4]
 8009796:	6863      	ldr	r3, [r4, #4]
 8009798:	6123      	str	r3, [r4, #16]
 800979a:	2300      	movs	r3, #0
 800979c:	f884 3043 	strb.w	r3, [r4, #67]	@ 0x43
 80097a0:	e7a6      	b.n	80096f0 <_printf_i+0x14c>
 80097a2:	6923      	ldr	r3, [r4, #16]
 80097a4:	4632      	mov	r2, r6
 80097a6:	4641      	mov	r1, r8
 80097a8:	4638      	mov	r0, r7
 80097aa:	47c8      	blx	r9
 80097ac:	3001      	adds	r0, #1
 80097ae:	d0a9      	beq.n	8009704 <_printf_i+0x160>
 80097b0:	6823      	ldr	r3, [r4, #0]
 80097b2:	079b      	lsls	r3, r3, #30
 80097b4:	d413      	bmi.n	80097de <_printf_i+0x23a>
 80097b6:	68e0      	ldr	r0, [r4, #12]
 80097b8:	9b03      	ldr	r3, [sp, #12]
 80097ba:	4298      	cmp	r0, r3
 80097bc:	bfb8      	it	lt
 80097be:	4618      	movlt	r0, r3
 80097c0:	e7a2      	b.n	8009708 <_printf_i+0x164>
 80097c2:	2301      	movs	r3, #1
 80097c4:	4632      	mov	r2, r6
 80097c6:	4641      	mov	r1, r8
 80097c8:	4638      	mov	r0, r7
 80097ca:	47c8      	blx	r9
 80097cc:	3001      	adds	r0, #1
 80097ce:	d099      	beq.n	8009704 <_printf_i+0x160>
 80097d0:	3501      	adds	r5, #1
 80097d2:	68e3      	ldr	r3, [r4, #12]
 80097d4:	9903      	ldr	r1, [sp, #12]
 80097d6:	1a5b      	subs	r3, r3, r1
 80097d8:	42ab      	cmp	r3, r5
 80097da:	dcf2      	bgt.n	80097c2 <_printf_i+0x21e>
 80097dc:	e7eb      	b.n	80097b6 <_printf_i+0x212>
 80097de:	2500      	movs	r5, #0
 80097e0:	f104 0619 	add.w	r6, r4, #25
 80097e4:	e7f5      	b.n	80097d2 <_printf_i+0x22e>
 80097e6:	bf00      	nop
 80097e8:	0800a52a 	.word	0x0800a52a
 80097ec:	0800a53b 	.word	0x0800a53b

080097f0 <__swbuf_r>:
 80097f0:	b5f8      	push	{r3, r4, r5, r6, r7, lr}
 80097f2:	460e      	mov	r6, r1
 80097f4:	4614      	mov	r4, r2
 80097f6:	4605      	mov	r5, r0
 80097f8:	b118      	cbz	r0, 8009802 <__swbuf_r+0x12>
 80097fa:	6a03      	ldr	r3, [r0, #32]
 80097fc:	b90b      	cbnz	r3, 8009802 <__swbuf_r+0x12>
 80097fe:	f7fd fb45 	bl	8006e8c <__sinit>
 8009802:	69a3      	ldr	r3, [r4, #24]
 8009804:	60a3      	str	r3, [r4, #8]
 8009806:	89a3      	ldrh	r3, [r4, #12]
 8009808:	071a      	lsls	r2, r3, #28
 800980a:	d501      	bpl.n	8009810 <__swbuf_r+0x20>
 800980c:	6923      	ldr	r3, [r4, #16]
 800980e:	b943      	cbnz	r3, 8009822 <__swbuf_r+0x32>
 8009810:	4621      	mov	r1, r4
 8009812:	4628      	mov	r0, r5
 8009814:	f000 f82a 	bl	800986c <__swsetup_r>
 8009818:	b118      	cbz	r0, 8009822 <__swbuf_r+0x32>
 800981a:	f04f 37ff 	mov.w	r7, #4294967295	@ 0xffffffff
 800981e:	4638      	mov	r0, r7
 8009820:	bdf8      	pop	{r3, r4, r5, r6, r7, pc}
 8009822:	6823      	ldr	r3, [r4, #0]
 8009824:	6922      	ldr	r2, [r4, #16]
 8009826:	1a98      	subs	r0, r3, r2
 8009828:	6963      	ldr	r3, [r4, #20]
 800982a:	b2f6      	uxtb	r6, r6
 800982c:	4283      	cmp	r3, r0
 800982e:	4637      	mov	r7, r6
 8009830:	dc05      	bgt.n	800983e <__swbuf_r+0x4e>
 8009832:	4621      	mov	r1, r4
 8009834:	4628      	mov	r0, r5
 8009836:	f7fe fed9 	bl	80085ec <_fflush_r>
 800983a:	2800      	cmp	r0, #0
 800983c:	d1ed      	bne.n	800981a <__swbuf_r+0x2a>
 800983e:	68a3      	ldr	r3, [r4, #8]
 8009840:	3b01      	subs	r3, #1
 8009842:	60a3      	str	r3, [r4, #8]
 8009844:	6823      	ldr	r3, [r4, #0]
 8009846:	1c5a      	adds	r2, r3, #1
 8009848:	6022      	str	r2, [r4, #0]
 800984a:	701e      	strb	r6, [r3, #0]
 800984c:	6962      	ldr	r2, [r4, #20]
 800984e:	1c43      	adds	r3, r0, #1
 8009850:	429a      	cmp	r2, r3
 8009852:	d004      	beq.n	800985e <__swbuf_r+0x6e>
 8009854:	89a3      	ldrh	r3, [r4, #12]
 8009856:	07db      	lsls	r3, r3, #31
 8009858:	d5e1      	bpl.n	800981e <__swbuf_r+0x2e>
 800985a:	2e0a      	cmp	r6, #10
 800985c:	d1df      	bne.n	800981e <__swbuf_r+0x2e>
 800985e:	4621      	mov	r1, r4
 8009860:	4628      	mov	r0, r5
 8009862:	f7fe fec3 	bl	80085ec <_fflush_r>
 8009866:	2800      	cmp	r0, #0
 8009868:	d0d9      	beq.n	800981e <__swbuf_r+0x2e>
 800986a:	e7d6      	b.n	800981a <__swbuf_r+0x2a>

0800986c <__swsetup_r>:
 800986c:	b538      	push	{r3, r4, r5, lr}
 800986e:	4b28      	ldr	r3, [pc, #160]	@ (8009910 <__swsetup_r+0xa4>)
 8009870:	4605      	mov	r5, r0
 8009872:	6818      	ldr	r0, [r3, #0]
 8009874:	460c      	mov	r4, r1
 8009876:	b118      	cbz	r0, 8009880 <__swsetup_r+0x14>
 8009878:	6a03      	ldr	r3, [r0, #32]
 800987a:	b90b      	cbnz	r3, 8009880 <__swsetup_r+0x14>
 800987c:	f7fd fb06 	bl	8006e8c <__sinit>
 8009880:	f9b4 300c 	ldrsh.w	r3, [r4, #12]
 8009884:	071a      	lsls	r2, r3, #28
 8009886:	d421      	bmi.n	80098cc <__swsetup_r+0x60>
 8009888:	06d8      	lsls	r0, r3, #27
 800988a:	d407      	bmi.n	800989c <__swsetup_r+0x30>
 800988c:	2209      	movs	r2, #9
 800988e:	602a      	str	r2, [r5, #0]
 8009890:	f043 0340 	orr.w	r3, r3, #64	@ 0x40
 8009894:	81a3      	strh	r3, [r4, #12]
 8009896:	f04f 30ff 	mov.w	r0, #4294967295	@ 0xffffffff
 800989a:	e030      	b.n	80098fe <__swsetup_r+0x92>
 800989c:	0759      	lsls	r1, r3, #29
 800989e:	d512      	bpl.n	80098c6 <__swsetup_r+0x5a>
 80098a0:	6b61      	ldr	r1, [r4, #52]	@ 0x34
 80098a2:	b141      	cbz	r1, 80098b6 <__swsetup_r+0x4a>
 80098a4:	f104 0344 	add.w	r3, r4, #68	@ 0x44
 80098a8:	4299      	cmp	r1, r3
 80098aa:	d002      	beq.n	80098b2 <__swsetup_r+0x46>
 80098ac:	4628      	mov	r0, r5
 80098ae:	f7ff fc63 	bl	8009178 <_free_r>
 80098b2:	2300      	movs	r3, #0
 80098b4:	6363      	str	r3, [r4, #52]	@ 0x34
 80098b6:	2200      	movs	r2, #0
 80098b8:	f9b4 300c 	ldrsh.w	r3, [r4, #12]
 80098bc:	6062      	str	r2, [r4, #4]
 80098be:	6922      	ldr	r2, [r4, #16]
 80098c0:	6022      	str	r2, [r4, #0]
 80098c2:	f023 0324 	bic.w	r3, r3, #36	@ 0x24
 80098c6:	f043 0308 	orr.w	r3, r3, #8
 80098ca:	81a3      	strh	r3, [r4, #12]
 80098cc:	6922      	ldr	r2, [r4, #16]
 80098ce:	b93a      	cbnz	r2, 80098e0 <__swsetup_r+0x74>
 80098d0:	059a      	lsls	r2, r3, #22
 80098d2:	d501      	bpl.n	80098d8 <__swsetup_r+0x6c>
 80098d4:	0618      	lsls	r0, r3, #24
 80098d6:	d503      	bpl.n	80098e0 <__swsetup_r+0x74>
 80098d8:	4621      	mov	r1, r4
 80098da:	4628      	mov	r0, r5
 80098dc:	f000 f83e 	bl	800995c <__smakebuf_r>
 80098e0:	f9b4 300c 	ldrsh.w	r3, [r4, #12]
 80098e4:	f013 0201 	ands.w	r2, r3, #1
 80098e8:	d00a      	beq.n	8009900 <__swsetup_r+0x94>
 80098ea:	2200      	movs	r2, #0
 80098ec:	60a2      	str	r2, [r4, #8]
 80098ee:	6962      	ldr	r2, [r4, #20]
 80098f0:	4252      	negs	r2, r2
 80098f2:	61a2      	str	r2, [r4, #24]
 80098f4:	6922      	ldr	r2, [r4, #16]
 80098f6:	b942      	cbnz	r2, 800990a <__swsetup_r+0x9e>
 80098f8:	f013 0080 	ands.w	r0, r3, #128	@ 0x80
 80098fc:	d1c8      	bne.n	8009890 <__swsetup_r+0x24>
 80098fe:	bd38      	pop	{r3, r4, r5, pc}
 8009900:	0799      	lsls	r1, r3, #30
 8009902:	bf58      	it	pl
 8009904:	6962      	ldrpl	r2, [r4, #20]
 8009906:	60a2      	str	r2, [r4, #8]
 8009908:	e7f4      	b.n	80098f4 <__swsetup_r+0x88>
 800990a:	2000      	movs	r0, #0
 800990c:	e7f7      	b.n	80098fe <__swsetup_r+0x92>
 800990e:	bf00      	nop
 8009910:	20000190 	.word	0x20000190

08009914 <__swhatbuf_r>:
 8009914:	b570      	push	{r4, r5, r6, lr}
 8009916:	460c      	mov	r4, r1
 8009918:	f9b1 100e 	ldrsh.w	r1, [r1, #14]
 800991c:	2900      	cmp	r1, #0
 800991e:	b096      	sub	sp, #88	@ 0x58
 8009920:	4615      	mov	r5, r2
 8009922:	461e      	mov	r6, r3
 8009924:	da0a      	bge.n	800993c <__swhatbuf_r+0x28>
 8009926:	89a1      	ldrh	r1, [r4, #12]
 8009928:	f011 0180 	ands.w	r1, r1, #128	@ 0x80
 800992c:	d113      	bne.n	8009956 <__swhatbuf_r+0x42>
 800992e:	f44f 6280 	mov.w	r2, #1024	@ 0x400
 8009932:	2000      	movs	r0, #0
 8009934:	6031      	str	r1, [r6, #0]
 8009936:	602a      	str	r2, [r5, #0]
 8009938:	b016      	add	sp, #88	@ 0x58
 800993a:	bd70      	pop	{r4, r5, r6, pc}
 800993c:	466a      	mov	r2, sp
 800993e:	f000 f89b 	bl	8009a78 <_fstat_r>
 8009942:	2800      	cmp	r0, #0
 8009944:	dbef      	blt.n	8009926 <__swhatbuf_r+0x12>
 8009946:	9901      	ldr	r1, [sp, #4]
 8009948:	f401 4170 	and.w	r1, r1, #61440	@ 0xf000
 800994c:	f5a1 5300 	sub.w	r3, r1, #8192	@ 0x2000
 8009950:	4259      	negs	r1, r3
 8009952:	4159      	adcs	r1, r3
 8009954:	e7eb      	b.n	800992e <__swhatbuf_r+0x1a>
 8009956:	2100      	movs	r1, #0
 8009958:	2240      	movs	r2, #64	@ 0x40
 800995a:	e7ea      	b.n	8009932 <__swhatbuf_r+0x1e>

0800995c <__smakebuf_r>:
 800995c:	898b      	ldrh	r3, [r1, #12]
 800995e:	b573      	push	{r0, r1, r4, r5, r6, lr}
 8009960:	079e      	lsls	r6, r3, #30
 8009962:	4605      	mov	r5, r0
 8009964:	460c      	mov	r4, r1
 8009966:	d507      	bpl.n	8009978 <__smakebuf_r+0x1c>
 8009968:	f104 0347 	add.w	r3, r4, #71	@ 0x47
 800996c:	6023      	str	r3, [r4, #0]
 800996e:	6123      	str	r3, [r4, #16]
 8009970:	2301      	movs	r3, #1
 8009972:	6163      	str	r3, [r4, #20]
 8009974:	b002      	add	sp, #8
 8009976:	bd70      	pop	{r4, r5, r6, pc}
 8009978:	ab01      	add	r3, sp, #4
 800997a:	466a      	mov	r2, sp
 800997c:	f7ff ffca 	bl	8009914 <__swhatbuf_r>
 8009980:	9e00      	ldr	r6, [sp, #0]
 8009982:	4628      	mov	r0, r5
 8009984:	4631      	mov	r1, r6
 8009986:	f7fe fd1d 	bl	80083c4 <_malloc_r>
 800998a:	f9b4 300c 	ldrsh.w	r3, [r4, #12]
 800998e:	b938      	cbnz	r0, 80099a0 <__smakebuf_r+0x44>
 8009990:	059a      	lsls	r2, r3, #22
 8009992:	d4ef      	bmi.n	8009974 <__smakebuf_r+0x18>
 8009994:	f023 0303 	bic.w	r3, r3, #3
 8009998:	f043 0302 	orr.w	r3, r3, #2
 800999c:	81a3      	strh	r3, [r4, #12]
 800999e:	e7e3      	b.n	8009968 <__smakebuf_r+0xc>
 80099a0:	f043 0380 	orr.w	r3, r3, #128	@ 0x80
 80099a4:	81a3      	strh	r3, [r4, #12]
 80099a6:	9b01      	ldr	r3, [sp, #4]
 80099a8:	6020      	str	r0, [r4, #0]
 80099aa:	e9c4 0604 	strd	r0, r6, [r4, #16]
 80099ae:	2b00      	cmp	r3, #0
 80099b0:	d0e0      	beq.n	8009974 <__smakebuf_r+0x18>
 80099b2:	f9b4 100e 	ldrsh.w	r1, [r4, #14]
 80099b6:	4628      	mov	r0, r5
 80099b8:	f000 f83a 	bl	8009a30 <_isatty_r>
 80099bc:	2800      	cmp	r0, #0
 80099be:	d0d9      	beq.n	8009974 <__smakebuf_r+0x18>
 80099c0:	89a3      	ldrh	r3, [r4, #12]
 80099c2:	f023 0303 	bic.w	r3, r3, #3
 80099c6:	f043 0301 	orr.w	r3, r3, #1
 80099ca:	81a3      	strh	r3, [r4, #12]
 80099cc:	e7d2      	b.n	8009974 <__smakebuf_r+0x18>

080099ce <_raise_r>:
 80099ce:	291f      	cmp	r1, #31
 80099d0:	b538      	push	{r3, r4, r5, lr}
 80099d2:	4605      	mov	r5, r0
 80099d4:	460c      	mov	r4, r1
 80099d6:	d904      	bls.n	80099e2 <_raise_r+0x14>
 80099d8:	2316      	movs	r3, #22
 80099da:	6003      	str	r3, [r0, #0]
 80099dc:	f04f 30ff 	mov.w	r0, #4294967295	@ 0xffffffff
 80099e0:	bd38      	pop	{r3, r4, r5, pc}
 80099e2:	6bc2      	ldr	r2, [r0, #60]	@ 0x3c
 80099e4:	b112      	cbz	r2, 80099ec <_raise_r+0x1e>
 80099e6:	f852 3021 	ldr.w	r3, [r2, r1, lsl #2]
 80099ea:	b94b      	cbnz	r3, 8009a00 <_raise_r+0x32>
 80099ec:	4628      	mov	r0, r5
 80099ee:	f000 f841 	bl	8009a74 <_getpid_r>
 80099f2:	4622      	mov	r2, r4
 80099f4:	4601      	mov	r1, r0
 80099f6:	4628      	mov	r0, r5
 80099f8:	e8bd 4038 	ldmia.w	sp!, {r3, r4, r5, lr}
 80099fc:	f000 b828 	b.w	8009a50 <_kill_r>
 8009a00:	2b01      	cmp	r3, #1
 8009a02:	d00a      	beq.n	8009a1a <_raise_r+0x4c>
 8009a04:	1c59      	adds	r1, r3, #1
 8009a06:	d103      	bne.n	8009a10 <_raise_r+0x42>
 8009a08:	2316      	movs	r3, #22
 8009a0a:	6003      	str	r3, [r0, #0]
 8009a0c:	2001      	movs	r0, #1
 8009a0e:	e7e7      	b.n	80099e0 <_raise_r+0x12>
 8009a10:	2100      	movs	r1, #0
 8009a12:	f842 1024 	str.w	r1, [r2, r4, lsl #2]
 8009a16:	4620      	mov	r0, r4
 8009a18:	4798      	blx	r3
 8009a1a:	2000      	movs	r0, #0
 8009a1c:	e7e0      	b.n	80099e0 <_raise_r+0x12>
	...

08009a20 <raise>:
 8009a20:	4b02      	ldr	r3, [pc, #8]	@ (8009a2c <raise+0xc>)
 8009a22:	4601      	mov	r1, r0
 8009a24:	6818      	ldr	r0, [r3, #0]
 8009a26:	f7ff bfd2 	b.w	80099ce <_raise_r>
 8009a2a:	bf00      	nop
 8009a2c:	20000190 	.word	0x20000190

08009a30 <_isatty_r>:
 8009a30:	b538      	push	{r3, r4, r5, lr}
 8009a32:	4d06      	ldr	r5, [pc, #24]	@ (8009a4c <_isatty_r+0x1c>)
 8009a34:	2300      	movs	r3, #0
 8009a36:	4604      	mov	r4, r0
 8009a38:	4608      	mov	r0, r1
 8009a3a:	602b      	str	r3, [r5, #0]
 8009a3c:	f7fa fcce 	bl	80043dc <_isatty>
 8009a40:	1c43      	adds	r3, r0, #1
 8009a42:	d102      	bne.n	8009a4a <_isatty_r+0x1a>
 8009a44:	682b      	ldr	r3, [r5, #0]
 8009a46:	b103      	cbz	r3, 8009a4a <_isatty_r+0x1a>
 8009a48:	6023      	str	r3, [r4, #0]
 8009a4a:	bd38      	pop	{r3, r4, r5, pc}
 8009a4c:	200008c4 	.word	0x200008c4

08009a50 <_kill_r>:
 8009a50:	b538      	push	{r3, r4, r5, lr}
 8009a52:	4d07      	ldr	r5, [pc, #28]	@ (8009a70 <_kill_r+0x20>)
 8009a54:	2300      	movs	r3, #0
 8009a56:	4604      	mov	r4, r0
 8009a58:	4608      	mov	r0, r1
 8009a5a:	4611      	mov	r1, r2
 8009a5c:	602b      	str	r3, [r5, #0]
 8009a5e:	f7fa fc8b 	bl	8004378 <_kill>
 8009a62:	1c43      	adds	r3, r0, #1
 8009a64:	d102      	bne.n	8009a6c <_kill_r+0x1c>
 8009a66:	682b      	ldr	r3, [r5, #0]
 8009a68:	b103      	cbz	r3, 8009a6c <_kill_r+0x1c>
 8009a6a:	6023      	str	r3, [r4, #0]
 8009a6c:	bd38      	pop	{r3, r4, r5, pc}
 8009a6e:	bf00      	nop
 8009a70:	200008c4 	.word	0x200008c4

08009a74 <_getpid_r>:
 8009a74:	f7fa bc7e 	b.w	8004374 <_getpid>

08009a78 <_fstat_r>:
 8009a78:	b538      	push	{r3, r4, r5, lr}
 8009a7a:	4d07      	ldr	r5, [pc, #28]	@ (8009a98 <_fstat_r+0x20>)
 8009a7c:	2300      	movs	r3, #0
 8009a7e:	4604      	mov	r4, r0
 8009a80:	4608      	mov	r0, r1
 8009a82:	4611      	mov	r1, r2
 8009a84:	602b      	str	r3, [r5, #0]
 8009a86:	f7fa fca4 	bl	80043d2 <_fstat>
 8009a8a:	1c43      	adds	r3, r0, #1
 8009a8c:	d102      	bne.n	8009a94 <_fstat_r+0x1c>
 8009a8e:	682b      	ldr	r3, [r5, #0]
 8009a90:	b103      	cbz	r3, 8009a94 <_fstat_r+0x1c>
 8009a92:	6023      	str	r3, [r4, #0]
 8009a94:	bd38      	pop	{r3, r4, r5, pc}
 8009a96:	bf00      	nop
 8009a98:	200008c4 	.word	0x200008c4

08009a9c <powf>:
 8009a9c:	b508      	push	{r3, lr}
 8009a9e:	ed2d 8b04 	vpush	{d8-d9}
 8009aa2:	eeb0 8a60 	vmov.f32	s16, s1
 8009aa6:	eeb0 9a40 	vmov.f32	s18, s0
 8009aaa:	f000 f85f 	bl	8009b6c <__ieee754_powf>
 8009aae:	eeb4 8a48 	vcmp.f32	s16, s16
 8009ab2:	eef1 fa10 	vmrs	APSR_nzcv, fpscr
 8009ab6:	eef0 8a40 	vmov.f32	s17, s0
 8009aba:	d60b      	bvs.n	8009ad4 <powf+0x38>
 8009abc:	eeb5 9a40 	vcmp.f32	s18, #0.0
 8009ac0:	eef1 fa10 	vmrs	APSR_nzcv, fpscr
 8009ac4:	d117      	bne.n	8009af6 <powf+0x5a>
 8009ac6:	eeb5 8a40 	vcmp.f32	s16, #0.0
 8009aca:	eef1 fa10 	vmrs	APSR_nzcv, fpscr
 8009ace:	d106      	bne.n	8009ade <powf+0x42>
 8009ad0:	eef7 8a00 	vmov.f32	s17, #112	@ 0x3f800000  1.0
 8009ad4:	eeb0 0a68 	vmov.f32	s0, s17
 8009ad8:	ecbd 8b04 	vpop	{d8-d9}
 8009adc:	bd08      	pop	{r3, pc}
 8009ade:	eeb0 0a48 	vmov.f32	s0, s16
 8009ae2:	f000 f839 	bl	8009b58 <finitef>
 8009ae6:	2800      	cmp	r0, #0
 8009ae8:	d0f4      	beq.n	8009ad4 <powf+0x38>
 8009aea:	eeb5 8ac0 	vcmpe.f32	s16, #0.0
 8009aee:	eef1 fa10 	vmrs	APSR_nzcv, fpscr
 8009af2:	d5ef      	bpl.n	8009ad4 <powf+0x38>
 8009af4:	e025      	b.n	8009b42 <powf+0xa6>
 8009af6:	f000 f82f 	bl	8009b58 <finitef>
 8009afa:	b188      	cbz	r0, 8009b20 <powf+0x84>
 8009afc:	eef5 8a40 	vcmp.f32	s17, #0.0
 8009b00:	eef1 fa10 	vmrs	APSR_nzcv, fpscr
 8009b04:	d1e6      	bne.n	8009ad4 <powf+0x38>
 8009b06:	eeb0 0a49 	vmov.f32	s0, s18
 8009b0a:	f000 f825 	bl	8009b58 <finitef>
 8009b0e:	2800      	cmp	r0, #0
 8009b10:	d0e0      	beq.n	8009ad4 <powf+0x38>
 8009b12:	eeb0 0a48 	vmov.f32	s0, s16
 8009b16:	f000 f81f 	bl	8009b58 <finitef>
 8009b1a:	2800      	cmp	r0, #0
 8009b1c:	d0da      	beq.n	8009ad4 <powf+0x38>
 8009b1e:	e010      	b.n	8009b42 <powf+0xa6>
 8009b20:	eeb0 0a49 	vmov.f32	s0, s18
 8009b24:	f000 f818 	bl	8009b58 <finitef>
 8009b28:	2800      	cmp	r0, #0
 8009b2a:	d0e7      	beq.n	8009afc <powf+0x60>
 8009b2c:	eeb0 0a48 	vmov.f32	s0, s16
 8009b30:	f000 f812 	bl	8009b58 <finitef>
 8009b34:	2800      	cmp	r0, #0
 8009b36:	d0e1      	beq.n	8009afc <powf+0x60>
 8009b38:	eef4 8a68 	vcmp.f32	s17, s17
 8009b3c:	eef1 fa10 	vmrs	APSR_nzcv, fpscr
 8009b40:	d604      	bvs.n	8009b4c <powf+0xb0>
 8009b42:	f7fe f89d 	bl	8007c80 <__errno>
 8009b46:	2322      	movs	r3, #34	@ 0x22
 8009b48:	6003      	str	r3, [r0, #0]
 8009b4a:	e7c3      	b.n	8009ad4 <powf+0x38>
 8009b4c:	f7fe f898 	bl	8007c80 <__errno>
 8009b50:	2321      	movs	r3, #33	@ 0x21
 8009b52:	6003      	str	r3, [r0, #0]
 8009b54:	e7be      	b.n	8009ad4 <powf+0x38>
 8009b56:	bf00      	nop

08009b58 <finitef>:
 8009b58:	ee10 3a10 	vmov	r3, s0
 8009b5c:	f023 4000 	bic.w	r0, r3, #2147483648	@ 0x80000000
 8009b60:	f1b0 4fff 	cmp.w	r0, #2139095040	@ 0x7f800000
 8009b64:	bf2c      	ite	cs
 8009b66:	2000      	movcs	r0, #0
 8009b68:	2001      	movcc	r0, #1
 8009b6a:	4770      	bx	lr

08009b6c <__ieee754_powf>:
 8009b6c:	e92d 43f0 	stmdb	sp!, {r4, r5, r6, r7, r8, r9, lr}
 8009b70:	ed2d 8b02 	vpush	{d8}
 8009b74:	b083      	sub	sp, #12
 8009b76:	edcd 0a01 	vstr	s1, [sp, #4]
 8009b7a:	ed8d 0a00 	vstr	s0, [sp]
 8009b7e:	e9dd 4500 	ldrd	r4, r5, [sp]
 8009b82:	f035 4600 	bics.w	r6, r5, #2147483648	@ 0x80000000
 8009b86:	d110      	bne.n	8009baa <__ieee754_powf+0x3e>
 8009b88:	f484 0480 	eor.w	r4, r4, #4194304	@ 0x400000
 8009b8c:	0064      	lsls	r4, r4, #1
 8009b8e:	f514 0f00 	cmn.w	r4, #8388608	@ 0x800000
 8009b92:	d918      	bls.n	8009bc6 <__ieee754_powf+0x5a>
 8009b94:	eddd 7a00 	vldr	s15, [sp]
 8009b98:	ed9d 7a01 	vldr	s14, [sp, #4]
 8009b9c:	ee37 0a87 	vadd.f32	s0, s15, s14
 8009ba0:	b003      	add	sp, #12
 8009ba2:	ecbd 8b02 	vpop	{d8}
 8009ba6:	e8bd 83f0 	ldmia.w	sp!, {r4, r5, r6, r7, r8, r9, pc}
 8009baa:	f024 4700 	bic.w	r7, r4, #2147483648	@ 0x80000000
 8009bae:	f1b7 4fff 	cmp.w	r7, #2139095040	@ 0x7f800000
 8009bb2:	d90f      	bls.n	8009bd4 <__ieee754_powf+0x68>
 8009bb4:	f1b4 5f7e 	cmp.w	r4, #1065353216	@ 0x3f800000
 8009bb8:	d1ec      	bne.n	8009b94 <__ieee754_powf+0x28>
 8009bba:	f485 0580 	eor.w	r5, r5, #4194304	@ 0x400000
 8009bbe:	006d      	lsls	r5, r5, #1
 8009bc0:	f515 0f00 	cmn.w	r5, #8388608	@ 0x800000
 8009bc4:	d8e6      	bhi.n	8009b94 <__ieee754_powf+0x28>
 8009bc6:	eeb7 0a00 	vmov.f32	s0, #112	@ 0x3f800000  1.0
 8009bca:	b003      	add	sp, #12
 8009bcc:	ecbd 8b02 	vpop	{d8}
 8009bd0:	e8bd 83f0 	ldmia.w	sp!, {r4, r5, r6, r7, r8, r9, pc}
 8009bd4:	f1b6 4fff 	cmp.w	r6, #2139095040	@ 0x7f800000
 8009bd8:	d8ec      	bhi.n	8009bb4 <__ieee754_powf+0x48>
 8009bda:	2c00      	cmp	r4, #0
 8009bdc:	46b8      	mov	r8, r7
 8009bde:	db16      	blt.n	8009c0e <__ieee754_powf+0xa2>
 8009be0:	f1b6 4fff 	cmp.w	r6, #2139095040	@ 0x7f800000
 8009be4:	f000 80f6 	beq.w	8009dd4 <__ieee754_powf+0x268>
 8009be8:	f1b6 5f7e 	cmp.w	r6, #1065353216	@ 0x3f800000
 8009bec:	f000 811d 	beq.w	8009e2a <__ieee754_powf+0x2be>
 8009bf0:	f1b5 4f80 	cmp.w	r5, #1073741824	@ 0x40000000
 8009bf4:	f000 814c 	beq.w	8009e90 <__ieee754_powf+0x324>
 8009bf8:	f1b5 5f7c 	cmp.w	r5, #1056964608	@ 0x3f000000
 8009bfc:	f040 8134 	bne.w	8009e68 <__ieee754_powf+0x2fc>
 8009c00:	b003      	add	sp, #12
 8009c02:	ecbd 8b02 	vpop	{d8}
 8009c06:	e8bd 43f0 	ldmia.w	sp!, {r4, r5, r6, r7, r8, r9, lr}
 8009c0a:	f000 bbab 	b.w	800a364 <__ieee754_sqrtf>
 8009c0e:	f1b6 4f97 	cmp.w	r6, #1266679808	@ 0x4b800000
 8009c12:	f080 80e9 	bcs.w	8009de8 <__ieee754_powf+0x27c>
 8009c16:	f1b6 5f7e 	cmp.w	r6, #1065353216	@ 0x3f800000
 8009c1a:	f080 8115 	bcs.w	8009e48 <__ieee754_powf+0x2dc>
 8009c1e:	f1b5 4f80 	cmp.w	r5, #1073741824	@ 0x40000000
 8009c22:	f000 8135 	beq.w	8009e90 <__ieee754_powf+0x324>
 8009c26:	f1b5 5f7c 	cmp.w	r5, #1056964608	@ 0x3f000000
 8009c2a:	f000 8234 	beq.w	800a096 <__ieee754_powf+0x52a>
 8009c2e:	f000 fb91 	bl	800a354 <fabsf>
 8009c32:	f1b7 4fff 	cmp.w	r7, #2139095040	@ 0x7f800000
 8009c36:	f04f 0900 	mov.w	r9, #0
 8009c3a:	f000 80e0 	beq.w	8009dfe <__ieee754_powf+0x292>
 8009c3e:	2f00      	cmp	r7, #0
 8009c40:	f000 811c 	beq.w	8009e7c <__ieee754_powf+0x310>
 8009c44:	f1b7 5f7e 	cmp.w	r7, #1065353216	@ 0x3f800000
 8009c48:	f000 8118 	beq.w	8009e7c <__ieee754_powf+0x310>
 8009c4c:	0fe2      	lsrs	r2, r4, #31
 8009c4e:	3a01      	subs	r2, #1
 8009c50:	ea59 0302 	orrs.w	r3, r9, r2
 8009c54:	f000 8121 	beq.w	8009e9a <__ieee754_powf+0x32e>
 8009c58:	f1b6 4f9a 	cmp.w	r6, #1291845632	@ 0x4d000000
 8009c5c:	f240 8144 	bls.w	8009ee8 <__ieee754_powf+0x37c>
 8009c60:	4b91      	ldr	r3, [pc, #580]	@ (8009ea8 <__ieee754_powf+0x33c>)
 8009c62:	429f      	cmp	r7, r3
 8009c64:	f240 8258 	bls.w	800a118 <__ieee754_powf+0x5ac>
 8009c68:	4b90      	ldr	r3, [pc, #576]	@ (8009eac <__ieee754_powf+0x340>)
 8009c6a:	429f      	cmp	r7, r3
 8009c6c:	f200 8261 	bhi.w	800a132 <__ieee754_powf+0x5c6>
 8009c70:	eef7 7a00 	vmov.f32	s15, #112	@ 0x3f800000  1.0
 8009c74:	ee30 0a67 	vsub.f32	s0, s0, s15
 8009c78:	ed9f 6a8d 	vldr	s12, [pc, #564]	@ 8009eb0 <__ieee754_powf+0x344>
 8009c7c:	ed9f 7a8d 	vldr	s14, [pc, #564]	@ 8009eb4 <__ieee754_powf+0x348>
 8009c80:	eddf 5a8d 	vldr	s11, [pc, #564]	@ 8009eb8 <__ieee754_powf+0x34c>
 8009c84:	eef5 7a00 	vmov.f32	s15, #80	@ 0x3e800000  0.250
 8009c88:	eea0 6a67 	vfms.f32	s12, s0, s15
 8009c8c:	eef6 6a00 	vmov.f32	s13, #96	@ 0x3f000000  0.5
 8009c90:	eee6 6a40 	vfms.f32	s13, s12, s0
 8009c94:	ee60 7a00 	vmul.f32	s15, s0, s0
 8009c98:	ed9f 6a88 	vldr	s12, [pc, #544]	@ 8009ebc <__ieee754_powf+0x350>
 8009c9c:	ee67 7aa6 	vmul.f32	s15, s15, s13
 8009ca0:	ee27 7a67 	vnmul.f32	s14, s14, s15
 8009ca4:	eea0 7a25 	vfma.f32	s14, s0, s11
 8009ca8:	eef0 6a47 	vmov.f32	s13, s14
 8009cac:	eee0 6a06 	vfma.f32	s13, s0, s12
 8009cb0:	ee16 3a90 	vmov	r3, s13
 8009cb4:	f36f 030b 	bfc	r3, #0, #12
 8009cb8:	ee06 3a90 	vmov	s13, r3
 8009cbc:	eef0 7a66 	vmov.f32	s15, s13
 8009cc0:	eee0 7a46 	vfms.f32	s15, s0, s12
 8009cc4:	ee37 7a67 	vsub.f32	s14, s14, s15
 8009cc8:	f36f 050b 	bfc	r5, #0, #12
 8009ccc:	ee07 5a90 	vmov	s15, r5
 8009cd0:	ed9d 6a01 	vldr	s12, [sp, #4]
 8009cd4:	eddd 5a01 	vldr	s11, [sp, #4]
 8009cd8:	ee36 6a67 	vsub.f32	s12, s12, s15
 8009cdc:	ee27 7a25 	vmul.f32	s14, s14, s11
 8009ce0:	ee66 7aa7 	vmul.f32	s15, s13, s15
 8009ce4:	eea6 7a26 	vfma.f32	s14, s12, s13
 8009ce8:	f109 39ff 	add.w	r9, r9, #4294967295	@ 0xffffffff
 8009cec:	ea59 0902 	orrs.w	r9, r9, r2
 8009cf0:	eebf 8a00 	vmov.f32	s16, #240	@ 0xbf800000 -1.0
 8009cf4:	ee77 6a27 	vadd.f32	s13, s14, s15
 8009cf8:	eeb7 6a00 	vmov.f32	s12, #112	@ 0x3f800000  1.0
 8009cfc:	ee16 3a90 	vmov	r3, s13
 8009d00:	bf18      	it	ne
 8009d02:	eeb0 8a46 	vmovne.f32	s16, s12
 8009d06:	2b00      	cmp	r3, #0
 8009d08:	f023 4200 	bic.w	r2, r3, #2147483648	@ 0x80000000
 8009d0c:	f340 81d3 	ble.w	800a0b6 <__ieee754_powf+0x54a>
 8009d10:	f1b2 4f86 	cmp.w	r2, #1124073472	@ 0x43000000
 8009d14:	f200 8252 	bhi.w	800a1bc <__ieee754_powf+0x650>
 8009d18:	f000 8236 	beq.w	800a188 <__ieee754_powf+0x61c>
 8009d1c:	f1b2 5f7c 	cmp.w	r2, #1056964608	@ 0x3f000000
 8009d20:	f200 821a 	bhi.w	800a158 <__ieee754_powf+0x5ec>
 8009d24:	2200      	movs	r2, #0
 8009d26:	4610      	mov	r0, r2
 8009d28:	f36f 030e 	bfc	r3, #0, #15
 8009d2c:	ee06 3a10 	vmov	s12, r3
 8009d30:	eddf 6a63 	vldr	s13, [pc, #396]	@ 8009ec0 <__ieee754_powf+0x354>
 8009d34:	eddf 3a63 	vldr	s7, [pc, #396]	@ 8009ec4 <__ieee754_powf+0x358>
 8009d38:	ed9f 4a63 	vldr	s8, [pc, #396]	@ 8009ec8 <__ieee754_powf+0x35c>
 8009d3c:	ed9f 2a63 	vldr	s4, [pc, #396]	@ 8009ecc <__ieee754_powf+0x360>
 8009d40:	eddf 4a63 	vldr	s9, [pc, #396]	@ 8009ed0 <__ieee754_powf+0x364>
 8009d44:	ed9f 5a63 	vldr	s10, [pc, #396]	@ 8009ed4 <__ieee754_powf+0x368>
 8009d48:	eddf 5a63 	vldr	s11, [pc, #396]	@ 8009ed8 <__ieee754_powf+0x36c>
 8009d4c:	ee76 7a67 	vsub.f32	s15, s12, s15
 8009d50:	eeb0 3a00 	vmov.f32	s6, #0	@ 0x40000000  2.0
 8009d54:	ee37 7a67 	vsub.f32	s14, s14, s15
 8009d58:	ee66 7a26 	vmul.f32	s15, s12, s13
 8009d5c:	eddf 6a5f 	vldr	s13, [pc, #380]	@ 8009edc <__ieee754_powf+0x370>
 8009d60:	eee7 7a26 	vfma.f32	s15, s14, s13
 8009d64:	eeb7 0a00 	vmov.f32	s0, #112	@ 0x3f800000  1.0
 8009d68:	eeb0 7a67 	vmov.f32	s14, s15
 8009d6c:	eea6 7a23 	vfma.f32	s14, s12, s7
 8009d70:	ee67 6a07 	vmul.f32	s13, s14, s14
 8009d74:	eef0 2a47 	vmov.f32	s5, s14
 8009d78:	eee6 2a63 	vfms.f32	s5, s12, s7
 8009d7c:	eeb0 6a44 	vmov.f32	s12, s8
 8009d80:	eea6 6a82 	vfma.f32	s12, s13, s4
 8009d84:	ee77 7ae2 	vsub.f32	s15, s15, s5
 8009d88:	eee6 4a26 	vfma.f32	s9, s12, s13
 8009d8c:	eeb0 6a45 	vmov.f32	s12, s10
 8009d90:	eea4 6aa6 	vfma.f32	s12, s9, s13
 8009d94:	eee7 7a27 	vfma.f32	s15, s14, s15
 8009d98:	eee6 5a26 	vfma.f32	s11, s12, s13
 8009d9c:	eeb0 6a47 	vmov.f32	s12, s14
 8009da0:	eea5 6ae6 	vfms.f32	s12, s11, s13
 8009da4:	ee67 5a06 	vmul.f32	s11, s14, s12
 8009da8:	ee36 6a43 	vsub.f32	s12, s12, s6
 8009dac:	eec5 6a86 	vdiv.f32	s13, s11, s12
 8009db0:	ee76 7ae7 	vsub.f32	s15, s13, s15
 8009db4:	ee77 7ac7 	vsub.f32	s15, s15, s14
 8009db8:	ee30 0a67 	vsub.f32	s0, s0, s15
 8009dbc:	ee10 3a10 	vmov	r3, s0
 8009dc0:	4413      	add	r3, r2
 8009dc2:	f5b3 0f00 	cmp.w	r3, #8388608	@ 0x800000
 8009dc6:	f2c0 81b1 	blt.w	800a12c <__ieee754_powf+0x5c0>
 8009dca:	ee00 3a10 	vmov	s0, r3
 8009dce:	ee20 0a08 	vmul.f32	s0, s0, s16
 8009dd2:	e6e5      	b.n	8009ba0 <__ieee754_powf+0x34>
 8009dd4:	f1b7 5f7e 	cmp.w	r7, #1065353216	@ 0x3f800000
 8009dd8:	f43f aef5 	beq.w	8009bc6 <__ieee754_powf+0x5a>
 8009ddc:	d92d      	bls.n	8009e3a <__ieee754_powf+0x2ce>
 8009dde:	2d00      	cmp	r5, #0
 8009de0:	db28      	blt.n	8009e34 <__ieee754_powf+0x2c8>
 8009de2:	ed9d 0a01 	vldr	s0, [sp, #4]
 8009de6:	e6db      	b.n	8009ba0 <__ieee754_powf+0x34>
 8009de8:	f1b6 4fff 	cmp.w	r6, #2139095040	@ 0x7f800000
 8009dec:	d0f2      	beq.n	8009dd4 <__ieee754_powf+0x268>
 8009dee:	f000 fab1 	bl	800a354 <fabsf>
 8009df2:	f1b7 4fff 	cmp.w	r7, #2139095040	@ 0x7f800000
 8009df6:	f04f 0902 	mov.w	r9, #2
 8009dfa:	f47f af20 	bne.w	8009c3e <__ieee754_powf+0xd2>
 8009dfe:	2d00      	cmp	r5, #0
 8009e00:	da06      	bge.n	8009e10 <__ieee754_powf+0x2a4>
 8009e02:	eef7 7a00 	vmov.f32	s15, #112	@ 0x3f800000  1.0
 8009e06:	ee87 0a80 	vdiv.f32	s0, s15, s0
 8009e0a:	2c00      	cmp	r4, #0
 8009e0c:	f6bf aec8 	bge.w	8009ba0 <__ieee754_powf+0x34>
 8009e10:	f1a7 577e 	sub.w	r7, r7, #1065353216	@ 0x3f800000
 8009e14:	ea57 0709 	orrs.w	r7, r7, r9
 8009e18:	f000 8125 	beq.w	800a066 <__ieee754_powf+0x4fa>
 8009e1c:	f1b9 0f01 	cmp.w	r9, #1
 8009e20:	f47f aebe 	bne.w	8009ba0 <__ieee754_powf+0x34>
 8009e24:	eeb1 0a40 	vneg.f32	s0, s0
 8009e28:	e6ba      	b.n	8009ba0 <__ieee754_powf+0x34>
 8009e2a:	2d00      	cmp	r5, #0
 8009e2c:	db29      	blt.n	8009e82 <__ieee754_powf+0x316>
 8009e2e:	ed9d 0a00 	vldr	s0, [sp]
 8009e32:	e6b5      	b.n	8009ba0 <__ieee754_powf+0x34>
 8009e34:	ed9f 0a2a 	vldr	s0, [pc, #168]	@ 8009ee0 <__ieee754_powf+0x374>
 8009e38:	e6b2      	b.n	8009ba0 <__ieee754_powf+0x34>
 8009e3a:	2d00      	cmp	r5, #0
 8009e3c:	dafa      	bge.n	8009e34 <__ieee754_powf+0x2c8>
 8009e3e:	eddd 7a01 	vldr	s15, [sp, #4]
 8009e42:	eeb1 0a67 	vneg.f32	s0, s15
 8009e46:	e6ab      	b.n	8009ba0 <__ieee754_powf+0x34>
 8009e48:	15f3      	asrs	r3, r6, #23
 8009e4a:	f1c3 0396 	rsb	r3, r3, #150	@ 0x96
 8009e4e:	fa46 f203 	asr.w	r2, r6, r3
 8009e52:	fa02 f303 	lsl.w	r3, r2, r3
 8009e56:	42b3      	cmp	r3, r6
 8009e58:	f000 810a 	beq.w	800a070 <__ieee754_powf+0x504>
 8009e5c:	f1b6 5f7e 	cmp.w	r6, #1065353216	@ 0x3f800000
 8009e60:	d0e3      	beq.n	8009e2a <__ieee754_powf+0x2be>
 8009e62:	f1b5 4f80 	cmp.w	r5, #1073741824	@ 0x40000000
 8009e66:	d013      	beq.n	8009e90 <__ieee754_powf+0x324>
 8009e68:	ed9d 0a00 	vldr	s0, [sp]
 8009e6c:	f000 fa72 	bl	800a354 <fabsf>
 8009e70:	f1b7 4fff 	cmp.w	r7, #2139095040	@ 0x7f800000
 8009e74:	f04f 0900 	mov.w	r9, #0
 8009e78:	f47f aee1 	bne.w	8009c3e <__ieee754_powf+0xd2>
 8009e7c:	2d00      	cmp	r5, #0
 8009e7e:	dbc0      	blt.n	8009e02 <__ieee754_powf+0x296>
 8009e80:	e7c3      	b.n	8009e0a <__ieee754_powf+0x29e>
 8009e82:	ed9d 7a00 	vldr	s14, [sp]
 8009e86:	eef7 7a00 	vmov.f32	s15, #112	@ 0x3f800000  1.0
 8009e8a:	ee87 0a87 	vdiv.f32	s0, s15, s14
 8009e8e:	e687      	b.n	8009ba0 <__ieee754_powf+0x34>
 8009e90:	eddd 7a00 	vldr	s15, [sp]
 8009e94:	ee27 0aa7 	vmul.f32	s0, s15, s15
 8009e98:	e682      	b.n	8009ba0 <__ieee754_powf+0x34>
 8009e9a:	eddd 7a00 	vldr	s15, [sp]
 8009e9e:	ee77 7ae7 	vsub.f32	s15, s15, s15
 8009ea2:	ee87 0aa7 	vdiv.f32	s0, s15, s15
 8009ea6:	e67b      	b.n	8009ba0 <__ieee754_powf+0x34>
 8009ea8:	3f7ffff3 	.word	0x3f7ffff3
 8009eac:	3f800007 	.word	0x3f800007
 8009eb0:	3eaaaaab 	.word	0x3eaaaaab
 8009eb4:	3fb8aa3b 	.word	0x3fb8aa3b
 8009eb8:	36eca570 	.word	0x36eca570
 8009ebc:	3fb8aa00 	.word	0x3fb8aa00
 8009ec0:	35bfbe8c 	.word	0x35bfbe8c
 8009ec4:	3f317200 	.word	0x3f317200
 8009ec8:	b5ddea0e 	.word	0xb5ddea0e
 8009ecc:	3331bb4c 	.word	0x3331bb4c
 8009ed0:	388ab355 	.word	0x388ab355
 8009ed4:	bb360b61 	.word	0xbb360b61
 8009ed8:	3e2aaaab 	.word	0x3e2aaaab
 8009edc:	3f317218 	.word	0x3f317218
 8009ee0:	00000000 	.word	0x00000000
 8009ee4:	4b800000 	.word	0x4b800000
 8009ee8:	f014 4fff 	tst.w	r4, #2139095040	@ 0x7f800000
 8009eec:	f040 8112 	bne.w	800a114 <__ieee754_powf+0x5a8>
 8009ef0:	ed5f 7a04 	vldr	s15, [pc, #-16]	@ 8009ee4 <__ieee754_powf+0x378>
 8009ef4:	ee60 7a27 	vmul.f32	s15, s0, s15
 8009ef8:	f06f 0117 	mvn.w	r1, #23
 8009efc:	ee17 8a90 	vmov	r8, s15
 8009f00:	48b6      	ldr	r0, [pc, #728]	@ (800a1dc <__ieee754_powf+0x670>)
 8009f02:	ea4f 53e8 	mov.w	r3, r8, asr #23
 8009f06:	f3c8 0816 	ubfx	r8, r8, #0, #23
 8009f0a:	3b7f      	subs	r3, #127	@ 0x7f
 8009f0c:	4580      	cmp	r8, r0
 8009f0e:	440b      	add	r3, r1
 8009f10:	f048 517e 	orr.w	r1, r8, #1065353216	@ 0x3f800000
 8009f14:	f340 80f6 	ble.w	800a104 <__ieee754_powf+0x598>
 8009f18:	48b1      	ldr	r0, [pc, #708]	@ (800a1e0 <__ieee754_powf+0x674>)
 8009f1a:	4580      	cmp	r8, r0
 8009f1c:	f340 8113 	ble.w	800a146 <__ieee754_powf+0x5da>
 8009f20:	eddf 4ab0 	vldr	s9, [pc, #704]	@ 800a1e4 <__ieee754_powf+0x678>
 8009f24:	3301      	adds	r3, #1
 8009f26:	eef0 3a64 	vmov.f32	s7, s9
 8009f2a:	f5a1 0100 	sub.w	r1, r1, #8388608	@ 0x800000
 8009f2e:	eef7 5a00 	vmov.f32	s11, #112	@ 0x3f800000  1.0
 8009f32:	2000      	movs	r0, #0
 8009f34:	ee06 1a90 	vmov	s13, r1
 8009f38:	ee76 7aa5 	vadd.f32	s15, s13, s11
 8009f3c:	eeb7 7a00 	vmov.f32	s14, #112	@ 0x3f800000  1.0
 8009f40:	ee87 8a27 	vdiv.f32	s16, s14, s15
 8009f44:	ee07 3a90 	vmov	s15, r3
 8009f48:	4ba7      	ldr	r3, [pc, #668]	@ (800a1e8 <__ieee754_powf+0x67c>)
 8009f4a:	eddf 1aa8 	vldr	s3, [pc, #672]	@ 800a1ec <__ieee754_powf+0x680>
 8009f4e:	ed9f 0aa8 	vldr	s0, [pc, #672]	@ 800a1f0 <__ieee754_powf+0x684>
 8009f52:	eddf 0aa8 	vldr	s1, [pc, #672]	@ 800a1f4 <__ieee754_powf+0x688>
 8009f56:	ed9f 1aa8 	vldr	s2, [pc, #672]	@ 800a1f8 <__ieee754_powf+0x68c>
 8009f5a:	ed9f 5aa8 	vldr	s10, [pc, #672]	@ 800a1fc <__ieee754_powf+0x690>
 8009f5e:	ed9f 2aa8 	vldr	s4, [pc, #672]	@ 800a200 <__ieee754_powf+0x694>
 8009f62:	ea03 0361 	and.w	r3, r3, r1, asr #1
 8009f66:	f043 5300 	orr.w	r3, r3, #536870912	@ 0x20000000
 8009f6a:	f503 0380 	add.w	r3, r3, #4194304	@ 0x400000
 8009f6e:	4403      	add	r3, r0
 8009f70:	ee36 6ae5 	vsub.f32	s12, s13, s11
 8009f74:	eeb8 7ae7 	vcvt.f32.s32	s14, s15
 8009f78:	ee07 3a90 	vmov	s15, r3
 8009f7c:	ee66 2a08 	vmul.f32	s5, s12, s16
 8009f80:	ee77 5ae5 	vsub.f32	s11, s15, s11
 8009f84:	ee12 3a90 	vmov	r3, s5
 8009f88:	ee36 4ae5 	vsub.f32	s8, s13, s11
 8009f8c:	ee62 6aa2 	vmul.f32	s13, s5, s5
 8009f90:	eef0 5a60 	vmov.f32	s11, s1
 8009f94:	eea6 0aa1 	vfma.f32	s0, s13, s3
 8009f98:	f36f 030b 	bfc	r3, #0, #12
 8009f9c:	eeb0 3a08 	vmov.f32	s6, #8	@ 0x40400000  3.0
 8009fa0:	eee0 5a26 	vfma.f32	s11, s0, s13
 8009fa4:	eddf 1a97 	vldr	s3, [pc, #604]	@ 800a204 <__ieee754_powf+0x698>
 8009fa8:	eea5 1aa6 	vfma.f32	s2, s11, s13
 8009fac:	eef0 5a45 	vmov.f32	s11, s10
 8009fb0:	eee1 5a26 	vfma.f32	s11, s2, s13
 8009fb4:	eeb0 5a43 	vmov.f32	s10, s6
 8009fb8:	eea5 2aa6 	vfma.f32	s4, s11, s13
 8009fbc:	ee66 5aa6 	vmul.f32	s11, s13, s13
 8009fc0:	ee06 3a90 	vmov	s13, r3
 8009fc4:	eea6 6ae7 	vfms.f32	s12, s13, s15
 8009fc8:	ee72 7aa6 	vadd.f32	s15, s5, s13
 8009fcc:	eea6 6ac4 	vfms.f32	s12, s13, s8
 8009fd0:	eea6 5aa6 	vfma.f32	s10, s13, s13
 8009fd4:	ee26 6a08 	vmul.f32	s12, s12, s16
 8009fd8:	ed9f 1a8b 	vldr	s2, [pc, #556]	@ 800a208 <__ieee754_powf+0x69c>
 8009fdc:	ed9f 4a8b 	vldr	s8, [pc, #556]	@ 800a20c <__ieee754_powf+0x6a0>
 8009fe0:	ee67 7a86 	vmul.f32	s15, s15, s12
 8009fe4:	eee5 7a82 	vfma.f32	s15, s11, s4
 8009fe8:	ee75 5a27 	vadd.f32	s11, s10, s15
 8009fec:	ee15 3a90 	vmov	r3, s11
 8009ff0:	f36f 030b 	bfc	r3, #0, #12
 8009ff4:	ee05 3a90 	vmov	s11, r3
 8009ff8:	ee35 5ac3 	vsub.f32	s10, s11, s6
 8009ffc:	eea6 5ae6 	vfms.f32	s10, s13, s13
 800a000:	ee77 7ac5 	vsub.f32	s15, s15, s10
 800a004:	ee67 7aa2 	vmul.f32	s15, s15, s5
 800a008:	eee6 7a25 	vfma.f32	s15, s12, s11
 800a00c:	eeb0 6a67 	vmov.f32	s12, s15
 800a010:	eea6 6aa5 	vfma.f32	s12, s13, s11
 800a014:	ee16 3a10 	vmov	r3, s12
 800a018:	f36f 030b 	bfc	r3, #0, #12
 800a01c:	ee06 3a10 	vmov	s12, r3
 800a020:	eeb0 5a46 	vmov.f32	s10, s12
 800a024:	eea6 5ae5 	vfms.f32	s10, s13, s11
 800a028:	ee77 7ac5 	vsub.f32	s15, s15, s10
 800a02c:	ee67 7aa1 	vmul.f32	s15, s15, s3
 800a030:	eee6 7a01 	vfma.f32	s15, s12, s2
 800a034:	ee77 7aa3 	vadd.f32	s15, s15, s7
 800a038:	eef0 6a67 	vmov.f32	s13, s15
 800a03c:	eee6 6a04 	vfma.f32	s13, s12, s8
 800a040:	ee76 6aa4 	vadd.f32	s13, s13, s9
 800a044:	ee76 6a87 	vadd.f32	s13, s13, s14
 800a048:	ee16 3a90 	vmov	r3, s13
 800a04c:	f36f 030b 	bfc	r3, #0, #12
 800a050:	ee06 3a90 	vmov	s13, r3
 800a054:	ee36 7ac7 	vsub.f32	s14, s13, s14
 800a058:	ee37 7a64 	vsub.f32	s14, s14, s9
 800a05c:	eea6 7a44 	vfms.f32	s14, s12, s8
 800a060:	ee37 7ac7 	vsub.f32	s14, s15, s14
 800a064:	e630      	b.n	8009cc8 <__ieee754_powf+0x15c>
 800a066:	ee70 7a40 	vsub.f32	s15, s0, s0
 800a06a:	ee87 0aa7 	vdiv.f32	s0, s15, s15
 800a06e:	e597      	b.n	8009ba0 <__ieee754_powf+0x34>
 800a070:	f1b6 5f7e 	cmp.w	r6, #1065353216	@ 0x3f800000
 800a074:	f43f aed9 	beq.w	8009e2a <__ieee754_powf+0x2be>
 800a078:	f1b5 4f80 	cmp.w	r5, #1073741824	@ 0x40000000
 800a07c:	f43f af08 	beq.w	8009e90 <__ieee754_powf+0x324>
 800a080:	f002 0201 	and.w	r2, r2, #1
 800a084:	f1c2 0902 	rsb	r9, r2, #2
 800a088:	f000 f964 	bl	800a354 <fabsf>
 800a08c:	f1b7 4fff 	cmp.w	r7, #2139095040	@ 0x7f800000
 800a090:	f47f add5 	bne.w	8009c3e <__ieee754_powf+0xd2>
 800a094:	e6b3      	b.n	8009dfe <__ieee754_powf+0x292>
 800a096:	f000 f95d 	bl	800a354 <fabsf>
 800a09a:	f1b7 4fff 	cmp.w	r7, #2139095040	@ 0x7f800000
 800a09e:	f43f ad7f 	beq.w	8009ba0 <__ieee754_powf+0x34>
 800a0a2:	2f00      	cmp	r7, #0
 800a0a4:	f43f ad7c 	beq.w	8009ba0 <__ieee754_powf+0x34>
 800a0a8:	f1b7 5f7e 	cmp.w	r7, #1065353216	@ 0x3f800000
 800a0ac:	f47f aef5 	bne.w	8009e9a <__ieee754_powf+0x32e>
 800a0b0:	f04f 0900 	mov.w	r9, #0
 800a0b4:	e6ac      	b.n	8009e10 <__ieee754_powf+0x2a4>
 800a0b6:	4956      	ldr	r1, [pc, #344]	@ (800a210 <__ieee754_powf+0x6a4>)
 800a0b8:	428a      	cmp	r2, r1
 800a0ba:	f200 8087 	bhi.w	800a1cc <__ieee754_powf+0x660>
 800a0be:	f47f ae2d 	bne.w	8009d1c <__ieee754_powf+0x1b0>
 800a0c2:	ee76 6ae7 	vsub.f32	s13, s13, s15
 800a0c6:	eef4 6ac7 	vcmpe.f32	s13, s14
 800a0ca:	eef1 fa10 	vmrs	APSR_nzcv, fpscr
 800a0ce:	da7d      	bge.n	800a1cc <__ieee754_powf+0x660>
 800a0d0:	f503 4300 	add.w	r3, r3, #32768	@ 0x8000
 800a0d4:	4a4f      	ldr	r2, [pc, #316]	@ (800a214 <__ieee754_powf+0x6a8>)
 800a0d6:	f3c3 51c7 	ubfx	r1, r3, #23, #8
 800a0da:	397f      	subs	r1, #127	@ 0x7f
 800a0dc:	f3c3 0016 	ubfx	r0, r3, #0, #23
 800a0e0:	410a      	asrs	r2, r1
 800a0e2:	f440 0000 	orr.w	r0, r0, #8388608	@ 0x800000
 800a0e6:	f1c1 0117 	rsb	r1, r1, #23
 800a0ea:	401a      	ands	r2, r3
 800a0ec:	4108      	asrs	r0, r1
 800a0ee:	4240      	negs	r0, r0
 800a0f0:	ee06 2a90 	vmov	s13, r2
 800a0f4:	ee77 7ae6 	vsub.f32	s15, s15, s13
 800a0f8:	05c2      	lsls	r2, r0, #23
 800a0fa:	ee77 6a27 	vadd.f32	s13, s14, s15
 800a0fe:	ee16 3a90 	vmov	r3, s13
 800a102:	e611      	b.n	8009d28 <__ieee754_powf+0x1bc>
 800a104:	eddf 4a37 	vldr	s9, [pc, #220]	@ 800a1e4 <__ieee754_powf+0x678>
 800a108:	eef7 5a00 	vmov.f32	s11, #112	@ 0x3f800000  1.0
 800a10c:	eef0 3a64 	vmov.f32	s7, s9
 800a110:	2000      	movs	r0, #0
 800a112:	e70f      	b.n	8009f34 <__ieee754_powf+0x3c8>
 800a114:	2100      	movs	r1, #0
 800a116:	e6f3      	b.n	8009f00 <__ieee754_powf+0x394>
 800a118:	2d00      	cmp	r5, #0
 800a11a:	db0c      	blt.n	800a136 <__ieee754_powf+0x5ca>
 800a11c:	2000      	movs	r0, #0
 800a11e:	b003      	add	sp, #12
 800a120:	ecbd 8b02 	vpop	{d8}
 800a124:	e8bd 43f0 	ldmia.w	sp!, {r4, r5, r6, r7, r8, r9, lr}
 800a128:	f000 b89a 	b.w	800a260 <__math_uflowf>
 800a12c:	f000 f8a4 	bl	800a278 <scalbnf>
 800a130:	e64d      	b.n	8009dce <__ieee754_powf+0x262>
 800a132:	2d00      	cmp	r5, #0
 800a134:	ddf2      	ble.n	800a11c <__ieee754_powf+0x5b0>
 800a136:	2000      	movs	r0, #0
 800a138:	b003      	add	sp, #12
 800a13a:	ecbd 8b02 	vpop	{d8}
 800a13e:	e8bd 43f0 	ldmia.w	sp!, {r4, r5, r6, r7, r8, r9, lr}
 800a142:	f000 b893 	b.w	800a26c <__math_oflowf>
 800a146:	eddf 4a34 	vldr	s9, [pc, #208]	@ 800a218 <__ieee754_powf+0x6ac>
 800a14a:	eddf 3a34 	vldr	s7, [pc, #208]	@ 800a21c <__ieee754_powf+0x6b0>
 800a14e:	eef7 5a08 	vmov.f32	s11, #120	@ 0x3fc00000  1.5
 800a152:	f44f 1000 	mov.w	r0, #2097152	@ 0x200000
 800a156:	e6ed      	b.n	8009f34 <__ieee754_powf+0x3c8>
 800a158:	15d2      	asrs	r2, r2, #23
 800a15a:	3a7e      	subs	r2, #126	@ 0x7e
 800a15c:	f44f 0100 	mov.w	r1, #8388608	@ 0x800000
 800a160:	4111      	asrs	r1, r2
 800a162:	4419      	add	r1, r3
 800a164:	4a2b      	ldr	r2, [pc, #172]	@ (800a214 <__ieee754_powf+0x6a8>)
 800a166:	f3c1 54c7 	ubfx	r4, r1, #23, #8
 800a16a:	3c7f      	subs	r4, #127	@ 0x7f
 800a16c:	f3c1 0016 	ubfx	r0, r1, #0, #23
 800a170:	4122      	asrs	r2, r4
 800a172:	f440 0000 	orr.w	r0, r0, #8388608	@ 0x800000
 800a176:	f1c4 0417 	rsb	r4, r4, #23
 800a17a:	2b00      	cmp	r3, #0
 800a17c:	fa40 f004 	asr.w	r0, r0, r4
 800a180:	ea02 0201 	and.w	r2, r2, r1
 800a184:	dab4      	bge.n	800a0f0 <__ieee754_powf+0x584>
 800a186:	e7b2      	b.n	800a0ee <__ieee754_powf+0x582>
 800a188:	ed9f 6a25 	vldr	s12, [pc, #148]	@ 800a220 <__ieee754_powf+0x6b4>
 800a18c:	ee76 6ae7 	vsub.f32	s13, s13, s15
 800a190:	ee37 6a06 	vadd.f32	s12, s14, s12
 800a194:	eeb4 6ae6 	vcmpe.f32	s12, s13
 800a198:	eef1 fa10 	vmrs	APSR_nzcv, fpscr
 800a19c:	dc0e      	bgt.n	800a1bc <__ieee754_powf+0x650>
 800a19e:	f503 4300 	add.w	r3, r3, #32768	@ 0x8000
 800a1a2:	4a1c      	ldr	r2, [pc, #112]	@ (800a214 <__ieee754_powf+0x6a8>)
 800a1a4:	15d9      	asrs	r1, r3, #23
 800a1a6:	397f      	subs	r1, #127	@ 0x7f
 800a1a8:	f3c3 0016 	ubfx	r0, r3, #0, #23
 800a1ac:	410a      	asrs	r2, r1
 800a1ae:	f440 0000 	orr.w	r0, r0, #8388608	@ 0x800000
 800a1b2:	f1c1 0117 	rsb	r1, r1, #23
 800a1b6:	401a      	ands	r2, r3
 800a1b8:	4108      	asrs	r0, r1
 800a1ba:	e799      	b.n	800a0f0 <__ieee754_powf+0x584>
 800a1bc:	eeb5 8ac0 	vcmpe.f32	s16, #0.0
 800a1c0:	eef1 fa10 	vmrs	APSR_nzcv, fpscr
 800a1c4:	bf4c      	ite	mi
 800a1c6:	2001      	movmi	r0, #1
 800a1c8:	2000      	movpl	r0, #0
 800a1ca:	e7b5      	b.n	800a138 <__ieee754_powf+0x5cc>
 800a1cc:	eeb5 8ac0 	vcmpe.f32	s16, #0.0
 800a1d0:	eef1 fa10 	vmrs	APSR_nzcv, fpscr
 800a1d4:	bf4c      	ite	mi
 800a1d6:	2001      	movmi	r0, #1
 800a1d8:	2000      	movpl	r0, #0
 800a1da:	e7a0      	b.n	800a11e <__ieee754_powf+0x5b2>
 800a1dc:	001cc471 	.word	0x001cc471
 800a1e0:	005db3d6 	.word	0x005db3d6
 800a1e4:	00000000 	.word	0x00000000
 800a1e8:	dffff000 	.word	0xdffff000
 800a1ec:	3e53f142 	.word	0x3e53f142
 800a1f0:	3e6c3255 	.word	0x3e6c3255
 800a1f4:	3e8ba305 	.word	0x3e8ba305
 800a1f8:	3eaaaaab 	.word	0x3eaaaaab
 800a1fc:	3edb6db7 	.word	0x3edb6db7
 800a200:	3f19999a 	.word	0x3f19999a
 800a204:	3f76384f 	.word	0x3f76384f
 800a208:	b8f623c6 	.word	0xb8f623c6
 800a20c:	3f764000 	.word	0x3f764000
 800a210:	43160000 	.word	0x43160000
 800a214:	ff800000 	.word	0xff800000
 800a218:	3f15c000 	.word	0x3f15c000
 800a21c:	35d1cfdc 	.word	0x35d1cfdc
 800a220:	3338aa3c 	.word	0x3338aa3c

0800a224 <with_errnof>:
 800a224:	b510      	push	{r4, lr}
 800a226:	ed2d 8b02 	vpush	{d8}
 800a22a:	eeb0 8a40 	vmov.f32	s16, s0
 800a22e:	4604      	mov	r4, r0
 800a230:	f7fd fd26 	bl	8007c80 <__errno>
 800a234:	eeb0 0a48 	vmov.f32	s0, s16
 800a238:	ecbd 8b02 	vpop	{d8}
 800a23c:	6004      	str	r4, [r0, #0]
 800a23e:	bd10      	pop	{r4, pc}

0800a240 <xflowf>:
 800a240:	b130      	cbz	r0, 800a250 <xflowf+0x10>
 800a242:	eef1 7a40 	vneg.f32	s15, s0
 800a246:	ee27 0a80 	vmul.f32	s0, s15, s0
 800a24a:	2022      	movs	r0, #34	@ 0x22
 800a24c:	f7ff bfea 	b.w	800a224 <with_errnof>
 800a250:	eef0 7a40 	vmov.f32	s15, s0
 800a254:	ee27 0a80 	vmul.f32	s0, s15, s0
 800a258:	2022      	movs	r0, #34	@ 0x22
 800a25a:	f7ff bfe3 	b.w	800a224 <with_errnof>
 800a25e:	bf00      	nop

0800a260 <__math_uflowf>:
 800a260:	ed9f 0a01 	vldr	s0, [pc, #4]	@ 800a268 <__math_uflowf+0x8>
 800a264:	f7ff bfec 	b.w	800a240 <xflowf>
 800a268:	10000000 	.word	0x10000000

0800a26c <__math_oflowf>:
 800a26c:	ed9f 0a01 	vldr	s0, [pc, #4]	@ 800a274 <__math_oflowf+0x8>
 800a270:	f7ff bfe6 	b.w	800a240 <xflowf>
 800a274:	70000000 	.word	0x70000000

0800a278 <scalbnf>:
 800a278:	ee10 3a10 	vmov	r3, s0
 800a27c:	f033 4100 	bics.w	r1, r3, #2147483648	@ 0x80000000
 800a280:	461a      	mov	r2, r3
 800a282:	d025      	beq.n	800a2d0 <scalbnf+0x58>
 800a284:	f1b1 4fff 	cmp.w	r1, #2139095040	@ 0x7f800000
 800a288:	d21f      	bcs.n	800a2ca <scalbnf+0x52>
 800a28a:	f013 4fff 	tst.w	r3, #2139095040	@ 0x7f800000
 800a28e:	d120      	bne.n	800a2d2 <scalbnf+0x5a>
 800a290:	eddf 7a29 	vldr	s15, [pc, #164]	@ 800a338 <scalbnf+0xc0>
 800a294:	4a29      	ldr	r2, [pc, #164]	@ (800a33c <scalbnf+0xc4>)
 800a296:	ee60 7a27 	vmul.f32	s15, s0, s15
 800a29a:	4290      	cmp	r0, r2
 800a29c:	ee17 3a90 	vmov	r3, s15
 800a2a0:	db31      	blt.n	800a306 <scalbnf+0x8e>
 800a2a2:	f24c 3c50 	movw	ip, #50000	@ 0xc350
 800a2a6:	f3c3 51c7 	ubfx	r1, r3, #23, #8
 800a2aa:	4560      	cmp	r0, ip
 800a2ac:	461a      	mov	r2, r3
 800a2ae:	f1a1 0119 	sub.w	r1, r1, #25
 800a2b2:	dd14      	ble.n	800a2de <scalbnf+0x66>
 800a2b4:	2b00      	cmp	r3, #0
 800a2b6:	eddf 7a22 	vldr	s15, [pc, #136]	@ 800a340 <scalbnf+0xc8>
 800a2ba:	ed9f 0a21 	vldr	s0, [pc, #132]	@ 800a340 <scalbnf+0xc8>
 800a2be:	bfb8      	it	lt
 800a2c0:	eddf 7a20 	vldrlt	s15, [pc, #128]	@ 800a344 <scalbnf+0xcc>
 800a2c4:	ee27 0a80 	vmul.f32	s0, s15, s0
 800a2c8:	4770      	bx	lr
 800a2ca:	ee30 0a00 	vadd.f32	s0, s0, s0
 800a2ce:	4770      	bx	lr
 800a2d0:	4770      	bx	lr
 800a2d2:	f24c 3c50 	movw	ip, #50000	@ 0xc350
 800a2d6:	4560      	cmp	r0, ip
 800a2d8:	ea4f 51d1 	mov.w	r1, r1, lsr #23
 800a2dc:	dcea      	bgt.n	800a2b4 <scalbnf+0x3c>
 800a2de:	4401      	add	r1, r0
 800a2e0:	29fe      	cmp	r1, #254	@ 0xfe
 800a2e2:	dce7      	bgt.n	800a2b4 <scalbnf+0x3c>
 800a2e4:	2900      	cmp	r1, #0
 800a2e6:	dc15      	bgt.n	800a314 <scalbnf+0x9c>
 800a2e8:	f111 0f16 	cmn.w	r1, #22
 800a2ec:	db19      	blt.n	800a322 <scalbnf+0xaa>
 800a2ee:	3119      	adds	r1, #25
 800a2f0:	f022 42ff 	bic.w	r2, r2, #2139095040	@ 0x7f800000
 800a2f4:	ea42 52c1 	orr.w	r2, r2, r1, lsl #23
 800a2f8:	ee07 2a90 	vmov	s15, r2
 800a2fc:	ed9f 0a12 	vldr	s0, [pc, #72]	@ 800a348 <scalbnf+0xd0>
 800a300:	ee27 0a80 	vmul.f32	s0, s15, s0
 800a304:	4770      	bx	lr
 800a306:	eddf 7a11 	vldr	s15, [pc, #68]	@ 800a34c <scalbnf+0xd4>
 800a30a:	ee07 3a10 	vmov	s14, r3
 800a30e:	ee27 0a27 	vmul.f32	s0, s14, s15
 800a312:	4770      	bx	lr
 800a314:	f022 42ff 	bic.w	r2, r2, #2139095040	@ 0x7f800000
 800a318:	ea42 53c1 	orr.w	r3, r2, r1, lsl #23
 800a31c:	ee00 3a10 	vmov	s0, r3
 800a320:	4770      	bx	lr
 800a322:	2b00      	cmp	r3, #0
 800a324:	eddf 7a09 	vldr	s15, [pc, #36]	@ 800a34c <scalbnf+0xd4>
 800a328:	ed9f 0a08 	vldr	s0, [pc, #32]	@ 800a34c <scalbnf+0xd4>
 800a32c:	bfb8      	it	lt
 800a32e:	eddf 7a08 	vldrlt	s15, [pc, #32]	@ 800a350 <scalbnf+0xd8>
 800a332:	ee27 0a80 	vmul.f32	s0, s15, s0
 800a336:	4770      	bx	lr
 800a338:	4c000000 	.word	0x4c000000
 800a33c:	ffff3cb0 	.word	0xffff3cb0
 800a340:	7149f2ca 	.word	0x7149f2ca
 800a344:	f149f2ca 	.word	0xf149f2ca
 800a348:	33000000 	.word	0x33000000
 800a34c:	0da24260 	.word	0x0da24260
 800a350:	8da24260 	.word	0x8da24260

0800a354 <fabsf>:
 800a354:	ee10 3a10 	vmov	r3, s0
 800a358:	f023 4300 	bic.w	r3, r3, #2147483648	@ 0x80000000
 800a35c:	ee00 3a10 	vmov	s0, r3
 800a360:	4770      	bx	lr
 800a362:	bf00      	nop

0800a364 <__ieee754_sqrtf>:
 800a364:	eeb1 0ac0 	vsqrt.f32	s0, s0
 800a368:	4770      	bx	lr
 800a36a:	bf00      	nop

0800a36c <_init>:
 800a36c:	b5f8      	push	{r3, r4, r5, r6, r7, lr}
 800a36e:	bf00      	nop
 800a370:	bcf8      	pop	{r3, r4, r5, r6, r7}
 800a372:	bc08      	pop	{r3}
 800a374:	469e      	mov	lr, r3
 800a376:	4770      	bx	lr

0800a378 <_fini>:
 800a378:	b5f8      	push	{r3, r4, r5, r6, r7, lr}
 800a37a:	bf00      	nop
 800a37c:	bcf8      	pop	{r3, r4, r5, r6, r7}
 800a37e:	bc08      	pop	{r3}
 800a380:	469e      	mov	lr, r3
 800a382:	4770      	bx	lr
